TN:
SF:/opt/ros/humble/include/tf2/tf2/LinearMath/Transform.h
FN:44,_ZN3tf29TransformC2Ev
FNDA:704,_ZN3tf29TransformC2Ev
FN:48,_ZN3tf29TransformC2ERKNS_10QuaternionERKNS_7Vector3E
FNDA:10,_ZN3tf29TransformC2ERKNS_10QuaternionERKNS_7Vector3E
FN:80,_ZN3tf29Transform4multERKS0_S2_
FNDA:352,_ZN3tf29Transform4multERKS0_S2_
FN:93,_ZNK3tf29TransformclERKNS_7Vector3E
FNDA:352,_ZNK3tf29TransformclERKNS_7Vector3E
FN:120,_ZNK3tf29Transform9getOriginEv
FNDA:1056,_ZNK3tf29Transform9getOriginEv
FN:124,_ZNK3tf29Transform11getRotationEv
FNDA:352,_ZNK3tf29Transform11getRotationEv
FN:154,_ZN3tf29Transform9setOriginERKNS_7Vector3E
FNDA:352,_ZN3tf29Transform9setOriginERKNS_7Vector3E
FN:169,_ZN3tf29Transform11setRotationERKNS_10QuaternionE
FNDA:352,_ZN3tf29Transform11setRotationERKNS_10QuaternionE
DA:44,704
DA:48,10
DA:50,10
DA:51,10
DA:52,10
DA:80,352
DA:81,352
DA:82,352
DA:83,352
DA:93,352
DA:95,352
DA:96,352
DA:97,704
DA:120,1056
DA:124,352
DA:125,352
DA:126,352
DA:127,352
DA:154,352
DA:156,352
DA:157,352
DA:169,352
DA:171,352
DA:172,352
end_of_record
SF:/opt/ros/humble/include/tf2/tf2/LinearMath/Matrix3x3.h
FN:41,_ZN3tf29Matrix3x3C2Ev
FNDA:704,_ZN3tf29Matrix3x3C2Ev
FN:47,_ZN3tf29Matrix3x3C2ERKNS_10QuaternionE
FNDA:10,_ZN3tf29Matrix3x3C2ERKNS_10QuaternionE
FN:57,_ZN3tf29Matrix3x3C2ERKdS2_S2_S2_S2_S2_S2_S2_S2_
FNDA:352,_ZN3tf29Matrix3x3C2ERKdS2_S2_S2_S2_S2_S2_S2_S2_
FN:75,_ZN3tf29Matrix3x3aSERKS0_
FNDA:352,_ZN3tf29Matrix3x3aSERKS0_
FN:110,_ZNK3tf29Matrix3x3ixEi
FNDA:4224,_ZNK3tf29Matrix3x3ixEi
FN:143,_ZN3tf29Matrix3x38setValueERKdS2_S2_S2_S2_S2_S2_S2_S2_
FNDA:714,_ZN3tf29Matrix3x38setValueERKdS2_S2_S2_S2_S2_S2_S2_S2_
FN:155,_ZN3tf29Matrix3x311setRotationERKNS_10QuaternionE
FNDA:362,_ZN3tf29Matrix3x311setRotationERKNS_10QuaternionE
FN:247,_ZNK3tf29Matrix3x311getRotationERNS_10QuaternionE
FNDA:352,_ZNK3tf29Matrix3x311getRotationERNS_10QuaternionE
FN:396,_ZNK3tf29Matrix3x35tdotxERKNS_7Vector3E
FNDA:1056,_ZNK3tf29Matrix3x35tdotxERKNS_7Vector3E
FN:400,_ZNK3tf29Matrix3x35tdotyERKNS_7Vector3E
FNDA:1056,_ZNK3tf29Matrix3x35tdotyERKNS_7Vector3E
FN:404,_ZNK3tf29Matrix3x35tdotzERKNS_7Vector3E
FNDA:1056,_ZNK3tf29Matrix3x35tdotzERKNS_7Vector3E
FN:624,_ZN3tf2mlERKNS_9Matrix3x3ES2_
FNDA:352,_ZN3tf2mlERKNS_9Matrix3x3ES2_
DA:41,2816
DA:47,40
DA:57,352
DA:60,1408
DA:61,352
DA:64,352
DA:75,352
DA:77,352
DA:78,352
DA:79,352
DA:80,352
DA:110,4224
DA:113,4224
DA:143,714
DA:147,714
DA:148,714
DA:149,714
DA:150,714
DA:155,362
DA:157,362
DA:159,362
DA:160,362
DA:161,362
DA:162,362
DA:163,362
DA:164,724
DA:165,724
DA:166,362
DA:167,362
DA:247,352
DA:249,352
DA:252,352
DA:254,248
DA:255,248
DA:256,248
DA:258,248
DA:259,248
DA:260,248
DA:264,208
DA:265,0
DA:266,104
DA:267,104
DA:268,104
DA:270,104
DA:271,104
DA:272,104
DA:274,104
DA:275,104
DA:276,104
DA:278,352
DA:279,352
DA:396,1056
DA:398,1056
DA:400,1056
DA:402,1056
DA:404,1056
DA:406,1056
DA:624,352
DA:627,352
DA:628,352
DA:629,1056
end_of_record
SF:/usr/include/c++/11/bits/allocator.h
FN:156,_ZNSaIN13geometry_msgs3msg12PoseStamped_ISaIvEEEEC2Ev
FNDA:3,_ZNSaIN13geometry_msgs3msg12PoseStamped_ISaIvEEEEC2Ev
FN:174,_ZNSaIN13geometry_msgs3msg12PoseStamped_ISaIvEEEED2Ev
FNDA:0,_ZNSaIN13geometry_msgs3msg12PoseStamped_ISaIvEEEED2Ev
DA:156,3
DA:174,0
end_of_record
SF:/opt/ros/humble/include/tf2/tf2/LinearMath/Quaternion.h
FN:33,_ZN3tf210QuaternionC2Ev
FNDA:352,_ZN3tf210QuaternionC2Ev
FN:39,_ZN3tf210QuaternionC2ERKdS2_S2_S2_
FNDA:353,_ZN3tf210QuaternionC2ERKdS2_S2_S2_
FN:46,_ZN3tf210QuaternionC2ERKNS_7Vector3ERKd
FNDA:8,_ZN3tf210QuaternionC2ERKNS_7Vector3ERKd
FN:54,_ZN3tf210Quaternion11setRotationERKNS_7Vector3ERKd
FNDA:8,_ZN3tf210Quaternion11setRotationERKNS_7Vector3ERKd
FN:145,_ZNK3tf210Quaternion3dotERKS0_
FNDA:362,_ZNK3tf210Quaternion3dotERKS0_
FN:152,_ZNK3tf210Quaternion7length2Ev
FNDA:362,_ZNK3tf210Quaternion7length2Ev
FN:345,_ZN3tf210Quaternion11getIdentityEv
FNDA:2,_ZN3tf210Quaternion11getIdentityEv
FN:351,_ZNK3tf210Quaternion4getWEv
FNDA:352,_ZNK3tf210Quaternion4getWEv
DA:33,352
DA:39,353
DA:40,353
DA:41,353
DA:46,8
DA:47,8
DA:48,8
DA:49,8
DA:54,8
DA:56,8
DA:58,8
DA:59,8
DA:60,8
DA:61,8
DA:145,362
DA:147,362
DA:152,362
DA:154,362
DA:345,2
DA:347,2
DA:348,2
DA:351,352
end_of_record
SF:/opt/ros/humble/include/tf2/tf2/LinearMath/QuadWord.h
FN:61,_ZNK3tf28QuadWord4getXEv
FNDA:352,_ZNK3tf28QuadWord4getXEv
FN:63,_ZNK3tf28QuadWord4getYEv
FNDA:352,_ZNK3tf28QuadWord4getYEv
FN:65,_ZNK3tf28QuadWord4getZEv
FNDA:352,_ZNK3tf28QuadWord4getZEv
FN:75,_ZNK3tf28QuadWord1xEv
FNDA:1810,_ZNK3tf28QuadWord1xEv
FN:77,_ZNK3tf28QuadWord1yEv
FNDA:1448,_ZNK3tf28QuadWord1yEv
FN:79,_ZNK3tf28QuadWord1zEv
FNDA:1086,_ZNK3tf28QuadWord1zEv
FN:81,_ZNK3tf28QuadWord1wEv
FNDA:1086,_ZNK3tf28QuadWord1wEv
FN:125,_ZN3tf28QuadWord8setValueERKdS2_S2_S2_
FNDA:360,_ZN3tf28QuadWord8setValueERKdS2_S2_S2_
FN:133,_ZN3tf28QuadWordC2Ev
FNDA:360,_ZN3tf28QuadWordC2Ev
FN:154,_ZN3tf28QuadWordC2ERKdS2_S2_S2_
FNDA:353,_ZN3tf28QuadWordC2ERKdS2_S2_S2_
DA:61,352
DA:63,352
DA:65,352
DA:75,1810
DA:77,1448
DA:79,1086
DA:81,1086
DA:125,360
DA:127,360
DA:128,360
DA:129,360
DA:130,360
DA:131,360
DA:133,360
DA:135,360
DA:136,360
DA:154,353
DA:155,353
DA:156,353
DA:157,353
end_of_record
SF:/usr/include/c++/11/bits/basic_string.h
FN:251,_ZNSt7__cxx1112basic_stringIcSt11char_traitsIcESaIcEE16_M_construct_auxIPcEEvT_S7_St12__false_type
FNDA:0,_ZNSt7__cxx1112basic_stringIcSt11char_traitsIcESaIcEE16_M_construct_auxIPcEEvT_S7_St12__false_type
FN:271,_ZNSt7__cxx1112basic_stringIcSt11char_traitsIcESaIcEE12_M_constructIPcEEvT_S7_
FNDA:0,_ZNSt7__cxx1112basic_stringIcSt11char_traitsIcESaIcEE12_M_constructIPcEEvT_S7_
DA:251,0
DA:255,0
DA:256,0
DA:271,0
DA:274,0
DA:275,0
end_of_record
SF:/opt/ros/humble/include/tf2/tf2/LinearMath/Scalar.h
FN:177,_Z7tf2Sqrtd
FNDA:360,_Z7tf2Sqrtd
FN:179,_Z6tf2Cosd
FNDA:8,_Z6tf2Cosd
FN:180,_Z6tf2Sind
FNDA:8,_Z6tf2Sind
DA:177,360
DA:179,8
DA:180,8
end_of_record
SF:/opt/ros/humble/include/nav_msgs/nav_msgs/msg/detail/path__struct.hpp
FN:42,_ZN8nav_msgs3msg5Path_ISaIvEEC2EN18rosidl_runtime_cpp21MessageInitializationE
FNDA:3,_ZN8nav_msgs3msg5Path_ISaIvEEC2EN18rosidl_runtime_cpp21MessageInitializationE
DA:42,3
DA:43,3
DA:46,3
end_of_record
SF:/usr/include/c++/11/bits/stl_vector.h
FN:97,_ZNSt12_Vector_baseIN13geometry_msgs3msg12PoseStamped_ISaIvEEESaIS4_EE17_Vector_impl_dataC2Ev
FNDA:3,_ZNSt12_Vector_baseIN13geometry_msgs3msg12PoseStamped_ISaIvEEESaIS4_EE17_Vector_impl_dataC2Ev
FN:131,_ZNSt12_Vector_baseIN13geometry_msgs3msg12PoseStamped_ISaIvEEESaIS4_EE12_Vector_implC2Ev
FNDA:3,_ZNSt12_Vector_baseIN13geometry_msgs3msg12PoseStamped_ISaIvEEESaIS4_EE12_Vector_implC2Ev
FN:276,_ZNSt12_Vector_baseIN13geometry_msgs3msg12PoseStamped_ISaIvEEESaIS4_EE19_M_get_Tp_allocatorEv
FNDA:0,_ZNSt12_Vector_baseIN13geometry_msgs3msg12PoseStamped_ISaIvEEESaIS4_EE19_M_get_Tp_allocatorEv
FN:280,_ZNKSt12_Vector_baseIN13geometry_msgs3msg12PoseStamped_ISaIvEEESaIS4_EE19_M_get_Tp_allocatorEv
FNDA:16,_ZNKSt12_Vector_baseIN13geometry_msgs3msg12PoseStamped_ISaIvEEESaIS4_EE19_M_get_Tp_allocatorEv
FN:288,_ZNSt12_Vector_baseIN13geometry_msgs3msg12PoseStamped_ISaIvEEESaIS4_EEC2Ev
FNDA:3,_ZNSt12_Vector_baseIN13geometry_msgs3msg12PoseStamped_ISaIvEEESaIS4_EEC2Ev
FN:333,_ZNSt12_Vector_baseIN13geometry_msgs3msg12PoseStamped_ISaIvEEESaIS4_EED2Ev
FNDA:0,_ZNSt12_Vector_baseIN13geometry_msgs3msg12PoseStamped_ISaIvEEESaIS4_EED2Ev
FN:343,_ZNSt12_Vector_baseIN13geometry_msgs3msg12PoseStamped_ISaIvEEESaIS4_EE11_M_allocateEm
FNDA:13,_ZNSt12_Vector_baseIN13geometry_msgs3msg12PoseStamped_ISaIvEEESaIS4_EE11_M_allocateEm
FN:350,_ZNSt12_Vector_baseIN13geometry_msgs3msg12PoseStamped_ISaIvEEESaIS4_EE13_M_deallocateEPS4_m
FNDA:0,_ZNSt12_Vector_baseIN13geometry_msgs3msg12PoseStamped_ISaIvEEESaIS4_EE13_M_deallocateEPS4_m
FN:453,_ZNSt6vectorIN13geometry_msgs3msg12PoseStamped_ISaIvEEESaIS4_EE14_S_do_relocateEPS4_S7_S7_RS5_St17integral_constantIbLb1EE
FNDA:16,_ZNSt6vectorIN13geometry_msgs3msg12PoseStamped_ISaIvEEESaIS4_EE14_S_do_relocateEPS4_S7_S7_RS5_St17integral_constantIbLb1EE
FN:465,_ZNSt6vectorIN13geometry_msgs3msg12PoseStamped_ISaIvEEESaIS4_EE11_S_relocateEPS4_S7_S7_RS5_
FNDA:16,_ZNSt6vectorIN13geometry_msgs3msg12PoseStamped_ISaIvEEESaIS4_EE11_S_relocateEPS4_S7_S7_RS5_
FN:487,_ZNSt6vectorIN13geometry_msgs3msg12PoseStamped_ISaIvEEESaIS4_EEC2Ev
FNDA:3,_ZNSt6vectorIN13geometry_msgs3msg12PoseStamped_ISaIvEEESaIS4_EEC2Ev
FN:678,_ZNSt6vectorIN13geometry_msgs3msg12PoseStamped_ISaIvEEESaIS4_EED2Ev
FNDA:0,_ZNSt6vectorIN13geometry_msgs3msg12PoseStamped_ISaIvEEESaIS4_EED2Ev
FN:811,_ZNSt6vectorIN13geometry_msgs3msg12PoseStamped_ISaIvEEESaIS4_EE5beginEv
FNDA:0,_ZNSt6vectorIN13geometry_msgs3msg12PoseStamped_ISaIvEEESaIS4_EE5beginEv
FN:829,_ZNSt6vectorIN13geometry_msgs3msg12PoseStamped_ISaIvEEESaIS4_EE3endEv
FNDA:0,_ZNSt6vectorIN13geometry_msgs3msg12PoseStamped_ISaIvEEESaIS4_EE3endEv
FN:918,_ZNKSt6vectorIN13geometry_msgs3msg12PoseStamped_ISaIvEEESaIS4_EE4sizeEv
FNDA:0,_ZNKSt6vectorIN13geometry_msgs3msg12PoseStamped_ISaIvEEESaIS4_EE4sizeEv
FN:923,_ZNKSt6vectorIN13geometry_msgs3msg12PoseStamped_ISaIvEEESaIS4_EE8max_sizeEv
FNDA:16,_ZNKSt6vectorIN13geometry_msgs3msg12PoseStamped_ISaIvEEESaIS4_EE8max_sizeEv
FN:998,_ZNKSt6vectorIN13geometry_msgs3msg12PoseStamped_ISaIvEEESaIS4_EE8capacityEv
FNDA:10,_ZNKSt6vectorIN13geometry_msgs3msg12PoseStamped_ISaIvEEESaIS4_EE8capacityEv
FN:1143,_ZNSt6vectorIN13geometry_msgs3msg12PoseStamped_ISaIvEEESaIS4_EE4backEv
FNDA:0,_ZNSt6vectorIN13geometry_msgs3msg12PoseStamped_ISaIvEEESaIS4_EE4backEv
FN:1187,_ZNSt6vectorIN13geometry_msgs3msg12PoseStamped_ISaIvEEESaIS4_EE9push_backERKS4_
FNDA:3,_ZNSt6vectorIN13geometry_msgs3msg12PoseStamped_ISaIvEEESaIS4_EE9push_backERKS4_
FN:1756,_ZNKSt6vectorIN13geometry_msgs3msg12PoseStamped_ISaIvEEESaIS4_EE12_M_check_lenEmPKc
FNDA:3,_ZNKSt6vectorIN13geometry_msgs3msg12PoseStamped_ISaIvEEESaIS4_EE12_M_check_lenEmPKc
FN:1776,_ZNSt6vectorIN13geometry_msgs3msg12PoseStamped_ISaIvEEESaIS4_EE11_S_max_sizeERKS5_
FNDA:16,_ZNSt6vectorIN13geometry_msgs3msg12PoseStamped_ISaIvEEESaIS4_EE11_S_max_sizeERKS5_
DA:97,3
DA:98,3
DA:99,3
DA:131,3
DA:133,3
DA:134,3
DA:276,0
DA:277,0
DA:280,16
DA:281,16
DA:288,3
DA:333,0
DA:335,0
DA:336,0
DA:337,0
DA:343,13
DA:346,13
DA:350,0
DA:353,0
DA:354,0
DA:355,0
DA:453,16
DA:456,16
DA:465,16
DA:469,16
DA:487,3
DA:678,0
DA:680,0
DA:681,0
DA:683,0
DA:811,0
DA:812,0
DA:829,0
DA:830,0
DA:918,0
DA:919,0
DA:923,16
DA:924,16
DA:998,10
DA:999,10
DA:1000,10
DA:1143,0
DA:1146,0
DA:1187,3
DA:1189,3
DA:1192,0
DA:1194,0
DA:1198,3
DA:1199,3
DA:1756,3
DA:1758,3
DA:1759,0
DA:1761,3
DA:1762,3
DA:1776,16
DA:1781,16
DA:1783,16
DA:1784,16
end_of_record
SF:/usr/include/c++/11/bits/basic_string.tcc
FN:206,_ZNSt7__cxx1112basic_stringIcSt11char_traitsIcESaIcEE12_M_constructIPcEEvT_S7_St20forward_iterator_tag
FNDA:0,_ZNSt7__cxx1112basic_stringIcSt11char_traitsIcESaIcEE12_M_constructIPcEEvT_S7_St20forward_iterator_tag
DA:206,0
DA:211,0
DA:212,0
DA:215,0
DA:217,0
DA:219,0
DA:220,0
DA:225,0
DA:226,0
DA:228,0
DA:229,0
DA:232,0
DA:233,0
end_of_record
SF:/usr/include/c++/11/bits/stl_iterator.h
FN:1027,_ZN9__gnu_cxx17__normal_iteratorIPN13geometry_msgs3msg12PoseStamped_ISaIvEEESt6vectorIS5_SaIS5_EEEC2ERKS6_
FNDA:0,_ZN9__gnu_cxx17__normal_iteratorIPN13geometry_msgs3msg12PoseStamped_ISaIvEEESt6vectorIS5_SaIS5_EEEC2ERKS6_
FN:1042,_ZNK9__gnu_cxx17__normal_iteratorIPN13geometry_msgs3msg12PoseStamped_ISaIvEEESt6vectorIS5_SaIS5_EEEdeEv
FNDA:0,_ZNK9__gnu_cxx17__normal_iteratorIPN13geometry_msgs3msg12PoseStamped_ISaIvEEESt6vectorIS5_SaIS5_EEEdeEv
FN:1100,_ZNK9__gnu_cxx17__normal_iteratorIPN13geometry_msgs3msg12PoseStamped_ISaIvEEESt6vectorIS5_SaIS5_EEEmiEl
FNDA:0,_ZNK9__gnu_cxx17__normal_iteratorIPN13geometry_msgs3msg12PoseStamped_ISaIvEEESt6vectorIS5_SaIS5_EEEmiEl
FN:1105,_ZNK9__gnu_cxx17__normal_iteratorIPN13geometry_msgs3msg12PoseStamped_ISaIvEEESt6vectorIS5_SaIS5_EEE4baseEv
FNDA:0,_ZNK9__gnu_cxx17__normal_iteratorIPN13geometry_msgs3msg12PoseStamped_ISaIvEEESt6vectorIS5_SaIS5_EEE4baseEv
FN:1268,_ZN9__gnu_cxxmiIPN13geometry_msgs3msg12PoseStamped_ISaIvEEESt6vectorIS5_SaIS5_EEEENS_17__normal_iteratorIT_T0_E15difference_typeERKSD_SG_
FNDA:3,_ZN9__gnu_cxxmiIPN13geometry_msgs3msg12PoseStamped_ISaIvEEESt6vectorIS5_SaIS5_EEEENS_17__normal_iteratorIT_T0_E15difference_typeERKSD_SG_
DA:1027,0
DA:1028,0
DA:1042,0
DA:1043,0
DA:1100,0
DA:1101,0
DA:1105,0
DA:1106,0
DA:1268,3
DA:1271,3
end_of_record
SF:/usr/include/c++/11/new
FN:174,_ZnwmPv
FNDA:1303,_ZnwmPv
FN:180,_ZdlPvS_
FNDA:0,_ZdlPvS_
DA:174,1303
DA:175,1303
DA:180,0
end_of_record
SF:/usr/include/c++/11/bits/stl_construct.h
FN:146,_ZSt8_DestroyIN13geometry_msgs3msg12PoseStamped_ISaIvEEEEvPT_
FNDA:0,_ZSt8_DestroyIN13geometry_msgs3msg12PoseStamped_ISaIvEEEEvPT_
FN:160,_ZNSt12_Destroy_auxILb0EE9__destroyIPN13geometry_msgs3msg12PoseStamped_ISaIvEEEEEvT_S8_
FNDA:0,_ZNSt12_Destroy_auxILb0EE9__destroyIPN13geometry_msgs3msg12PoseStamped_ISaIvEEEEEvT_S8_
FN:182,_ZSt8_DestroyIPN13geometry_msgs3msg12PoseStamped_ISaIvEEEEvT_S6_
FNDA:0,_ZSt8_DestroyIPN13geometry_msgs3msg12PoseStamped_ISaIvEEEEvT_S6_
DA:146,0
DA:151,0
DA:153,0
DA:160,0
DA:162,0
DA:163,0
DA:164,0
DA:182,0
DA:196,0
DA:197,0
end_of_record
SF:/opt/ros/humble/include/geometry_msgs/geometry_msgs/msg/detail/quaternion__struct.hpp
FN:36,_ZN13geometry_msgs3msg11Quaternion_ISaIvEEC2EN18rosidl_runtime_cpp21MessageInitializationE
FNDA:0,_ZN13geometry_msgs3msg11Quaternion_ISaIvEEC2EN18rosidl_runtime_cpp21MessageInitializationE
DA:36,0
DA:38,0
DA:41,0
DA:42,0
DA:43,0
DA:44,0
DA:45,0
DA:46,0
DA:47,0
DA:48,0
DA:49,0
DA:51,0
end_of_record
SF:/opt/ros/humble/include/builtin_interfaces/builtin_interfaces/msg/detail/time__struct.hpp
FN:36,_ZN18builtin_interfaces3msg5Time_ISaIvEEC2EN18rosidl_runtime_cpp21MessageInitializationE
FNDA:0,_ZN18builtin_interfaces3msg5Time_ISaIvEEC2EN18rosidl_runtime_cpp21MessageInitializationE
DA:36,0
DA:38,0
DA:41,0
DA:42,0
DA:44,0
end_of_record
SF:/root/ros2_ws/src/vector_pursuit_controller/test/path_utils/path_utils.hpp
FN:36,_ZN10path_utils11PathSegmentD0Ev
FNDA:0,_ZN10path_utils11PathSegmentD0Ev
FN:36,_ZN10path_utils11PathSegmentD2Ev
FNDA:0,_ZN10path_utils11PathSegmentD2Ev
DA:36,0
DA:36,0
end_of_record
SF:/usr/include/c++/11/ext/type_traits.h
FN:152,_ZN9__gnu_cxx17__is_null_pointerIcEEbPT_
FNDA:0,_ZN9__gnu_cxx17__is_null_pointerIcEEbPT_
DA:152,0
DA:153,0
end_of_record
SF:/usr/include/c++/11/bits/move.h
FN:49,_ZSt11__addressofIN13geometry_msgs3msg12PoseStamped_ISaIvEEEEPT_RS5_
FNDA:0,_ZSt11__addressofIN13geometry_msgs3msg12PoseStamped_ISaIvEEEEPT_RS5_
FN:77,_ZSt7forwardIN13geometry_msgs3msg12PoseStamped_ISaIvEEEEOT_RNSt16remove_referenceIS5_E4typeE
FNDA:1296,_ZSt7forwardIN13geometry_msgs3msg12PoseStamped_ISaIvEEEEOT_RNSt16remove_referenceIS5_E4typeE
FN:77,_ZSt7forwardIRKN13geometry_msgs3msg12PoseStamped_ISaIvEEEEOT_RNSt16remove_referenceIS7_E4typeE
FNDA:9,_ZSt7forwardIRKN13geometry_msgs3msg12PoseStamped_ISaIvEEEEOT_RNSt16remove_referenceIS7_E4typeE
FN:104,_ZSt4moveIRSaIcEEONSt16remove_referenceIT_E4typeEOS3_
FNDA:0,_ZSt4moveIRSaIcEEONSt16remove_referenceIT_E4typeEOS3_
FN:104,_ZSt4moveIRN13geometry_msgs3msg12PoseStamped_ISaIvEEEEONSt16remove_referenceIT_E4typeEOS7_
FNDA:648,_ZSt4moveIRN13geometry_msgs3msg12PoseStamped_ISaIvEEEEONSt16remove_referenceIT_E4typeEOS7_
DA:49,0
DA:50,0
DA:77,1296
DA:78,1296
DA:77,9
DA:78,9
DA:104,0
DA:105,0
DA:104,648
DA:105,648
end_of_record
SF:/opt/ros/humble/include/tf2/tf2/LinearMath/Vector3.h
FN:72,_ZN3tf27Vector3C2Ev
FNDA:3902,_ZN3tf27Vector3C2Ev
FN:81,_ZN3tf27Vector3C2ERKdS2_S2_
FNDA:722,_ZN3tf27Vector3C2ERKdS2_S2_
FN:124,_ZNK3tf27Vector33dotERKS0_
FNDA:1064,_ZNK3tf27Vector33dotERKS0_
FN:130,_ZNK3tf27Vector37length2Ev
FNDA:8,_ZNK3tf27Vector37length2Ev
FN:136,_ZNK3tf27Vector36lengthEv
FNDA:8,_ZNK3tf27Vector36lengthEv
FN:250,_ZNK3tf27Vector34getXEv
FNDA:352,_ZNK3tf27Vector34getXEv
FN:252,_ZNK3tf27Vector34getYEv
FNDA:352,_ZNK3tf27Vector34getYEv
FN:254,_ZNK3tf27Vector34getZEv
FNDA:352,_ZNK3tf27Vector34getZEv
FN:264,_ZNK3tf27Vector31xEv
FNDA:7752,_ZNK3tf27Vector31xEv
FN:266,_ZNK3tf27Vector31yEv
FNDA:7648,_ZNK3tf27Vector31yEv
FN:268,_ZNK3tf27Vector31zEv
FNDA:7648,_ZNK3tf27Vector31zEv
FN:276,_ZNK3tf27Vector3cvPKdEv
FNDA:936,_ZNK3tf27Vector3cvPKdEv
FN:309,_ZN3tf27Vector38setValueERKdS2_S2_
FNDA:2142,_ZN3tf27Vector38setValueERKdS2_S2_
DA:72,3902
DA:81,722
DA:82,722
DA:83,722
DA:84,722
DA:85,722
DA:86,722
DA:87,722
DA:124,1064
DA:126,1064
DA:130,8
DA:132,8
DA:136,8
DA:138,8
DA:250,352
DA:252,352
DA:254,352
DA:264,7752
DA:266,7648
DA:268,7648
DA:276,936
DA:309,2142
DA:311,2142
DA:312,2142
DA:313,2142
DA:314,2142
DA:315,2142
end_of_record
SF:/usr/include/c++/11/bits/stl_iterator_base_funcs.h
FN:98,_ZSt10__distanceIPcENSt15iterator_traitsIT_E15difference_typeES2_S2_St26random_access_iterator_tag
FNDA:0,_ZSt10__distanceIPcENSt15iterator_traitsIT_E15difference_typeES2_S2_St26random_access_iterator_tag
FN:138,_ZSt8distanceIPcENSt15iterator_traitsIT_E15difference_typeES2_S2_
FNDA:0,_ZSt8distanceIPcENSt15iterator_traitsIT_E15difference_typeES2_S2_
DA:98,0
DA:104,0
DA:138,0
DA:141,0
DA:142,0
end_of_record
SF:/opt/ros/humble/include/tf2_geometry_msgs/tf2_geometry_msgs/tf2_geometry_msgs.hpp
FN:918,_ZN3tf25toMsgERKNS_10QuaternionE
FNDA:352,_ZN3tf25toMsgERKNS_10QuaternionE
FN:1295,_ZN3tf25toMsgERKNS_9TransformERN13geometry_msgs3msg5Pose_ISaIvEEE
FNDA:352,_ZN3tf25toMsgERKNS_9TransformERN13geometry_msgs3msg5Pose_ISaIvEEE
FN:1308,_ZN3tf27fromMsgERKN13geometry_msgs3msg5Pose_ISaIvEEERNS_9TransformE
FNDA:352,_ZN3tf27fromMsgERKN13geometry_msgs3msg5Pose_ISaIvEEERNS_9TransformE
DA:918,352
DA:920,352
DA:921,352
DA:922,352
DA:923,352
DA:924,352
DA:925,352
DA:1295,352
DA:1297,352
DA:1298,352
DA:1299,352
DA:1300,352
DA:1301,352
DA:1308,352
DA:1310,352
DA:1312,352
DA:1313,352
DA:1314,352
end_of_record
SF:/usr/include/c++/11/tuple
FN:236,_ZNSt10_Head_baseILm0EPN10path_utils11PathSegmentELb0EE7_M_headERKS3_
FNDA:10,_ZNSt10_Head_baseILm0EPN10path_utils11PathSegmentELb0EE7_M_headERKS3_
FN:271,_ZNSt11_Tuple_implILm0EJPN10path_utils11PathSegmentESt14default_deleteIS1_EEE7_M_headERKS5_
FNDA:10,_ZNSt11_Tuple_implILm0EJPN10path_utils11PathSegmentESt14default_deleteIS1_EEE7_M_headERKS5_
FN:1382,_ZSt12__get_helperILm0EPN10path_utils11PathSegmentEJSt14default_deleteIS1_EEERKT0_RKSt11_Tuple_implIXT_EJS5_DpT1_EE
FNDA:10,_ZSt12__get_helperILm0EPN10path_utils11PathSegmentEJSt14default_deleteIS1_EEERKT0_RKSt11_Tuple_implIXT_EJS5_DpT1_EE
FN:1399,_ZSt3getILm0EJPN10path_utils11PathSegmentESt14default_deleteIS1_EEERKNSt13tuple_elementIXT_ESt5tupleIJDpT0_EEE4typeERKS9_
FNDA:10,_ZSt3getILm0EJPN10path_utils11PathSegmentESt14default_deleteIS1_EEERKNSt13tuple_elementIXT_ESt5tupleIJDpT0_EEE4typeERKS9_
DA:236,10
DA:271,10
DA:1382,10
DA:1383,10
DA:1399,10
DA:1400,10
end_of_record
SF:/usr/include/c++/11/bits/unique_ptr.h
FN:173,_ZNKSt15__uniq_ptr_implIN10path_utils11PathSegmentESt14default_deleteIS1_EE6_M_ptrEv
FNDA:10,_ZNKSt15__uniq_ptr_implIN10path_utils11PathSegmentESt14default_deleteIS1_EE6_M_ptrEv
FN:413,_ZNKSt10unique_ptrIN10path_utils11PathSegmentESt14default_deleteIS1_EEptEv
FNDA:10,_ZNKSt10unique_ptrIN10path_utils11PathSegmentESt14default_deleteIS1_EEptEv
FN:421,_ZNKSt10unique_ptrIN10path_utils11PathSegmentESt14default_deleteIS1_EE3getEv
FNDA:10,_ZNKSt10unique_ptrIN10path_utils11PathSegmentESt14default_deleteIS1_EE3getEv
DA:173,10
DA:413,10
DA:416,10
DA:421,10
DA:422,10
end_of_record
SF:/usr/include/c++/11/bits/char_traits.h
FN:429,_ZNSt11char_traitsIcE4copyEPcPKcm
FNDA:0,_ZNSt11char_traitsIcE4copyEPcPKcm
DA:429,0
DA:431,0
DA:432,0
DA:437,0
end_of_record
SF:/usr/include/c++/11/bits/std_abs.h
FN:71,_ZSt3absd
FNDA:16,_ZSt3absd
DA:71,16
DA:72,16
end_of_record
SF:/opt/ros/humble/include/std_msgs/std_msgs/msg/detail/header__struct.hpp
FN:40,_ZN8std_msgs3msg7Header_ISaIvEEC2EN18rosidl_runtime_cpp21MessageInitializationE
FNDA:0,_ZN8std_msgs3msg7Header_ISaIvEEC2EN18rosidl_runtime_cpp21MessageInitializationE
DA:40,0
DA:41,0
DA:43,0
DA:46,0
DA:48,0
end_of_record
SF:/opt/ros/humble/include/geometry_msgs/geometry_msgs/msg/detail/pose__struct.hpp
FN:42,_ZN13geometry_msgs3msg5Pose_ISaIvEEC2EN18rosidl_runtime_cpp21MessageInitializationE
FNDA:0,_ZN13geometry_msgs3msg5Pose_ISaIvEEC2EN18rosidl_runtime_cpp21MessageInitializationE
DA:42,0
DA:43,0
DA:44,0
DA:47,0
end_of_record
SF:/usr/include/c++/11/bits/stl_uninitialized.h
FN:986,_ZSt19__relocate_object_aIN13geometry_msgs3msg12PoseStamped_ISaIvEEES4_SaIS4_EEvPT_PT0_RT1_
FNDA:648,_ZSt19__relocate_object_aIN13geometry_msgs3msg12PoseStamped_ISaIvEEES4_SaIS4_EEvPT_PT0_RT1_
FN:1018,_ZSt14__relocate_a_1IPN13geometry_msgs3msg12PoseStamped_ISaIvEEES5_SaIS4_EET0_T_S8_S7_RT1_
FNDA:16,_ZSt14__relocate_a_1IPN13geometry_msgs3msg12PoseStamped_ISaIvEEES5_SaIS4_EET0_T_S8_S7_RT1_
FN:1040,_ZSt12__relocate_aIPN13geometry_msgs3msg12PoseStamped_ISaIvEEES5_SaIS4_EET0_T_S8_S7_RT1_
FNDA:16,_ZSt12__relocate_aIPN13geometry_msgs3msg12PoseStamped_ISaIvEEES5_SaIS4_EET0_T_S8_S7_RT1_
DA:986,648
DA:994,648
DA:995,648
DA:996,648
DA:1018,16
DA:1030,16
DA:1031,664
DA:1032,648
DA:1034,16
DA:1040,16
DA:1046,16
DA:1048,16
end_of_record
SF:/opt/ros/humble/include/geometry_msgs/geometry_msgs/msg/detail/pose_stamped__struct.hpp
FN:42,_ZN13geometry_msgs3msg12PoseStamped_ISaIvEEC2EN18rosidl_runtime_cpp21MessageInitializationE
FNDA:0,_ZN13geometry_msgs3msg12PoseStamped_ISaIvEEC2EN18rosidl_runtime_cpp21MessageInitializationE
DA:42,0
DA:43,0
DA:44,0
DA:47,0
end_of_record
SF:/usr/include/c++/11/bits/stl_iterator_base_types.h
FN:238,_ZSt19__iterator_categoryIPcENSt15iterator_traitsIT_E17iterator_categoryERKS2_
FNDA:0,_ZSt19__iterator_categoryIPcENSt15iterator_traitsIT_E17iterator_categoryERKS2_
DA:238,0
DA:239,0
end_of_record
SF:/usr/include/c++/11/bits/vector.tcc
FN:66,_ZNSt6vectorIN13geometry_msgs3msg12PoseStamped_ISaIvEEESaIS4_EE7reserveEm
FNDA:10,_ZNSt6vectorIN13geometry_msgs3msg12PoseStamped_ISaIvEEESaIS4_EE7reserveEm
FN:109,_ZNSt6vectorIN13geometry_msgs3msg12PoseStamped_ISaIvEEESaIS4_EE12emplace_backIJEEERS4_DpOT_
FNDA:352,_ZNSt6vectorIN13geometry_msgs3msg12PoseStamped_ISaIvEEESaIS4_EE12emplace_backIJEEERS4_DpOT_
FN:426,_ZNSt6vectorIN13geometry_msgs3msg12PoseStamped_ISaIvEEESaIS4_EE17_M_realloc_insertIJRKS4_EEEvN9__gnu_cxx17__normal_iteratorIPS4_S6_EEDpOT_
FNDA:3,_ZNSt6vectorIN13geometry_msgs3msg12PoseStamped_ISaIvEEESaIS4_EE17_M_realloc_insertIJRKS4_EEEvN9__gnu_cxx17__normal_iteratorIPS4_S6_EEDpOT_
FN:426,_ZNSt6vectorIN13geometry_msgs3msg12PoseStamped_ISaIvEEESaIS4_EE17_M_realloc_insertIJEEEvN9__gnu_cxx17__normal_iteratorIPS4_S6_EEDpOT_
FNDA:0,_ZNSt6vectorIN13geometry_msgs3msg12PoseStamped_ISaIvEEESaIS4_EE17_M_realloc_insertIJEEEvN9__gnu_cxx17__normal_iteratorIPS4_S6_EEDpOT_
DA:66,10
DA:69,10
DA:70,0
DA:71,10
DA:73,10
DA:78,10
DA:79,10
DA:80,10
DA:92,10
DA:93,10
DA:94,10
DA:95,10
DA:96,10
DA:97,10
DA:99,10
DA:109,352
DA:112,352
DA:115,352
DA:117,352
DA:121,0
DA:123,352
DA:426,3
DA:436,3
DA:437,3
DA:438,3
DA:439,3
DA:440,3
DA:441,3
DA:449,3
DA:450,3
DA:456,3
DA:461,3
DA:462,3
DA:464,3
DA:466,3
DA:467,3
DA:485,0
DA:487,0
DA:488,0
DA:489,0
DA:491,0
DA:492,0
DA:493,0
DA:500,3
DA:501,3
DA:502,3
DA:503,3
DA:504,3
DA:505,3
DA:426,0
DA:436,0
DA:437,0
DA:438,0
DA:439,0
DA:440,0
DA:441,0
DA:449,0
DA:450,0
DA:456,0
DA:461,0
DA:462,0
DA:464,0
DA:466,0
DA:467,0
DA:485,0
DA:487,0
DA:488,0
DA:489,0
DA:491,0
DA:492,0
DA:493,0
DA:500,0
DA:501,0
DA:502,0
DA:503,0
DA:504,0
DA:505,0
end_of_record
SF:/opt/ros/humble/include/geometry_msgs/geometry_msgs/msg/detail/point__struct.hpp
FN:36,_ZN13geometry_msgs3msg6Point_ISaIvEEC2EN18rosidl_runtime_cpp21MessageInitializationE
FNDA:0,_ZN13geometry_msgs3msg6Point_ISaIvEEC2EN18rosidl_runtime_cpp21MessageInitializationE
DA:36,0
DA:38,0
DA:41,0
DA:42,0
DA:43,0
DA:45,0
end_of_record
SF:/usr/include/c++/11/initializer_list
FN:71,_ZNKSt16initializer_listISt10unique_ptrIN10path_utils11PathSegmentESt14default_deleteIS2_EEE4sizeEv
FNDA:3,_ZNKSt16initializer_listISt10unique_ptrIN10path_utils11PathSegmentESt14default_deleteIS2_EEE4sizeEv
FN:75,_ZNKSt16initializer_listISt10unique_ptrIN10path_utils11PathSegmentESt14default_deleteIS2_EEE5beginEv
FNDA:6,_ZNKSt16initializer_listISt10unique_ptrIN10path_utils11PathSegmentESt14default_deleteIS2_EEE5beginEv
FN:79,_ZNKSt16initializer_listISt10unique_ptrIN10path_utils11PathSegmentESt14default_deleteIS2_EEE3endEv
FNDA:3,_ZNKSt16initializer_listISt10unique_ptrIN10path_utils11PathSegmentESt14default_deleteIS2_EEE3endEv
DA:71,3
DA:75,6
DA:79,3
end_of_record
SF:/root/ros2_ws/src/vector_pursuit_controller/test/path_utils/path_utils.cpp
FN:24,_ZN10path_utils24append_transform_to_pathERN8nav_msgs3msg5Path_ISaIvEEERN3tf29TransformE
FNDA:352,_ZN10path_utils24append_transform_to_pathERN8nav_msgs3msg5Path_ISaIvEEERN3tf29TransformE
FN:45,_ZNK10path_utils8Straight6appendERN8nav_msgs3msg5Path_ISaIvEEEd
FNDA:2,_ZNK10path_utils8Straight6appendERN8nav_msgs3msg5Path_ISaIvEEEd
FN:55,_ZN10path_utils12chord_lengthEdd
FNDA:8,_ZN10path_utils12chord_lengthEdd
FN:60,_ZNK10path_utils3Arc6appendERN8nav_msgs3msg5Path_ISaIvEEEd
FNDA:8,_ZNK10path_utils3Arc6appendERN8nav_msgs3msg5Path_ISaIvEEEd
FN:74,_ZN10path_utils13generate_pathEN13geometry_msgs3msg12PoseStamped_ISaIvEEEdSt16initializer_listISt10unique_ptrINS_11PathSegmentESt14default_deleteIS7_EEE
FNDA:3,_ZN10path_utils13generate_pathEN13geometry_msgs3msg12PoseStamped_ISaIvEEEdSt16initializer_listISt10unique_ptrINS_11PathSegmentESt14default_deleteIS7_EEE
DA:24,352
DA:29,352
DA:31,352
DA:32,352
DA:35,352
DA:36,352
DA:38,352
DA:39,352
DA:41,352
DA:42,352
DA:43,352
DA:45,2
DA:47,2
DA:48,2
DA:49,2
DA:50,14
DA:51,12
DA:53,2
DA:55,8
DA:57,8
DA:60,8
DA:62,8
DA:63,8
DA:64,8
DA:66,8
DA:67,16
DA:68,8
DA:69,348
DA:70,340
DA:72,8
DA:74,3
DA:79,3
DA:80,3
DA:81,3
DA:82,13
DA:83,10
DA:85,3
DA:86,0
end_of_record
SF:/usr/include/c++/11/ext/new_allocator.h
FN:79,_ZN9__gnu_cxx13new_allocatorIN13geometry_msgs3msg12PoseStamped_ISaIvEEEEC2Ev
FNDA:3,_ZN9__gnu_cxx13new_allocatorIN13geometry_msgs3msg12PoseStamped_ISaIvEEEEC2Ev
FN:79,_ZN9__gnu_cxx13new_allocatorIcEC2Ev
FNDA:0,_ZN9__gnu_cxx13new_allocatorIcEC2Ev
FN:82,_ZN9__gnu_cxx13new_allocatorIcEC2ERKS1_
FNDA:0,_ZN9__gnu_cxx13new_allocatorIcEC2ERKS1_
FN:89,_ZN9__gnu_cxx13new_allocatorIN13geometry_msgs3msg12PoseStamped_ISaIvEEEED2Ev
FNDA:0,_ZN9__gnu_cxx13new_allocatorIN13geometry_msgs3msg12PoseStamped_ISaIvEEEED2Ev
FN:89,_ZN9__gnu_cxx13new_allocatorIcED2Ev
FNDA:0,_ZN9__gnu_cxx13new_allocatorIcED2Ev
FN:103,_ZN9__gnu_cxx13new_allocatorIN13geometry_msgs3msg12PoseStamped_ISaIvEEEE8allocateEmPKv
FNDA:13,_ZN9__gnu_cxx13new_allocatorIN13geometry_msgs3msg12PoseStamped_ISaIvEEEE8allocateEmPKv
FN:132,_ZN9__gnu_cxx13new_allocatorIN13geometry_msgs3msg12PoseStamped_ISaIvEEEE10deallocateEPS5_m
FNDA:0,_ZN9__gnu_cxx13new_allocatorIN13geometry_msgs3msg12PoseStamped_ISaIvEEEE10deallocateEPS5_m
FN:154,_ZNK9__gnu_cxx13new_allocatorIN13geometry_msgs3msg12PoseStamped_ISaIvEEEE8max_sizeEv
FNDA:16,_ZNK9__gnu_cxx13new_allocatorIN13geometry_msgs3msg12PoseStamped_ISaIvEEEE8max_sizeEv
FN:160,_ZN9__gnu_cxx13new_allocatorIN13geometry_msgs3msg12PoseStamped_ISaIvEEEE9constructIS5_JS5_EEEvPT_DpOT0_
FNDA:648,_ZN9__gnu_cxx13new_allocatorIN13geometry_msgs3msg12PoseStamped_ISaIvEEEE9constructIS5_JS5_EEEvPT_DpOT0_
FN:160,_ZN9__gnu_cxx13new_allocatorIN13geometry_msgs3msg12PoseStamped_ISaIvEEEE9constructIS5_JRKS5_EEEvPT_DpOT0_
FNDA:3,_ZN9__gnu_cxx13new_allocatorIN13geometry_msgs3msg12PoseStamped_ISaIvEEEE9constructIS5_JRKS5_EEEvPT_DpOT0_
FN:160,_ZN9__gnu_cxx13new_allocatorIN13geometry_msgs3msg12PoseStamped_ISaIvEEEE9constructIS5_JEEEvPT_DpOT0_
FNDA:352,_ZN9__gnu_cxx13new_allocatorIN13geometry_msgs3msg12PoseStamped_ISaIvEEEE9constructIS5_JEEEvPT_DpOT0_
FN:166,_ZN9__gnu_cxx13new_allocatorIN13geometry_msgs3msg12PoseStamped_ISaIvEEEE7destroyIS5_EEvPT_
FNDA:648,_ZN9__gnu_cxx13new_allocatorIN13geometry_msgs3msg12PoseStamped_ISaIvEEEE7destroyIS5_EEvPT_
FN:197,_ZNK9__gnu_cxx13new_allocatorIN13geometry_msgs3msg12PoseStamped_ISaIvEEEE11_M_max_sizeEv
FNDA:29,_ZNK9__gnu_cxx13new_allocatorIN13geometry_msgs3msg12PoseStamped_ISaIvEEEE11_M_max_sizeEv
DA:79,3
DA:79,0
DA:82,0
DA:89,0
DA:89,0
DA:103,13
DA:111,13
DA:115,0
DA:116,0
DA:117,0
DA:127,13
DA:132,0
DA:145,0
DA:154,16
DA:155,16
DA:160,648
DA:162,648
DA:160,3
DA:162,3
DA:160,352
DA:162,704
DA:166,648
DA:168,648
DA:197,29
DA:200,29
end_of_record
SF:/usr/include/c++/11/bits/alloc_traits.h
FN:463,_ZNSt16allocator_traitsISaIN13geometry_msgs3msg12PoseStamped_ISaIvEEEEE8allocateERS5_m
FNDA:13,_ZNSt16allocator_traitsISaIN13geometry_msgs3msg12PoseStamped_ISaIvEEEEE8allocateERS5_m
FN:495,_ZNSt16allocator_traitsISaIN13geometry_msgs3msg12PoseStamped_ISaIvEEEEE10deallocateERS5_PS4_m
FNDA:0,_ZNSt16allocator_traitsISaIN13geometry_msgs3msg12PoseStamped_ISaIvEEEEE10deallocateERS5_PS4_m
FN:511,_ZNSt16allocator_traitsISaIN13geometry_msgs3msg12PoseStamped_ISaIvEEEEE9constructIS4_JS4_EEEvRS5_PT_DpOT0_
FNDA:648,_ZNSt16allocator_traitsISaIN13geometry_msgs3msg12PoseStamped_ISaIvEEEEE9constructIS4_JS4_EEEvRS5_PT_DpOT0_
FN:511,_ZNSt16allocator_traitsISaIN13geometry_msgs3msg12PoseStamped_ISaIvEEEEE9constructIS4_JRKS4_EEEvRS5_PT_DpOT0_
FNDA:3,_ZNSt16allocator_traitsISaIN13geometry_msgs3msg12PoseStamped_ISaIvEEEEE9constructIS4_JRKS4_EEEvRS5_PT_DpOT0_
FN:511,_ZNSt16allocator_traitsISaIN13geometry_msgs3msg12PoseStamped_ISaIvEEEEE9constructIS4_JEEEvRS5_PT_DpOT0_
FNDA:352,_ZNSt16allocator_traitsISaIN13geometry_msgs3msg12PoseStamped_ISaIvEEEEE9constructIS4_JEEEvRS5_PT_DpOT0_
FN:531,_ZNSt16allocator_traitsISaIN13geometry_msgs3msg12PoseStamped_ISaIvEEEEE7destroyIS4_EEvRS5_PT_
FNDA:648,_ZNSt16allocator_traitsISaIN13geometry_msgs3msg12PoseStamped_ISaIvEEEEE7destroyIS4_EEvRS5_PT_
FN:547,_ZNSt16allocator_traitsISaIN13geometry_msgs3msg12PoseStamped_ISaIvEEEEE8max_sizeERKS5_
FNDA:16,_ZNSt16allocator_traitsISaIN13geometry_msgs3msg12PoseStamped_ISaIvEEEEE8max_sizeERKS5_
FN:562,_ZNSt16allocator_traitsISaIcEE37select_on_container_copy_constructionERKS0_
FNDA:0,_ZNSt16allocator_traitsISaIcEE37select_on_container_copy_constructionERKS0_
FN:845,_ZSt8_DestroyIPN13geometry_msgs3msg12PoseStamped_ISaIvEEES4_EvT_S6_RSaIT0_E
FNDA:0,_ZSt8_DestroyIPN13geometry_msgs3msg12PoseStamped_ISaIvEEES4_EvT_S6_RSaIT0_E
DA:463,13
DA:464,13
DA:495,0
DA:496,0
DA:511,648
DA:516,648
DA:520,648
DA:511,3
DA:516,3
DA:520,3
DA:511,352
DA:516,352
DA:520,352
DA:531,648
DA:535,648
DA:539,648
DA:547,16
DA:550,16
DA:562,0
DA:563,0
DA:845,0
DA:848,0
DA:849,0
end_of_record
SF:/usr/include/c++/11/bits/stl_algobase.h
FN:230,_ZSt3minImERKT_S2_S2_
FNDA:72,_ZSt3minImERKT_S2_S2_
FN:254,_ZSt3maxImERKT_S2_S2_
FNDA:15,_ZSt3maxImERKT_S2_S2_
FN:313,_ZSt12__niter_baseIPN13geometry_msgs3msg12PoseStamped_ISaIvEEEET_S6_
FNDA:48,_ZSt12__niter_baseIPN13geometry_msgs3msg12PoseStamped_ISaIvEEEET_S6_
DA:230,72
DA:235,72
DA:236,0
DA:237,72
DA:254,15
DA:259,15
DA:260,9
DA:261,6
DA:313,48
DA:315,48
end_of_record
SF:/usr/include/c++/11/ext/alloc_traits.h
FN:97,_ZN9__gnu_cxx14__alloc_traitsISaIcEcE17_S_select_on_copyERKS1_
FNDA:0,_ZN9__gnu_cxx14__alloc_traitsISaIcEcE17_S_select_on_copyERKS1_
DA:97,0
DA:98,0
end_of_record
SF:/usr/include/c++/11/iostream
end_of_record
TN:
SF:/usr/include/c++/11/bits/stl_construct.h
FN:146,_ZSt8_DestroyIN13geometry_msgs3msg12PoseStamped_ISaIvEEEEvPT_
FNDA:355,_ZSt8_DestroyIN13geometry_msgs3msg12PoseStamped_ISaIvEEEEvPT_
FN:160,_ZNSt12_Destroy_auxILb0EE9__destroyIPN13geometry_msgs3msg12PoseStamped_ISaIvEEEEEvT_S8_
FNDA:3,_ZNSt12_Destroy_auxILb0EE9__destroyIPN13geometry_msgs3msg12PoseStamped_ISaIvEEEEEvT_S8_
FN:182,_ZSt8_DestroyIPN13geometry_msgs3msg12PoseStamped_ISaIvEEEEvT_S6_
FNDA:3,_ZSt8_DestroyIPN13geometry_msgs3msg12PoseStamped_ISaIvEEEEvT_S6_
DA:146,355
DA:151,355
DA:153,355
DA:160,3
DA:162,358
DA:163,355
DA:164,3
DA:182,3
DA:196,3
DA:197,3
end_of_record
SF:/usr/include/c++/11/bits/stl_iterator.h
FN:1027,_ZN9__gnu_cxx17__normal_iteratorIPN13geometry_msgs3msg12PoseStamped_ISaIvEEESt6vectorIS5_SaIS5_EEEC2ERKS6_
FNDA:2128,_ZN9__gnu_cxx17__normal_iteratorIPN13geometry_msgs3msg12PoseStamped_ISaIvEEESt6vectorIS5_SaIS5_EEEC2ERKS6_
FN:1042,_ZNK9__gnu_cxx17__normal_iteratorIPN13geometry_msgs3msg12PoseStamped_ISaIvEEESt6vectorIS5_SaIS5_EEEdeEv
FNDA:1413,_ZNK9__gnu_cxx17__normal_iteratorIPN13geometry_msgs3msg12PoseStamped_ISaIvEEESt6vectorIS5_SaIS5_EEEdeEv
FN:1052,_ZN9__gnu_cxx17__normal_iteratorIPN13geometry_msgs3msg12PoseStamped_ISaIvEEESt6vectorIS5_SaIS5_EEEppEv
FNDA:355,_ZN9__gnu_cxx17__normal_iteratorIPN13geometry_msgs3msg12PoseStamped_ISaIvEEESt6vectorIS5_SaIS5_EEEppEv
FN:1100,_ZNK9__gnu_cxx17__normal_iteratorIPN13geometry_msgs3msg12PoseStamped_ISaIvEEESt6vectorIS5_SaIS5_EEEmiEl
FNDA:1058,_ZNK9__gnu_cxx17__normal_iteratorIPN13geometry_msgs3msg12PoseStamped_ISaIvEEESt6vectorIS5_SaIS5_EEEmiEl
FN:1105,_ZNK9__gnu_cxx17__normal_iteratorIPN13geometry_msgs3msg12PoseStamped_ISaIvEEESt6vectorIS5_SaIS5_EEE4baseEv
FNDA:728,_ZNK9__gnu_cxx17__normal_iteratorIPN13geometry_msgs3msg12PoseStamped_ISaIvEEESt6vectorIS5_SaIS5_EEE4baseEv
FN:1179,_ZN9__gnu_cxxneIPN13geometry_msgs3msg12PoseStamped_ISaIvEEESt6vectorIS5_SaIS5_EEEEbRKNS_17__normal_iteratorIT_T0_EESF_
FNDA:358,_ZN9__gnu_cxxneIPN13geometry_msgs3msg12PoseStamped_ISaIvEEESt6vectorIS5_SaIS5_EEEEbRKNS_17__normal_iteratorIT_T0_EESF_
DA:1027,2128
DA:1028,2128
DA:1042,1413
DA:1043,1413
DA:1052,355
DA:1054,355
DA:1055,355
DA:1100,1058
DA:1101,1058
DA:1105,728
DA:1106,728
DA:1179,358
DA:1182,358
end_of_record
SF:/usr/include/c++/11/bits/basic_string.tcc
FN:206,_ZNSt7__cxx1112basic_stringIcSt11char_traitsIcESaIcEE12_M_constructIPcEEvT_S7_St20forward_iterator_tag
FNDA:0,_ZNSt7__cxx1112basic_stringIcSt11char_traitsIcESaIcEE12_M_constructIPcEEvT_S7_St20forward_iterator_tag
FN:206,_ZNSt7__cxx1112basic_stringIcSt11char_traitsIcESaIcEE12_M_constructIPKcEEvT_S8_St20forward_iterator_tag
FNDA:382,_ZNSt7__cxx1112basic_stringIcSt11char_traitsIcESaIcEE12_M_constructIPKcEEvT_S8_St20forward_iterator_tag
DA:206,0
DA:211,0
DA:212,0
DA:215,0
DA:217,0
DA:219,0
DA:220,0
DA:225,0
DA:226,0
DA:228,0
DA:229,0
DA:232,0
DA:233,0
DA:206,382
DA:211,382
DA:212,0
DA:215,382
DA:217,382
DA:219,13
DA:220,13
DA:225,382
DA:226,0
DA:228,0
DA:229,0
DA:232,382
DA:233,382
end_of_record
SF:/opt/ros/humble/src/gtest_vendor/include/gtest/gtest-printers.h
FN:260,_ZN16testing_internal26DefaultPrintNonContainerToImEEvRKT_PSo
FNDA:0,_ZN16testing_internal26DefaultPrintNonContainerToImEEvRKT_PSo
FN:260,_ZN16testing_internal26DefaultPrintNonContainerToIjEEvRKT_PSo
FNDA:0,_ZN16testing_internal26DefaultPrintNonContainerToIjEEvRKT_PSo
FN:313,_ZN7testing8internal19FormatForComparisonImjE6FormatB5cxx11ERKm
FNDA:0,_ZN7testing8internal19FormatForComparisonImjE6FormatB5cxx11ERKm
FN:313,_ZN7testing8internal19FormatForComparisonIjmE6FormatB5cxx11ERKj
FNDA:0,_ZN7testing8internal19FormatForComparisonIjmE6FormatB5cxx11ERKj
FN:313,_ZN7testing8internal19FormatForComparisonINSt7__cxx1112basic_stringIcSt11char_traitsIcESaIcEEES7_E6FormatERKS7_
FNDA:0,_ZN7testing8internal19FormatForComparisonINSt7__cxx1112basic_stringIcSt11char_traitsIcESaIcEEES7_E6FormatERKS7_
FN:377,_ZN7testing8internal33FormatForComparisonFailureMessageImjEENSt7__cxx1112basic_stringIcSt11char_traitsIcESaIcEEERKT_RKT0_
FNDA:0,_ZN7testing8internal33FormatForComparisonFailureMessageImjEENSt7__cxx1112basic_stringIcSt11char_traitsIcESaIcEEERKT_RKT0_
FN:377,_ZN7testing8internal33FormatForComparisonFailureMessageIjmEENSt7__cxx1112basic_stringIcSt11char_traitsIcESaIcEEERKT_RKT0_
FNDA:0,_ZN7testing8internal33FormatForComparisonFailureMessageIjmEENSt7__cxx1112basic_stringIcSt11char_traitsIcESaIcEEERKT_RKT0_
FN:377,_ZN7testing8internal33FormatForComparisonFailureMessageINSt7__cxx1112basic_stringIcSt11char_traitsIcESaIcEEES7_EES7_RKT_RKT0_
FNDA:0,_ZN7testing8internal33FormatForComparisonFailureMessageINSt7__cxx1112basic_stringIcSt11char_traitsIcESaIcEEES7_EES7_RKT_RKT0_
FN:466,_ZN7testing8internal14DefaultPrintToIjEEvNS0_15WrapPrinterTypeILNS0_18DefaultPrinterTypeE3EEERKT_PSo
FNDA:0,_ZN7testing8internal14DefaultPrintToIjEEvNS0_15WrapPrinterTypeILNS0_18DefaultPrinterTypeE3EEERKT_PSo
FN:466,_ZN7testing8internal14DefaultPrintToImEEvNS0_15WrapPrinterTypeILNS0_18DefaultPrinterTypeE3EEERKT_PSo
FNDA:0,_ZN7testing8internal14DefaultPrintToImEEvNS0_15WrapPrinterTypeILNS0_18DefaultPrinterTypeE3EEERKT_PSo
FN:483,_ZN7testing8internal7PrintToIjEEvRKT_PSo
FNDA:0,_ZN7testing8internal7PrintToIjEEvRKT_PSo
FN:483,_ZN7testing8internal7PrintToImEEvRKT_PSo
FNDA:0,_ZN7testing8internal7PrintToImEEvRKT_PSo
FN:594,_ZN7testing8internal7PrintToERKNSt7__cxx1112basic_stringIcSt11char_traitsIcESaIcEEEPSo
FNDA:0,_ZN7testing8internal7PrintToERKNSt7__cxx1112basic_stringIcSt11char_traitsIcESaIcEEEPSo
FN:670,_ZN7testing8internal16UniversalPrinterImE5PrintERKmPSo
FNDA:0,_ZN7testing8internal16UniversalPrinterImE5PrintERKmPSo
FN:670,_ZN7testing8internal16UniversalPrinterINSt7__cxx1112basic_stringIcSt11char_traitsIcESaIcEEEE5PrintERKS7_PSo
FNDA:0,_ZN7testing8internal16UniversalPrinterINSt7__cxx1112basic_stringIcSt11char_traitsIcESaIcEEEE5PrintERKS7_PSo
FN:670,_ZN7testing8internal16UniversalPrinterIjE5PrintERKjPSo
FNDA:0,_ZN7testing8internal16UniversalPrinterIjE5PrintERKjPSo
FN:796,_ZN7testing8internal21UniversalTersePrinterImE5PrintERKmPSo
FNDA:0,_ZN7testing8internal21UniversalTersePrinterImE5PrintERKmPSo
FN:796,_ZN7testing8internal21UniversalTersePrinterIjE5PrintERKjPSo
FNDA:0,_ZN7testing8internal21UniversalTersePrinterIjE5PrintERKjPSo
FN:796,_ZN7testing8internal21UniversalTersePrinterINSt7__cxx1112basic_stringIcSt11char_traitsIcESaIcEEEE5PrintERKS7_PSo
FNDA:0,_ZN7testing8internal21UniversalTersePrinterINSt7__cxx1112basic_stringIcSt11char_traitsIcESaIcEEEE5PrintERKS7_PSo
FN:865,_ZN7testing8internal14UniversalPrintImEEvRKT_PSo
FNDA:0,_ZN7testing8internal14UniversalPrintImEEvRKT_PSo
FN:865,_ZN7testing8internal14UniversalPrintIjEEvRKT_PSo
FNDA:0,_ZN7testing8internal14UniversalPrintIjEEvRKT_PSo
FN:865,_ZN7testing8internal14UniversalPrintINSt7__cxx1112basic_stringIcSt11char_traitsIcESaIcEEEEEvRKT_PSo
FNDA:0,_ZN7testing8internal14UniversalPrintINSt7__cxx1112basic_stringIcSt11char_traitsIcESaIcEEEEEvRKT_PSo
FN:915,_ZN7testing13PrintToStringINSt7__cxx1112basic_stringIcSt11char_traitsIcESaIcEEEEES6_RKT_
FNDA:0,_ZN7testing13PrintToStringINSt7__cxx1112basic_stringIcSt11char_traitsIcESaIcEEEEES6_RKT_
FN:915,_ZN7testing13PrintToStringIjEENSt7__cxx1112basic_stringIcSt11char_traitsIcESaIcEEERKT_
FNDA:0,_ZN7testing13PrintToStringIjEENSt7__cxx1112basic_stringIcSt11char_traitsIcESaIcEEERKT_
FN:915,_ZN7testing13PrintToStringImEENSt7__cxx1112basic_stringIcSt11char_traitsIcESaIcEEERKT_
FNDA:0,_ZN7testing13PrintToStringImEENSt7__cxx1112basic_stringIcSt11char_traitsIcESaIcEEERKT_
DA:260,0
DA:287,0
DA:288,0
DA:260,0
DA:287,0
DA:288,0
DA:313,0
DA:314,0
DA:313,0
DA:314,0
DA:313,0
DA:314,0
DA:377,0
DA:379,0
DA:377,0
DA:379,0
DA:377,0
DA:379,0
DA:466,0
DA:468,0
DA:469,0
DA:466,0
DA:468,0
DA:469,0
DA:483,0
DA:503,0
DA:514,0
DA:483,0
DA:503,0
DA:514,0
DA:594,0
DA:595,0
DA:596,0
DA:670,0
DA:679,0
DA:680,0
DA:670,0
DA:679,0
DA:680,0
DA:670,0
DA:679,0
DA:680,0
DA:796,0
DA:797,0
DA:798,0
DA:796,0
DA:797,0
DA:798,0
DA:796,0
DA:797,0
DA:798,0
DA:865,0
DA:869,0
DA:870,0
DA:865,0
DA:869,0
DA:870,0
DA:865,0
DA:869,0
DA:870,0
DA:915,0
DA:916,0
DA:917,0
DA:918,0
DA:919,0
DA:915,0
DA:916,0
DA:917,0
DA:918,0
DA:919,0
DA:915,0
DA:916,0
DA:917,0
DA:918,0
DA:919,0
end_of_record
SF:/root/ros2_ws/src/vector_pursuit_controller/test/path_utils/path_utils.hpp
FN:36,_ZN10path_utils11PathSegmentD0Ev
FNDA:0,_ZN10path_utils11PathSegmentD0Ev
FN:36,_ZN10path_utils11PathSegmentD2Ev
FNDA:10,_ZN10path_utils11PathSegmentD2Ev
FN:42,_ZN10path_utils3ArcC2Edd
FNDA:8,_ZN10path_utils3ArcC2Edd
FN:54,_ZN10path_utils8StraightC2Ed
FNDA:2,_ZN10path_utils8StraightC2Ed
FN:65,_ZN10path_utils8LeftTurnC2Ed
FNDA:1,_ZN10path_utils8LeftTurnC2Ed
FN:72,_ZN10path_utils9RightTurnC2Ed
FNDA:1,_ZN10path_utils9RightTurnC2Ed
FN:79,_ZN10path_utils14LeftTurnAroundC2Ed
FNDA:1,_ZN10path_utils14LeftTurnAroundC2Ed
FN:86,_ZN10path_utils15RightTurnAroundC2Ed
FNDA:2,_ZN10path_utils15RightTurnAroundC2Ed
FN:93,_ZN10path_utils10LeftCircleC2Ed
FNDA:1,_ZN10path_utils10LeftCircleC2Ed
FN:100,_ZN10path_utils11RightCircleC2Ed
FNDA:1,_ZN10path_utils11RightCircleC2Ed
DA:36,0
DA:36,10
DA:42,8
DA:43,8
DA:54,2
DA:55,2
DA:65,1
DA:66,1
DA:72,1
DA:73,1
DA:79,1
DA:80,1
DA:86,2
DA:87,2
DA:93,1
DA:94,1
DA:100,1
DA:101,1
end_of_record
SF:/opt/ros/humble/src/gtest_vendor/include/gtest/gtest-message.h
end_of_record
SF:/opt/ros/humble/include/builtin_interfaces/builtin_interfaces/msg/detail/time__struct.hpp
FN:36,_ZN18builtin_interfaces3msg5Time_ISaIvEEC2EN18rosidl_runtime_cpp21MessageInitializationE
FNDA:358,_ZN18builtin_interfaces3msg5Time_ISaIvEEC2EN18rosidl_runtime_cpp21MessageInitializationE
DA:36,358
DA:38,358
DA:41,358
DA:42,358
DA:44,358
end_of_record
SF:/opt/ros/humble/src/gtest_vendor/include/gtest/gtest.h
FN:312,_ZNK7testing15AssertionResultcvbEv
FNDA:381,_ZNK7testing15AssertionResultcvbEv
FN:321,_ZNK7testing15AssertionResult7messageEv
FNDA:0,_ZNK7testing15AssertionResult7messageEv
FN:325,_ZNK7testing15AssertionResult15failure_messageEv
FNDA:0,_ZNK7testing15AssertionResult15failure_messageEv
FN:417,_ZN7testing4Test14SetUpTestSuiteEv
FNDA:0,_ZN7testing4Test14SetUpTestSuiteEv
FN:427,_ZN7testing4Test17TearDownTestSuiteEv
FNDA:0,_ZN7testing4Test17TearDownTestSuiteEv
FN:431,_ZN7testing4Test16TearDownTestCaseEv
FNDA:0,_ZN7testing4Test16TearDownTestCaseEv
FN:432,_ZN7testing4Test13SetUpTestCaseEv
FNDA:0,_ZN7testing4Test13SetUpTestCaseEv
FN:513,_ZN7testing4Test5SetupEv
FNDA:0,_ZN7testing4Test5SetupEv
FN:1504,_ZN7testing8internal18CmpHelperEQFailureINSt7__cxx1112basic_stringIcSt11char_traitsIcESaIcEEES7_EENS_15AssertionResultEPKcSA_RKT_RKT0_
FNDA:0,_ZN7testing8internal18CmpHelperEQFailureINSt7__cxx1112basic_stringIcSt11char_traitsIcESaIcEEES7_EENS_15AssertionResultEPKcSA_RKT_RKT0_
FN:1504,_ZN7testing8internal18CmpHelperEQFailureImjEENS_15AssertionResultEPKcS4_RKT_RKT0_
FNDA:0,_ZN7testing8internal18CmpHelperEQFailureImjEENS_15AssertionResultEPKcS4_RKT_RKT0_
FN:1523,_ZN7testing8internal11CmpHelperEQINSt7__cxx1112basic_stringIcSt11char_traitsIcESaIcEEES7_EENS_15AssertionResultEPKcSA_RKT_RKT0_
FNDA:355,_ZN7testing8internal11CmpHelperEQINSt7__cxx1112basic_stringIcSt11char_traitsIcESaIcEEES7_EENS_15AssertionResultEPKcSA_RKT_RKT0_
FN:1523,_ZN7testing8internal11CmpHelperEQImjEENS_15AssertionResultEPKcS4_RKT_RKT0_
FNDA:1,_ZN7testing8internal11CmpHelperEQImjEENS_15AssertionResultEPKcS4_RKT_RKT0_
FN:1551,_ZN7testing8internal8EqHelper7CompareINSt7__cxx1112basic_stringIcSt11char_traitsIcESaIcEEES8_LPv0EEENS_15AssertionResultEPKcSC_RKT_RKT0_
FNDA:355,_ZN7testing8internal8EqHelper7CompareINSt7__cxx1112basic_stringIcSt11char_traitsIcESaIcEEES8_LPv0EEENS_15AssertionResultEPKcSC_RKT_RKT0_
FN:1551,_ZN7testing8internal8EqHelper7CompareImjLPv0EEENS_15AssertionResultEPKcS6_RKT_RKT0_
FNDA:1,_ZN7testing8internal8EqHelper7CompareImjLPv0EEENS_15AssertionResultEPKcS6_RKT_RKT0_
FN:1730,_ZN7testing8internal24CmpHelperFloatingPointEQIdEENS_15AssertionResultEPKcS4_T_S5_
FNDA:5,_ZN7testing8internal24CmpHelperFloatingPointEQIdEENS_15AssertionResultEPKcS4_T_S5_
DA:312,381
DA:321,0
DA:322,0
DA:325,0
DA:417,0
DA:427,0
DA:431,0
DA:432,0
DA:513,0
DA:1504,0
DA:1511,0
DA:1504,0
DA:1511,0
DA:1523,355
DA:1527,355
DA:1528,355
DA:1531,0
DA:1523,1
DA:1527,1
DA:1528,1
DA:1531,0
DA:1551,355
DA:1554,355
DA:1551,1
DA:1554,1
DA:1730,5
DA:1734,5
DA:1736,5
DA:1737,5
DA:1740,0
DA:1741,0
DA:1742,0
DA:1744,0
DA:1745,0
DA:1746,0
DA:1752,0
DA:1753,0
end_of_record
SF:/opt/ros/humble/include/geometry_msgs/geometry_msgs/msg/detail/quaternion__struct.hpp
FN:36,_ZN13geometry_msgs3msg11Quaternion_ISaIvEEC2EN18rosidl_runtime_cpp21MessageInitializationE
FNDA:707,_ZN13geometry_msgs3msg11Quaternion_ISaIvEEC2EN18rosidl_runtime_cpp21MessageInitializationE
DA:36,707
DA:38,707
DA:41,707
DA:42,707
DA:43,707
DA:44,707
DA:45,0
DA:46,0
DA:47,0
DA:48,0
DA:49,0
DA:51,707
end_of_record
SF:/opt/ros/humble/src/gtest_vendor/include/gtest/internal/gtest-internal.h
FN:286,_ZN7testing8internal13FloatingPointIdEC2ERKd
FNDA:10,_ZN7testing8internal13FloatingPointIdEC2ERKd
FN:313,_ZNK7testing8internal13FloatingPointIdE13exponent_bitsEv
FNDA:10,_ZNK7testing8internal13FloatingPointIdE13exponent_bitsEv
FN:316,_ZNK7testing8internal13FloatingPointIdE13fraction_bitsEv
FNDA:0,_ZNK7testing8internal13FloatingPointIdE13fraction_bitsEv
FN:322,_ZNK7testing8internal13FloatingPointIdE6is_nanEv
FNDA:10,_ZNK7testing8internal13FloatingPointIdE6is_nanEv
FN:334,_ZNK7testing8internal13FloatingPointIdE12AlmostEqualsERKS2_
FNDA:5,_ZNK7testing8internal13FloatingPointIdE12AlmostEqualsERKS2_
FN:365,_ZN7testing8internal13FloatingPointIdE24SignAndMagnitudeToBiasedERKy
FNDA:10,_ZN7testing8internal13FloatingPointIdE24SignAndMagnitudeToBiasedERKy
FN:377,_ZN7testing8internal13FloatingPointIdE38DistanceBetweenSignAndMagnitudeNumbersERKyS4_
FNDA:5,_ZN7testing8internal13FloatingPointIdE38DistanceBetweenSignAndMagnitudeNumbersERKyS4_
FN:442,_ZN7testing8internal15TestFactoryBaseD2Ev
FNDA:3,_ZN7testing8internal15TestFactoryBaseD2Ev
FN:442,_ZN7testing8internal15TestFactoryBaseD0Ev
FNDA:0,_ZN7testing8internal15TestFactoryBaseD0Ev
FN:449,_ZN7testing8internal15TestFactoryBaseC2Ev
FNDA:3,_ZN7testing8internal15TestFactoryBaseC2Ev
FN:460,_ZN7testing8internal15TestFactoryImplI32PathUtils_test_generate_all_TestE10CreateTestEv
FNDA:1,_ZN7testing8internal15TestFactoryImplI32PathUtils_test_generate_all_TestE10CreateTestEv
FN:460,_ZN7testing8internal15TestFactoryImplI29PathUtils_test_half_turn_TestE10CreateTestEv
FNDA:1,_ZN7testing8internal15TestFactoryImplI29PathUtils_test_half_turn_TestE10CreateTestEv
FN:460,_ZN7testing8internal15TestFactoryImplI37PathUtils_test_generate_straight_TestE10CreateTestEv
FNDA:1,_ZN7testing8internal15TestFactoryImplI37PathUtils_test_generate_straight_TestE10CreateTestEv
FN:481,_ZN7testing8internal12CodeLocationC2ERKNSt7__cxx1112basic_stringIcSt11char_traitsIcESaIcEEEi
FNDA:3,_ZN7testing8internal12CodeLocationC2ERKNSt7__cxx1112basic_stringIcSt11char_traitsIcESaIcEEEi
FN:494,_ZN7testing8internal19GetNotDefaultOrNullEPFvvES2_
FNDA:12,_ZN7testing8internal19GetNotDefaultOrNullEPFvvES2_
FN:509,_ZN7testing8internal16SuiteApiResolverINS_4TestEE19GetSetUpCaseOrSuiteEPKci
FNDA:3,_ZN7testing8internal16SuiteApiResolverINS_4TestEE19GetSetUpCaseOrSuiteEPKci
FN:524,_ZN7testing8internal16SuiteApiResolverINS_4TestEE22GetTearDownCaseOrSuiteEPKci
FNDA:3,_ZN7testing8internal16SuiteApiResolverINS_4TestEE22GetTearDownCaseOrSuiteEPKci
DA:286,10
DA:313,10
DA:316,0
DA:322,10
DA:325,10
DA:334,5
DA:337,5
DA:339,5
DA:340,5
DA:365,10
DA:366,10
DA:368,0
DA:371,10
DA:377,5
DA:379,5
DA:380,5
DA:381,5
DA:442,0
DA:442,3
DA:449,3
DA:460,1
DA:460,1
DA:460,1
DA:481,3
DA:482,3
DA:494,12
DA:496,12
DA:509,3
DA:512,3
DA:514,3
DA:516,3
DA:519,0
DA:521,3
DA:524,3
DA:527,3
DA:529,3
DA:531,3
DA:534,0
DA:536,3
end_of_record
SF:/usr/include/c++/11/bits/stl_vector.h
FN:276,_ZNSt12_Vector_baseIN13geometry_msgs3msg12PoseStamped_ISaIvEEESaIS4_EE19_M_get_Tp_allocatorEv
FNDA:19,_ZNSt12_Vector_baseIN13geometry_msgs3msg12PoseStamped_ISaIvEEESaIS4_EE19_M_get_Tp_allocatorEv
FN:333,_ZNSt12_Vector_baseIN13geometry_msgs3msg12PoseStamped_ISaIvEEESaIS4_EED2Ev
FNDA:3,_ZNSt12_Vector_baseIN13geometry_msgs3msg12PoseStamped_ISaIvEEESaIS4_EED2Ev
FN:350,_ZNSt12_Vector_baseIN13geometry_msgs3msg12PoseStamped_ISaIvEEESaIS4_EE13_M_deallocateEPS4_m
FNDA:16,_ZNSt12_Vector_baseIN13geometry_msgs3msg12PoseStamped_ISaIvEEESaIS4_EE13_M_deallocateEPS4_m
FN:678,_ZNSt6vectorIN13geometry_msgs3msg12PoseStamped_ISaIvEEESaIS4_EED2Ev
FNDA:3,_ZNSt6vectorIN13geometry_msgs3msg12PoseStamped_ISaIvEEESaIS4_EED2Ev
FN:811,_ZNSt6vectorIN13geometry_msgs3msg12PoseStamped_ISaIvEEESaIS4_EE5beginEv
FNDA:6,_ZNSt6vectorIN13geometry_msgs3msg12PoseStamped_ISaIvEEESaIS4_EE5beginEv
FN:829,_ZNSt6vectorIN13geometry_msgs3msg12PoseStamped_ISaIvEEESaIS4_EE3endEv
FNDA:1064,_ZNSt6vectorIN13geometry_msgs3msg12PoseStamped_ISaIvEEESaIS4_EE3endEv
FN:918,_ZNKSt6vectorIN13geometry_msgs3msg12PoseStamped_ISaIvEEESaIS4_EE4sizeEv
FNDA:35,_ZNKSt6vectorIN13geometry_msgs3msg12PoseStamped_ISaIvEEESaIS4_EE4sizeEv
FN:1043,_ZNSt6vectorIN13geometry_msgs3msg12PoseStamped_ISaIvEEESaIS4_EEixEm
FNDA:9,_ZNSt6vectorIN13geometry_msgs3msg12PoseStamped_ISaIvEEESaIS4_EEixEm
FN:1143,_ZNSt6vectorIN13geometry_msgs3msg12PoseStamped_ISaIvEEESaIS4_EE4backEv
FNDA:706,_ZNSt6vectorIN13geometry_msgs3msg12PoseStamped_ISaIvEEESaIS4_EE4backEv
DA:276,19
DA:277,19
DA:333,3
DA:335,3
DA:336,3
DA:337,3
DA:350,16
DA:353,16
DA:354,13
DA:355,16
DA:678,3
DA:680,3
DA:681,3
DA:683,3
DA:811,6
DA:812,6
DA:829,1064
DA:830,1064
DA:918,35
DA:919,35
DA:1043,9
DA:1046,9
DA:1143,706
DA:1146,706
end_of_record
SF:/opt/ros/humble/include/nav_msgs/nav_msgs/msg/detail/path__struct.hpp
end_of_record
SF:/opt/ros/humble/src/gtest_vendor/include/gtest/internal/gtest-port.h
FN:957,_ZN7testing8internal8GTestLog9GetStreamEv
FNDA:0,_ZN7testing8internal8GTestLog9GetStreamEv
DA:957,0
end_of_record
SF:/usr/include/c++/11/iomanip
FN:195,_ZSt12setprecisioni
FNDA:96,_ZSt12setprecisioni
DA:195,96
DA:196,96
end_of_record
SF:/usr/include/c++/11/bits/basic_string.h
FN:251,_ZNSt7__cxx1112basic_stringIcSt11char_traitsIcESaIcEE16_M_construct_auxIPcEEvT_S7_St12__false_type
FNDA:0,_ZNSt7__cxx1112basic_stringIcSt11char_traitsIcESaIcEE16_M_construct_auxIPcEEvT_S7_St12__false_type
FN:271,_ZNSt7__cxx1112basic_stringIcSt11char_traitsIcESaIcEE12_M_constructIPcEEvT_S7_
FNDA:0,_ZNSt7__cxx1112basic_stringIcSt11char_traitsIcESaIcEE12_M_constructIPcEEvT_S7_
FN:533,_ZNSt7__cxx1112basic_stringIcSt11char_traitsIcESaIcEEC2IS3_EEPKcRKS3_
FNDA:379,_ZNSt7__cxx1112basic_stringIcSt11char_traitsIcESaIcEEC2IS3_EEPKcRKS3_
FN:6234,_ZSteqIcEN9__gnu_cxx11__enable_ifIXsrSt9__is_charIT_E7__valueEbE6__typeERKNSt7__cxx1112basic_stringIS3_St11char_traitsIS3_ESaIS3_EEESE_
FNDA:501,_ZSteqIcEN9__gnu_cxx11__enable_ifIXsrSt9__is_charIT_E7__valueEbE6__typeERKNSt7__cxx1112basic_stringIS3_St11char_traitsIS3_ESaIS3_EEESE_
DA:251,0
DA:255,0
DA:256,0
DA:271,0
DA:274,0
DA:275,0
DA:533,379
DA:534,379
DA:536,379
DA:539,379
DA:540,379
DA:6234,501
DA:6236,501
DA:6237,501
DA:6238,501
end_of_record
SF:/usr/include/c++/11/bits/allocator.h
FN:174,_ZNSaIN13geometry_msgs3msg12PoseStamped_ISaIvEEEED2Ev
FNDA:3,_ZNSaIN13geometry_msgs3msg12PoseStamped_ISaIvEEEED2Ev
DA:174,3
end_of_record
SF:/opt/ros/humble/include/geometry_msgs/geometry_msgs/msg/detail/point__struct.hpp
FN:36,_ZN13geometry_msgs3msg6Point_ISaIvEEC2EN18rosidl_runtime_cpp21MessageInitializationE
FNDA:355,_ZN13geometry_msgs3msg6Point_ISaIvEEC2EN18rosidl_runtime_cpp21MessageInitializationE
DA:36,355
DA:38,355
DA:41,355
DA:42,355
DA:43,355
DA:45,355
end_of_record
SF:/usr/include/c++/11/iostream
end_of_record
SF:/usr/include/c++/11/ext/alloc_traits.h
FN:97,_ZN9__gnu_cxx14__alloc_traitsISaIcEcE17_S_select_on_copyERKS1_
FNDA:0,_ZN9__gnu_cxx14__alloc_traitsISaIcEcE17_S_select_on_copyERKS1_
DA:97,0
DA:98,0
end_of_record
SF:/usr/include/c++/11/bits/alloc_traits.h
FN:495,_ZNSt16allocator_traitsISaIN13geometry_msgs3msg12PoseStamped_ISaIvEEEEE10deallocateERS5_PS4_m
FNDA:13,_ZNSt16allocator_traitsISaIN13geometry_msgs3msg12PoseStamped_ISaIvEEEEE10deallocateERS5_PS4_m
FN:562,_ZNSt16allocator_traitsISaIcEE37select_on_container_copy_constructionERKS0_
FNDA:0,_ZNSt16allocator_traitsISaIcEE37select_on_container_copy_constructionERKS0_
FN:845,_ZSt8_DestroyIPN13geometry_msgs3msg12PoseStamped_ISaIvEEES4_EvT_S6_RSaIT0_E
FNDA:3,_ZSt8_DestroyIPN13geometry_msgs3msg12PoseStamped_ISaIvEEES4_EvT_S6_RSaIT0_E
DA:495,13
DA:496,13
DA:562,0
DA:563,0
DA:845,3
DA:848,3
DA:849,3
end_of_record
SF:/usr/include/c++/11/ext/new_allocator.h
FN:79,_ZN9__gnu_cxx13new_allocatorIcEC2Ev
FNDA:0,_ZN9__gnu_cxx13new_allocatorIcEC2Ev
FN:82,_ZN9__gnu_cxx13new_allocatorIcEC2ERKS1_
FNDA:0,_ZN9__gnu_cxx13new_allocatorIcEC2ERKS1_
FN:89,_ZN9__gnu_cxx13new_allocatorIN13geometry_msgs3msg12PoseStamped_ISaIvEEEED2Ev
FNDA:3,_ZN9__gnu_cxx13new_allocatorIN13geometry_msgs3msg12PoseStamped_ISaIvEEEED2Ev
FN:89,_ZN9__gnu_cxx13new_allocatorIcED2Ev
FNDA:0,_ZN9__gnu_cxx13new_allocatorIcED2Ev
FN:132,_ZN9__gnu_cxx13new_allocatorIN13geometry_msgs3msg12PoseStamped_ISaIvEEEE10deallocateEPS5_m
FNDA:13,_ZN9__gnu_cxx13new_allocatorIN13geometry_msgs3msg12PoseStamped_ISaIvEEEE10deallocateEPS5_m
DA:79,0
DA:82,0
DA:89,3
DA:89,0
DA:132,13
DA:145,13
end_of_record
SF:/opt/ros/humble/include/geometry_msgs/geometry_msgs/msg/detail/pose__struct.hpp
FN:42,_ZN13geometry_msgs3msg5Pose_ISaIvEEC2EN18rosidl_runtime_cpp21MessageInitializationE
FNDA:355,_ZN13geometry_msgs3msg5Pose_ISaIvEEC2EN18rosidl_runtime_cpp21MessageInitializationE
DA:42,355
DA:43,355
DA:44,355
DA:47,355
end_of_record
SF:/opt/ros/humble/include/std_msgs/std_msgs/msg/detail/header__struct.hpp
FN:40,_ZN8std_msgs3msg7Header_ISaIvEEC2EN18rosidl_runtime_cpp21MessageInitializationE
FNDA:358,_ZN8std_msgs3msg7Header_ISaIvEEC2EN18rosidl_runtime_cpp21MessageInitializationE
DA:40,358
DA:41,358
DA:43,358
DA:46,358
DA:48,358
end_of_record
SF:/root/ros2_ws/src/vector_pursuit_controller/test/path_utils/test_path_utils.cpp
FN:22,_ZN37PathUtils_test_generate_straight_Test8TestBodyEv
FNDA:1,_ZN37PathUtils_test_generate_straight_Test8TestBodyEv
FN:22,_ZN37PathUtils_test_generate_straight_TestC2Ev
FNDA:1,_ZN37PathUtils_test_generate_straight_TestC2Ev
FN:51,_ZN29PathUtils_test_half_turn_Test8TestBodyEv
FNDA:1,_ZN29PathUtils_test_half_turn_Test8TestBodyEv
FN:51,_ZN29PathUtils_test_half_turn_TestC2Ev
FNDA:1,_ZN29PathUtils_test_half_turn_TestC2Ev
FN:91,_ZN32PathUtils_test_generate_all_Test8TestBodyEv
FNDA:1,_ZN32PathUtils_test_generate_all_Test8TestBodyEv
FN:91,_ZN32PathUtils_test_generate_all_TestC2Ev
FNDA:1,_ZN32PathUtils_test_generate_all_TestC2Ev
DA:22,1
DA:24,1
DA:25,1
DA:27,1
DA:28,1
DA:30,1
DA:32,1
DA:33,3
DA:34,1
DA:35,4
DA:36,3
DA:38,1
DA:39,1
DA:40,1
DA:42,1
DA:43,1
DA:44,1
DA:46,1
DA:47,1
DA:48,1
DA:49,1
DA:22,1
DA:51,1
DA:54,1
DA:55,1
DA:56,1
DA:57,1
DA:58,1
DA:59,1
DA:60,1
DA:61,1
DA:63,1
DA:64,1
DA:66,1
DA:68,1
DA:69,3
DA:70,1
DA:71,1
DA:72,64
DA:73,63
DA:77,1
DA:78,1
DA:79,1
DA:80,1
DA:81,1
DA:84,1
DA:85,1
DA:86,1
DA:87,1
DA:88,1
DA:89,1
DA:51,1
DA:91,1
DA:93,1
DA:94,1
DA:96,1
DA:98,8
DA:100,1
DA:101,2
DA:102,2
DA:103,2
DA:104,2
DA:105,2
DA:106,2
DA:107,2
DA:108,10
DA:109,1
DA:111,1
DA:112,290
DA:113,289
DA:117,1
DA:118,1
DA:119,1
DA:120,1
DA:121,1
DA:123,1
DA:124,1
DA:125,1
DA:126,1
DA:127,1
DA:128,1
DA:91,1
end_of_record
SF:/usr/include/c++/11/bits/unique_ptr.h
FN:75,_ZNSt14default_deleteIN10path_utils11PathSegmentEEC2INS0_11RightCircleEvEERKS_IT_E
FNDA:1,_ZNSt14default_deleteIN10path_utils11PathSegmentEEC2INS0_11RightCircleEvEERKS_IT_E
FN:75,_ZNSt14default_deleteIN10path_utils11PathSegmentEEC2INS0_10LeftCircleEvEERKS_IT_E
FNDA:1,_ZNSt14default_deleteIN10path_utils11PathSegmentEEC2INS0_10LeftCircleEvEERKS_IT_E
FN:75,_ZNSt14default_deleteIN10path_utils11PathSegmentEEC2INS0_14LeftTurnAroundEvEERKS_IT_E
FNDA:1,_ZNSt14default_deleteIN10path_utils11PathSegmentEEC2INS0_14LeftTurnAroundEvEERKS_IT_E
FN:75,_ZNSt14default_deleteIN10path_utils11PathSegmentEEC2INS0_9RightTurnEvEERKS_IT_E
FNDA:1,_ZNSt14default_deleteIN10path_utils11PathSegmentEEC2INS0_9RightTurnEvEERKS_IT_E
FN:75,_ZNSt14default_deleteIN10path_utils11PathSegmentEEC2INS0_8LeftTurnEvEERKS_IT_E
FNDA:1,_ZNSt14default_deleteIN10path_utils11PathSegmentEEC2INS0_8LeftTurnEvEERKS_IT_E
FN:75,_ZNSt14default_deleteIN10path_utils11PathSegmentEEC2INS0_15RightTurnAroundEvEERKS_IT_E
FNDA:2,_ZNSt14default_deleteIN10path_utils11PathSegmentEEC2INS0_15RightTurnAroundEvEERKS_IT_E
FN:75,_ZNSt14default_deleteIN10path_utils11PathSegmentEEC2INS0_8StraightEvEERKS_IT_E
FNDA:2,_ZNSt14default_deleteIN10path_utils11PathSegmentEEC2INS0_8StraightEvEERKS_IT_E
FN:75,_ZNSt14default_deleteIN10path_utils11PathSegmentEEC2INS0_3ArcEvEERKS_IT_E
FNDA:1,_ZNSt14default_deleteIN10path_utils11PathSegmentEEC2INS0_3ArcEvEERKS_IT_E
FN:79,_ZNKSt14default_deleteIN10path_utils8StraightEEclEPS1_
FNDA:0,_ZNKSt14default_deleteIN10path_utils8StraightEEclEPS1_
FN:79,_ZNKSt14default_deleteIN10path_utils3ArcEEclEPS1_
FNDA:0,_ZNKSt14default_deleteIN10path_utils3ArcEEclEPS1_
FN:79,_ZNKSt14default_deleteIN10path_utils11RightCircleEEclEPS1_
FNDA:0,_ZNKSt14default_deleteIN10path_utils11RightCircleEEclEPS1_
FN:79,_ZNKSt14default_deleteINSt7__cxx1112basic_stringIcSt11char_traitsIcESaIcEEEEclEPS5_
FNDA:0,_ZNKSt14default_deleteINSt7__cxx1112basic_stringIcSt11char_traitsIcESaIcEEEEclEPS5_
FN:79,_ZNKSt14default_deleteIN10path_utils10LeftCircleEEclEPS1_
FNDA:0,_ZNKSt14default_deleteIN10path_utils10LeftCircleEEclEPS1_
FN:79,_ZNKSt14default_deleteIN10path_utils11PathSegmentEEclEPS1_
FNDA:10,_ZNKSt14default_deleteIN10path_utils11PathSegmentEEclEPS1_
FN:79,_ZNKSt14default_deleteIN10path_utils14LeftTurnAroundEEclEPS1_
FNDA:0,_ZNKSt14default_deleteIN10path_utils14LeftTurnAroundEEclEPS1_
FN:79,_ZNKSt14default_deleteIN10path_utils9RightTurnEEclEPS1_
FNDA:0,_ZNKSt14default_deleteIN10path_utils9RightTurnEEclEPS1_
FN:79,_ZNKSt14default_deleteIN10path_utils15RightTurnAroundEEclEPS1_
FNDA:0,_ZNKSt14default_deleteIN10path_utils15RightTurnAroundEEclEPS1_
FN:79,_ZNKSt14default_deleteINSt7__cxx1118basic_stringstreamIcSt11char_traitsIcESaIcEEEEclEPS5_
FNDA:96,_ZNKSt14default_deleteINSt7__cxx1118basic_stringstreamIcSt11char_traitsIcESaIcEEEEclEPS5_
FN:79,_ZNKSt14default_deleteIN10path_utils8LeftTurnEEclEPS1_
FNDA:0,_ZNKSt14default_deleteIN10path_utils8LeftTurnEEclEPS1_
FN:155,_ZNSt15__uniq_ptr_implIN10path_utils8StraightESt14default_deleteIS1_EEC2EPS1_
FNDA:2,_ZNSt15__uniq_ptr_implIN10path_utils8StraightESt14default_deleteIS1_EEC2EPS1_
FN:155,_ZNSt15__uniq_ptr_implIN10path_utils15RightTurnAroundESt14default_deleteIS1_EEC2EPS1_
FNDA:2,_ZNSt15__uniq_ptr_implIN10path_utils15RightTurnAroundESt14default_deleteIS1_EEC2EPS1_
FN:155,_ZNSt15__uniq_ptr_implIN10path_utils8LeftTurnESt14default_deleteIS1_EEC2EPS1_
FNDA:1,_ZNSt15__uniq_ptr_implIN10path_utils8LeftTurnESt14default_deleteIS1_EEC2EPS1_
FN:155,_ZNSt15__uniq_ptr_implIN10path_utils11RightCircleESt14default_deleteIS1_EEC2EPS1_
FNDA:1,_ZNSt15__uniq_ptr_implIN10path_utils11RightCircleESt14default_deleteIS1_EEC2EPS1_
FN:155,_ZNSt15__uniq_ptr_implIN10path_utils9RightTurnESt14default_deleteIS1_EEC2EPS1_
FNDA:1,_ZNSt15__uniq_ptr_implIN10path_utils9RightTurnESt14default_deleteIS1_EEC2EPS1_
FN:155,_ZNSt15__uniq_ptr_implIN10path_utils14LeftTurnAroundESt14default_deleteIS1_EEC2EPS1_
FNDA:1,_ZNSt15__uniq_ptr_implIN10path_utils14LeftTurnAroundESt14default_deleteIS1_EEC2EPS1_
FN:155,_ZNSt15__uniq_ptr_implIN10path_utils10LeftCircleESt14default_deleteIS1_EEC2EPS1_
FNDA:1,_ZNSt15__uniq_ptr_implIN10path_utils10LeftCircleESt14default_deleteIS1_EEC2EPS1_
FN:155,_ZNSt15__uniq_ptr_implIN10path_utils3ArcESt14default_deleteIS1_EEC2EPS1_
FNDA:1,_ZNSt15__uniq_ptr_implIN10path_utils3ArcESt14default_deleteIS1_EEC2EPS1_
FN:158,_ZNSt15__uniq_ptr_implIN10path_utils11PathSegmentESt14default_deleteIS1_EEC2IS2_INS0_8LeftTurnEEEEPS1_OT_
FNDA:1,_ZNSt15__uniq_ptr_implIN10path_utils11PathSegmentESt14default_deleteIS1_EEC2IS2_INS0_8LeftTurnEEEEPS1_OT_
FN:158,_ZNSt15__uniq_ptr_implIN10path_utils11PathSegmentESt14default_deleteIS1_EEC2IS2_INS0_8StraightEEEEPS1_OT_
FNDA:2,_ZNSt15__uniq_ptr_implIN10path_utils11PathSegmentESt14default_deleteIS1_EEC2IS2_INS0_8StraightEEEEPS1_OT_
FN:158,_ZNSt15__uniq_ptr_implIN10path_utils11PathSegmentESt14default_deleteIS1_EEC2IS2_INS0_3ArcEEEEPS1_OT_
FNDA:1,_ZNSt15__uniq_ptr_implIN10path_utils11PathSegmentESt14default_deleteIS1_EEC2IS2_INS0_3ArcEEEEPS1_OT_
FN:158,_ZNSt15__uniq_ptr_implIN10path_utils11PathSegmentESt14default_deleteIS1_EEC2IS2_INS0_9RightTurnEEEEPS1_OT_
FNDA:1,_ZNSt15__uniq_ptr_implIN10path_utils11PathSegmentESt14default_deleteIS1_EEC2IS2_INS0_9RightTurnEEEEPS1_OT_
FN:158,_ZNSt15__uniq_ptr_implIN10path_utils11PathSegmentESt14default_deleteIS1_EEC2IS2_INS0_14LeftTurnAroundEEEEPS1_OT_
FNDA:1,_ZNSt15__uniq_ptr_implIN10path_utils11PathSegmentESt14default_deleteIS1_EEC2IS2_INS0_14LeftTurnAroundEEEEPS1_OT_
FN:158,_ZNSt15__uniq_ptr_implIN10path_utils11PathSegmentESt14default_deleteIS1_EEC2IS2_INS0_10LeftCircleEEEEPS1_OT_
FNDA:1,_ZNSt15__uniq_ptr_implIN10path_utils11PathSegmentESt14default_deleteIS1_EEC2IS2_INS0_10LeftCircleEEEEPS1_OT_
FN:158,_ZNSt15__uniq_ptr_implIN10path_utils11PathSegmentESt14default_deleteIS1_EEC2IS2_INS0_15RightTurnAroundEEEEPS1_OT_
FNDA:2,_ZNSt15__uniq_ptr_implIN10path_utils11PathSegmentESt14default_deleteIS1_EEC2IS2_INS0_15RightTurnAroundEEEEPS1_OT_
FN:158,_ZNSt15__uniq_ptr_implIN10path_utils11PathSegmentESt14default_deleteIS1_EEC2IS2_INS0_11RightCircleEEEEPS1_OT_
FNDA:1,_ZNSt15__uniq_ptr_implIN10path_utils11PathSegmentESt14default_deleteIS1_EEC2IS2_INS0_11RightCircleEEEEPS1_OT_
FN:172,_ZNSt15__uniq_ptr_implINSt7__cxx1118basic_stringstreamIcSt11char_traitsIcESaIcEEESt14default_deleteIS5_EE6_M_ptrEv
FNDA:192,_ZNSt15__uniq_ptr_implINSt7__cxx1118basic_stringstreamIcSt11char_traitsIcESaIcEEESt14default_deleteIS5_EE6_M_ptrEv
FN:172,_ZNSt15__uniq_ptr_implIN10path_utils8LeftTurnESt14default_deleteIS1_EE6_M_ptrEv
FNDA:4,_ZNSt15__uniq_ptr_implIN10path_utils8LeftTurnESt14default_deleteIS1_EE6_M_ptrEv
FN:172,_ZNSt15__uniq_ptr_implIN10path_utils9RightTurnESt14default_deleteIS1_EE6_M_ptrEv
FNDA:4,_ZNSt15__uniq_ptr_implIN10path_utils9RightTurnESt14default_deleteIS1_EE6_M_ptrEv
FN:172,_ZNSt15__uniq_ptr_implIN10path_utils14LeftTurnAroundESt14default_deleteIS1_EE6_M_ptrEv
FNDA:4,_ZNSt15__uniq_ptr_implIN10path_utils14LeftTurnAroundESt14default_deleteIS1_EE6_M_ptrEv
FN:172,_ZNSt15__uniq_ptr_implIN10path_utils15RightTurnAroundESt14default_deleteIS1_EE6_M_ptrEv
FNDA:8,_ZNSt15__uniq_ptr_implIN10path_utils15RightTurnAroundESt14default_deleteIS1_EE6_M_ptrEv
FN:172,_ZNSt15__uniq_ptr_implIN10path_utils10LeftCircleESt14default_deleteIS1_EE6_M_ptrEv
FNDA:4,_ZNSt15__uniq_ptr_implIN10path_utils10LeftCircleESt14default_deleteIS1_EE6_M_ptrEv
FN:172,_ZNSt15__uniq_ptr_implIN10path_utils11PathSegmentESt14default_deleteIS1_EE6_M_ptrEv
FNDA:10,_ZNSt15__uniq_ptr_implIN10path_utils11PathSegmentESt14default_deleteIS1_EE6_M_ptrEv
FN:172,_ZNSt15__uniq_ptr_implIN10path_utils11RightCircleESt14default_deleteIS1_EE6_M_ptrEv
FNDA:4,_ZNSt15__uniq_ptr_implIN10path_utils11RightCircleESt14default_deleteIS1_EE6_M_ptrEv
FN:172,_ZNSt15__uniq_ptr_implIN10path_utils3ArcESt14default_deleteIS1_EE6_M_ptrEv
FNDA:4,_ZNSt15__uniq_ptr_implIN10path_utils3ArcESt14default_deleteIS1_EE6_M_ptrEv
FN:172,_ZNSt15__uniq_ptr_implIN10path_utils8StraightESt14default_deleteIS1_EE6_M_ptrEv
FNDA:8,_ZNSt15__uniq_ptr_implIN10path_utils8StraightESt14default_deleteIS1_EE6_M_ptrEv
FN:172,_ZNSt15__uniq_ptr_implINSt7__cxx1112basic_stringIcSt11char_traitsIcESaIcEEESt14default_deleteIS5_EE6_M_ptrEv
FNDA:381,_ZNSt15__uniq_ptr_implINSt7__cxx1112basic_stringIcSt11char_traitsIcESaIcEEESt14default_deleteIS5_EE6_M_ptrEv
FN:173,_ZNKSt15__uniq_ptr_implINSt7__cxx1112basic_stringIcSt11char_traitsIcESaIcEEESt14default_deleteIS5_EE6_M_ptrEv
FNDA:0,_ZNKSt15__uniq_ptr_implINSt7__cxx1112basic_stringIcSt11char_traitsIcESaIcEEESt14default_deleteIS5_EE6_M_ptrEv
FN:174,_ZNSt15__uniq_ptr_implINSt7__cxx1112basic_stringIcSt11char_traitsIcESaIcEEESt14default_deleteIS5_EE10_M_deleterEv
FNDA:0,_ZNSt15__uniq_ptr_implINSt7__cxx1112basic_stringIcSt11char_traitsIcESaIcEEESt14default_deleteIS5_EE10_M_deleterEv
FN:174,_ZNSt15__uniq_ptr_implIN10path_utils8StraightESt14default_deleteIS1_EE10_M_deleterEv
FNDA:2,_ZNSt15__uniq_ptr_implIN10path_utils8StraightESt14default_deleteIS1_EE10_M_deleterEv
FN:174,_ZNSt15__uniq_ptr_implIN10path_utils3ArcESt14default_deleteIS1_EE10_M_deleterEv
FNDA:1,_ZNSt15__uniq_ptr_implIN10path_utils3ArcESt14default_deleteIS1_EE10_M_deleterEv
FN:174,_ZNSt15__uniq_ptr_implIN10path_utils11RightCircleESt14default_deleteIS1_EE10_M_deleterEv
FNDA:1,_ZNSt15__uniq_ptr_implIN10path_utils11RightCircleESt14default_deleteIS1_EE10_M_deleterEv
FN:174,_ZNSt15__uniq_ptr_implINSt7__cxx1118basic_stringstreamIcSt11char_traitsIcESaIcEEESt14default_deleteIS5_EE10_M_deleterEv
FNDA:96,_ZNSt15__uniq_ptr_implINSt7__cxx1118basic_stringstreamIcSt11char_traitsIcESaIcEEESt14default_deleteIS5_EE10_M_deleterEv
FN:174,_ZNSt15__uniq_ptr_implIN10path_utils10LeftCircleESt14default_deleteIS1_EE10_M_deleterEv
FNDA:1,_ZNSt15__uniq_ptr_implIN10path_utils10LeftCircleESt14default_deleteIS1_EE10_M_deleterEv
FN:174,_ZNSt15__uniq_ptr_implIN10path_utils14LeftTurnAroundESt14default_deleteIS1_EE10_M_deleterEv
FNDA:1,_ZNSt15__uniq_ptr_implIN10path_utils14LeftTurnAroundESt14default_deleteIS1_EE10_M_deleterEv
FN:174,_ZNSt15__uniq_ptr_implIN10path_utils9RightTurnESt14default_deleteIS1_EE10_M_deleterEv
FNDA:1,_ZNSt15__uniq_ptr_implIN10path_utils9RightTurnESt14default_deleteIS1_EE10_M_deleterEv
FN:174,_ZNSt15__uniq_ptr_implIN10path_utils11PathSegmentESt14default_deleteIS1_EE10_M_deleterEv
FNDA:10,_ZNSt15__uniq_ptr_implIN10path_utils11PathSegmentESt14default_deleteIS1_EE10_M_deleterEv
FN:174,_ZNSt15__uniq_ptr_implIN10path_utils15RightTurnAroundESt14default_deleteIS1_EE10_M_deleterEv
FNDA:2,_ZNSt15__uniq_ptr_implIN10path_utils15RightTurnAroundESt14default_deleteIS1_EE10_M_deleterEv
FN:174,_ZNSt15__uniq_ptr_implIN10path_utils8LeftTurnESt14default_deleteIS1_EE10_M_deleterEv
FNDA:1,_ZNSt15__uniq_ptr_implIN10path_utils8LeftTurnESt14default_deleteIS1_EE10_M_deleterEv
FN:185,_ZNSt15__uniq_ptr_implIN10path_utils10LeftCircleESt14default_deleteIS1_EE7releaseEv
FNDA:1,_ZNSt15__uniq_ptr_implIN10path_utils10LeftCircleESt14default_deleteIS1_EE7releaseEv
FN:185,_ZNSt15__uniq_ptr_implIN10path_utils14LeftTurnAroundESt14default_deleteIS1_EE7releaseEv
FNDA:1,_ZNSt15__uniq_ptr_implIN10path_utils14LeftTurnAroundESt14default_deleteIS1_EE7releaseEv
FN:185,_ZNSt15__uniq_ptr_implIN10path_utils11RightCircleESt14default_deleteIS1_EE7releaseEv
FNDA:1,_ZNSt15__uniq_ptr_implIN10path_utils11RightCircleESt14default_deleteIS1_EE7releaseEv
FN:185,_ZNSt15__uniq_ptr_implIN10path_utils3ArcESt14default_deleteIS1_EE7releaseEv
FNDA:1,_ZNSt15__uniq_ptr_implIN10path_utils3ArcESt14default_deleteIS1_EE7releaseEv
FN:185,_ZNSt15__uniq_ptr_implIN10path_utils9RightTurnESt14default_deleteIS1_EE7releaseEv
FNDA:1,_ZNSt15__uniq_ptr_implIN10path_utils9RightTurnESt14default_deleteIS1_EE7releaseEv
FN:185,_ZNSt15__uniq_ptr_implIN10path_utils8LeftTurnESt14default_deleteIS1_EE7releaseEv
FNDA:1,_ZNSt15__uniq_ptr_implIN10path_utils8LeftTurnESt14default_deleteIS1_EE7releaseEv
FN:185,_ZNSt15__uniq_ptr_implIN10path_utils8StraightESt14default_deleteIS1_EE7releaseEv
FNDA:2,_ZNSt15__uniq_ptr_implIN10path_utils8StraightESt14default_deleteIS1_EE7releaseEv
FN:185,_ZNSt15__uniq_ptr_implIN10path_utils15RightTurnAroundESt14default_deleteIS1_EE7releaseEv
FNDA:2,_ZNSt15__uniq_ptr_implIN10path_utils15RightTurnAroundESt14default_deleteIS1_EE7releaseEv
FN:281,_ZNSt10unique_ptrIN10path_utils8LeftTurnESt14default_deleteIS1_EEC2IS3_vEEPS1_
FNDA:1,_ZNSt10unique_ptrIN10path_utils8LeftTurnESt14default_deleteIS1_EEC2IS3_vEEPS1_
FN:281,_ZNSt10unique_ptrIN10path_utils14LeftTurnAroundESt14default_deleteIS1_EEC2IS3_vEEPS1_
FNDA:1,_ZNSt10unique_ptrIN10path_utils14LeftTurnAroundESt14default_deleteIS1_EEC2IS3_vEEPS1_
FN:281,_ZNSt10unique_ptrIN10path_utils15RightTurnAroundESt14default_deleteIS1_EEC2IS3_vEEPS1_
FNDA:2,_ZNSt10unique_ptrIN10path_utils15RightTurnAroundESt14default_deleteIS1_EEC2IS3_vEEPS1_
FN:281,_ZNSt10unique_ptrIN10path_utils8StraightESt14default_deleteIS1_EEC2IS3_vEEPS1_
FNDA:2,_ZNSt10unique_ptrIN10path_utils8StraightESt14default_deleteIS1_EEC2IS3_vEEPS1_
FN:281,_ZNSt10unique_ptrIN10path_utils9RightTurnESt14default_deleteIS1_EEC2IS3_vEEPS1_
FNDA:1,_ZNSt10unique_ptrIN10path_utils9RightTurnESt14default_deleteIS1_EEC2IS3_vEEPS1_
FN:281,_ZNSt10unique_ptrIN10path_utils10LeftCircleESt14default_deleteIS1_EEC2IS3_vEEPS1_
FNDA:1,_ZNSt10unique_ptrIN10path_utils10LeftCircleESt14default_deleteIS1_EEC2IS3_vEEPS1_
FN:281,_ZNSt10unique_ptrIN10path_utils11RightCircleESt14default_deleteIS1_EEC2IS3_vEEPS1_
FNDA:1,_ZNSt10unique_ptrIN10path_utils11RightCircleESt14default_deleteIS1_EEC2IS3_vEEPS1_
FN:281,_ZNSt10unique_ptrIN10path_utils3ArcESt14default_deleteIS1_EEC2IS3_vEEPS1_
FNDA:1,_ZNSt10unique_ptrIN10path_utils3ArcESt14default_deleteIS1_EEC2IS3_vEEPS1_
FN:340,_ZNSt10unique_ptrIN10path_utils11PathSegmentESt14default_deleteIS1_EEC2INS0_9RightTurnES2_IS6_EvEEOS_IT_T0_E
FNDA:1,_ZNSt10unique_ptrIN10path_utils11PathSegmentESt14default_deleteIS1_EEC2INS0_9RightTurnES2_IS6_EvEEOS_IT_T0_E
FN:340,_ZNSt10unique_ptrIN10path_utils11PathSegmentESt14default_deleteIS1_EEC2INS0_8StraightES2_IS6_EvEEOS_IT_T0_E
FNDA:2,_ZNSt10unique_ptrIN10path_utils11PathSegmentESt14default_deleteIS1_EEC2INS0_8StraightES2_IS6_EvEEOS_IT_T0_E
FN:340,_ZNSt10unique_ptrIN10path_utils11PathSegmentESt14default_deleteIS1_EEC2INS0_15RightTurnAroundES2_IS6_EvEEOS_IT_T0_E
FNDA:2,_ZNSt10unique_ptrIN10path_utils11PathSegmentESt14default_deleteIS1_EEC2INS0_15RightTurnAroundES2_IS6_EvEEOS_IT_T0_E
FN:340,_ZNSt10unique_ptrIN10path_utils11PathSegmentESt14default_deleteIS1_EEC2INS0_8LeftTurnES2_IS6_EvEEOS_IT_T0_E
FNDA:1,_ZNSt10unique_ptrIN10path_utils11PathSegmentESt14default_deleteIS1_EEC2INS0_8LeftTurnES2_IS6_EvEEOS_IT_T0_E
FN:340,_ZNSt10unique_ptrIN10path_utils11PathSegmentESt14default_deleteIS1_EEC2INS0_14LeftTurnAroundES2_IS6_EvEEOS_IT_T0_E
FNDA:1,_ZNSt10unique_ptrIN10path_utils11PathSegmentESt14default_deleteIS1_EEC2INS0_14LeftTurnAroundES2_IS6_EvEEOS_IT_T0_E
FN:340,_ZNSt10unique_ptrIN10path_utils11PathSegmentESt14default_deleteIS1_EEC2INS0_10LeftCircleES2_IS6_EvEEOS_IT_T0_E
FNDA:1,_ZNSt10unique_ptrIN10path_utils11PathSegmentESt14default_deleteIS1_EEC2INS0_10LeftCircleES2_IS6_EvEEOS_IT_T0_E
FN:340,_ZNSt10unique_ptrIN10path_utils11PathSegmentESt14default_deleteIS1_EEC2INS0_11RightCircleES2_IS6_EvEEOS_IT_T0_E
FNDA:1,_ZNSt10unique_ptrIN10path_utils11PathSegmentESt14default_deleteIS1_EEC2INS0_11RightCircleES2_IS6_EvEEOS_IT_T0_E
FN:340,_ZNSt10unique_ptrIN10path_utils11PathSegmentESt14default_deleteIS1_EEC2INS0_3ArcES2_IS6_EvEEOS_IT_T0_E
FNDA:1,_ZNSt10unique_ptrIN10path_utils11PathSegmentESt14default_deleteIS1_EEC2INS0_3ArcES2_IS6_EvEEOS_IT_T0_E
FN:355,_ZNSt10unique_ptrIN10path_utils10LeftCircleESt14default_deleteIS1_EED2Ev
FNDA:1,_ZNSt10unique_ptrIN10path_utils10LeftCircleESt14default_deleteIS1_EED2Ev
FN:355,_ZNSt10unique_ptrINSt7__cxx1118basic_stringstreamIcSt11char_traitsIcESaIcEEESt14default_deleteIS5_EED2Ev
FNDA:96,_ZNSt10unique_ptrINSt7__cxx1118basic_stringstreamIcSt11char_traitsIcESaIcEEESt14default_deleteIS5_EED2Ev
FN:355,_ZNSt10unique_ptrINSt7__cxx1112basic_stringIcSt11char_traitsIcESaIcEEESt14default_deleteIS5_EED2Ev
FNDA:381,_ZNSt10unique_ptrINSt7__cxx1112basic_stringIcSt11char_traitsIcESaIcEEESt14default_deleteIS5_EED2Ev
FN:355,_ZNSt10unique_ptrIN10path_utils8StraightESt14default_deleteIS1_EED2Ev
FNDA:2,_ZNSt10unique_ptrIN10path_utils8StraightESt14default_deleteIS1_EED2Ev
FN:355,_ZNSt10unique_ptrIN10path_utils11PathSegmentESt14default_deleteIS1_EED2Ev
FNDA:10,_ZNSt10unique_ptrIN10path_utils11PathSegmentESt14default_deleteIS1_EED2Ev
FN:355,_ZNSt10unique_ptrIN10path_utils15RightTurnAroundESt14default_deleteIS1_EED2Ev
FNDA:2,_ZNSt10unique_ptrIN10path_utils15RightTurnAroundESt14default_deleteIS1_EED2Ev
FN:355,_ZNSt10unique_ptrIN10path_utils8LeftTurnESt14default_deleteIS1_EED2Ev
FNDA:1,_ZNSt10unique_ptrIN10path_utils8LeftTurnESt14default_deleteIS1_EED2Ev
FN:355,_ZNSt10unique_ptrIN10path_utils9RightTurnESt14default_deleteIS1_EED2Ev
FNDA:1,_ZNSt10unique_ptrIN10path_utils9RightTurnESt14default_deleteIS1_EED2Ev
FN:355,_ZNSt10unique_ptrIN10path_utils14LeftTurnAroundESt14default_deleteIS1_EED2Ev
FNDA:1,_ZNSt10unique_ptrIN10path_utils14LeftTurnAroundESt14default_deleteIS1_EED2Ev
FN:355,_ZNSt10unique_ptrIN10path_utils11RightCircleESt14default_deleteIS1_EED2Ev
FNDA:1,_ZNSt10unique_ptrIN10path_utils11RightCircleESt14default_deleteIS1_EED2Ev
FN:355,_ZNSt10unique_ptrIN10path_utils3ArcESt14default_deleteIS1_EED2Ev
FNDA:1,_ZNSt10unique_ptrIN10path_utils3ArcESt14default_deleteIS1_EED2Ev
FN:413,_ZNKSt10unique_ptrINSt7__cxx1112basic_stringIcSt11char_traitsIcESaIcEEESt14default_deleteIS5_EEptEv
FNDA:0,_ZNKSt10unique_ptrINSt7__cxx1112basic_stringIcSt11char_traitsIcESaIcEEESt14default_deleteIS5_EEptEv
FN:421,_ZNKSt10unique_ptrINSt7__cxx1112basic_stringIcSt11char_traitsIcESaIcEEESt14default_deleteIS5_EE3getEv
FNDA:0,_ZNKSt10unique_ptrINSt7__cxx1112basic_stringIcSt11char_traitsIcESaIcEEESt14default_deleteIS5_EE3getEv
FN:426,_ZNSt10unique_ptrIN10path_utils11PathSegmentESt14default_deleteIS1_EE11get_deleterEv
FNDA:10,_ZNSt10unique_ptrIN10path_utils11PathSegmentESt14default_deleteIS1_EE11get_deleterEv
FN:426,_ZNSt10unique_ptrIN10path_utils8StraightESt14default_deleteIS1_EE11get_deleterEv
FNDA:2,_ZNSt10unique_ptrIN10path_utils8StraightESt14default_deleteIS1_EE11get_deleterEv
FN:426,_ZNSt10unique_ptrIN10path_utils3ArcESt14default_deleteIS1_EE11get_deleterEv
FNDA:1,_ZNSt10unique_ptrIN10path_utils3ArcESt14default_deleteIS1_EE11get_deleterEv
FN:426,_ZNSt10unique_ptrINSt7__cxx1112basic_stringIcSt11char_traitsIcESaIcEEESt14default_deleteIS5_EE11get_deleterEv
FNDA:0,_ZNSt10unique_ptrINSt7__cxx1112basic_stringIcSt11char_traitsIcESaIcEEESt14default_deleteIS5_EE11get_deleterEv
FN:426,_ZNSt10unique_ptrIN10path_utils9RightTurnESt14default_deleteIS1_EE11get_deleterEv
FNDA:1,_ZNSt10unique_ptrIN10path_utils9RightTurnESt14default_deleteIS1_EE11get_deleterEv
FN:426,_ZNSt10unique_ptrINSt7__cxx1118basic_stringstreamIcSt11char_traitsIcESaIcEEESt14default_deleteIS5_EE11get_deleterEv
FNDA:96,_ZNSt10unique_ptrINSt7__cxx1118basic_stringstreamIcSt11char_traitsIcESaIcEEESt14default_deleteIS5_EE11get_deleterEv
FN:426,_ZNSt10unique_ptrIN10path_utils11RightCircleESt14default_deleteIS1_EE11get_deleterEv
FNDA:1,_ZNSt10unique_ptrIN10path_utils11RightCircleESt14default_deleteIS1_EE11get_deleterEv
FN:426,_ZNSt10unique_ptrIN10path_utils10LeftCircleESt14default_deleteIS1_EE11get_deleterEv
FNDA:1,_ZNSt10unique_ptrIN10path_utils10LeftCircleESt14default_deleteIS1_EE11get_deleterEv
FN:426,_ZNSt10unique_ptrIN10path_utils14LeftTurnAroundESt14default_deleteIS1_EE11get_deleterEv
FNDA:1,_ZNSt10unique_ptrIN10path_utils14LeftTurnAroundESt14default_deleteIS1_EE11get_deleterEv
FN:426,_ZNSt10unique_ptrIN10path_utils8LeftTurnESt14default_deleteIS1_EE11get_deleterEv
FNDA:1,_ZNSt10unique_ptrIN10path_utils8LeftTurnESt14default_deleteIS1_EE11get_deleterEv
FN:426,_ZNSt10unique_ptrIN10path_utils15RightTurnAroundESt14default_deleteIS1_EE11get_deleterEv
FNDA:2,_ZNSt10unique_ptrIN10path_utils15RightTurnAroundESt14default_deleteIS1_EE11get_deleterEv
FN:442,_ZNSt10unique_ptrIN10path_utils8StraightESt14default_deleteIS1_EE7releaseEv
FNDA:2,_ZNSt10unique_ptrIN10path_utils8StraightESt14default_deleteIS1_EE7releaseEv
FN:442,_ZNSt10unique_ptrIN10path_utils11RightCircleESt14default_deleteIS1_EE7releaseEv
FNDA:1,_ZNSt10unique_ptrIN10path_utils11RightCircleESt14default_deleteIS1_EE7releaseEv
FN:442,_ZNSt10unique_ptrIN10path_utils10LeftCircleESt14default_deleteIS1_EE7releaseEv
FNDA:1,_ZNSt10unique_ptrIN10path_utils10LeftCircleESt14default_deleteIS1_EE7releaseEv
FN:442,_ZNSt10unique_ptrIN10path_utils14LeftTurnAroundESt14default_deleteIS1_EE7releaseEv
FNDA:1,_ZNSt10unique_ptrIN10path_utils14LeftTurnAroundESt14default_deleteIS1_EE7releaseEv
FN:442,_ZNSt10unique_ptrIN10path_utils8LeftTurnESt14default_deleteIS1_EE7releaseEv
FNDA:1,_ZNSt10unique_ptrIN10path_utils8LeftTurnESt14default_deleteIS1_EE7releaseEv
FN:442,_ZNSt10unique_ptrIN10path_utils15RightTurnAroundESt14default_deleteIS1_EE7releaseEv
FNDA:2,_ZNSt10unique_ptrIN10path_utils15RightTurnAroundESt14default_deleteIS1_EE7releaseEv
FN:442,_ZNSt10unique_ptrIN10path_utils3ArcESt14default_deleteIS1_EE7releaseEv
FNDA:1,_ZNSt10unique_ptrIN10path_utils3ArcESt14default_deleteIS1_EE7releaseEv
FN:442,_ZNSt10unique_ptrIN10path_utils9RightTurnESt14default_deleteIS1_EE7releaseEv
FNDA:1,_ZNSt10unique_ptrIN10path_utils9RightTurnESt14default_deleteIS1_EE7releaseEv
FN:961,_ZSt11make_uniqueIN10path_utils8StraightEJdEENSt9_MakeUniqIT_E15__single_objectEDpOT0_
FNDA:1,_ZSt11make_uniqueIN10path_utils8StraightEJdEENSt9_MakeUniqIT_E15__single_objectEDpOT0_
FN:961,_ZSt11make_uniqueIN10path_utils8StraightEJRKdEENSt9_MakeUniqIT_E15__single_objectEDpOT0_
FNDA:1,_ZSt11make_uniqueIN10path_utils8StraightEJRKdEENSt9_MakeUniqIT_E15__single_objectEDpOT0_
FN:961,_ZSt11make_uniqueIN10path_utils15RightTurnAroundEJRKdEENSt9_MakeUniqIT_E15__single_objectEDpOT0_
FNDA:1,_ZSt11make_uniqueIN10path_utils15RightTurnAroundEJRKdEENSt9_MakeUniqIT_E15__single_objectEDpOT0_
FN:961,_ZSt11make_uniqueIN10path_utils3ArcEJddEENSt9_MakeUniqIT_E15__single_objectEDpOT0_
FNDA:1,_ZSt11make_uniqueIN10path_utils3ArcEJddEENSt9_MakeUniqIT_E15__single_objectEDpOT0_
FN:961,_ZSt11make_uniqueIN10path_utils8LeftTurnEJdEENSt9_MakeUniqIT_E15__single_objectEDpOT0_
FNDA:1,_ZSt11make_uniqueIN10path_utils8LeftTurnEJdEENSt9_MakeUniqIT_E15__single_objectEDpOT0_
FN:961,_ZSt11make_uniqueIN10path_utils9RightTurnEJdEENSt9_MakeUniqIT_E15__single_objectEDpOT0_
FNDA:1,_ZSt11make_uniqueIN10path_utils9RightTurnEJdEENSt9_MakeUniqIT_E15__single_objectEDpOT0_
FN:961,_ZSt11make_uniqueIN10path_utils14LeftTurnAroundEJdEENSt9_MakeUniqIT_E15__single_objectEDpOT0_
FNDA:1,_ZSt11make_uniqueIN10path_utils14LeftTurnAroundEJdEENSt9_MakeUniqIT_E15__single_objectEDpOT0_
FN:961,_ZSt11make_uniqueIN10path_utils15RightTurnAroundEJdEENSt9_MakeUniqIT_E15__single_objectEDpOT0_
FNDA:1,_ZSt11make_uniqueIN10path_utils15RightTurnAroundEJdEENSt9_MakeUniqIT_E15__single_objectEDpOT0_
FN:961,_ZSt11make_uniqueIN10path_utils10LeftCircleEJdEENSt9_MakeUniqIT_E15__single_objectEDpOT0_
FNDA:1,_ZSt11make_uniqueIN10path_utils10LeftCircleEJdEENSt9_MakeUniqIT_E15__single_objectEDpOT0_
FN:961,_ZSt11make_uniqueIN10path_utils11RightCircleEJdEENSt9_MakeUniqIT_E15__single_objectEDpOT0_
FNDA:1,_ZSt11make_uniqueIN10path_utils11RightCircleEJdEENSt9_MakeUniqIT_E15__single_objectEDpOT0_
DA:75,1
DA:75,1
DA:75,1
DA:75,1
DA:75,1
DA:75,1
DA:75,2
DA:75,2
DA:79,0
DA:85,0
DA:86,0
DA:79,0
DA:85,0
DA:86,0
DA:79,0
DA:85,0
DA:86,0
DA:79,0
DA:85,0
DA:86,0
DA:79,0
DA:85,0
DA:86,0
DA:79,0
DA:85,0
DA:86,0
DA:79,0
DA:85,0
DA:86,0
DA:79,10
DA:85,10
DA:86,10
DA:79,0
DA:85,0
DA:86,0
DA:79,0
DA:85,0
DA:86,0
DA:79,96
DA:85,96
DA:86,96
DA:155,1
DA:155,1
DA:155,1
DA:155,1
DA:155,1
DA:155,1
DA:155,2
DA:155,2
DA:158,1
DA:159,1
DA:158,1
DA:159,1
DA:158,1
DA:159,1
DA:158,1
DA:159,1
DA:158,1
DA:159,1
DA:158,1
DA:159,1
DA:158,2
DA:159,2
DA:158,2
DA:159,2
DA:172,4
DA:172,4
DA:172,4
DA:172,4
DA:172,4
DA:172,4
DA:172,8
DA:172,10
DA:172,8
DA:172,381
DA:172,192
DA:173,0
DA:174,1
DA:174,1
DA:174,1
DA:174,1
DA:174,1
DA:174,1
DA:174,2
DA:174,10
DA:174,2
DA:174,0
DA:174,96
DA:185,1
DA:187,1
DA:188,1
DA:189,1
DA:185,1
DA:187,1
DA:188,1
DA:189,1
DA:185,1
DA:187,1
DA:188,1
DA:189,1
DA:185,1
DA:187,1
DA:188,1
DA:189,1
DA:185,1
DA:187,1
DA:188,1
DA:189,1
DA:185,1
DA:187,1
DA:188,1
DA:189,1
DA:185,2
DA:187,2
DA:188,2
DA:189,2
DA:185,2
DA:187,2
DA:188,2
DA:189,2
DA:281,1
DA:282,1
DA:283,1
DA:281,1
DA:282,1
DA:283,1
DA:281,1
DA:282,1
DA:283,1
DA:281,1
DA:282,1
DA:283,1
DA:281,1
DA:282,1
DA:283,1
DA:281,1
DA:282,1
DA:283,1
DA:281,2
DA:282,2
DA:283,2
DA:281,2
DA:282,2
DA:283,2
DA:340,1
DA:341,1
DA:342,1
DA:340,1
DA:341,1
DA:342,1
DA:340,1
DA:341,1
DA:342,1
DA:340,1
DA:341,1
DA:342,1
DA:340,1
DA:341,1
DA:342,1
DA:340,1
DA:341,1
DA:342,1
DA:340,2
DA:341,2
DA:342,2
DA:340,2
DA:341,2
DA:342,2
DA:355,1
DA:359,1
DA:360,1
DA:361,0
DA:362,1
DA:363,1
DA:355,1
DA:359,1
DA:360,1
DA:361,0
DA:362,1
DA:363,1
DA:355,1
DA:359,1
DA:360,1
DA:361,0
DA:362,1
DA:363,1
DA:355,1
DA:359,1
DA:360,1
DA:361,0
DA:362,1
DA:363,1
DA:355,1
DA:359,1
DA:360,1
DA:361,0
DA:362,1
DA:363,1
DA:355,1
DA:359,1
DA:360,1
DA:361,0
DA:362,1
DA:363,1
DA:355,2
DA:359,2
DA:360,2
DA:361,0
DA:362,2
DA:363,2
DA:355,10
DA:359,10
DA:360,10
DA:361,10
DA:362,10
DA:363,10
DA:355,2
DA:359,2
DA:360,2
DA:361,0
DA:362,2
DA:363,2
DA:355,381
DA:359,381
DA:360,381
DA:361,0
DA:362,381
DA:363,381
DA:355,96
DA:359,96
DA:360,96
DA:361,96
DA:362,96
DA:363,96
DA:413,0
DA:416,0
DA:421,0
DA:422,0
DA:426,1
DA:427,1
DA:426,1
DA:427,1
DA:426,1
DA:427,1
DA:426,1
DA:427,1
DA:426,1
DA:427,1
DA:426,1
DA:427,1
DA:426,2
DA:427,2
DA:426,10
DA:427,10
DA:426,2
DA:427,2
DA:426,0
DA:427,0
DA:426,96
DA:427,96
DA:442,1
DA:443,1
DA:442,1
DA:443,1
DA:442,1
DA:443,1
DA:442,1
DA:443,1
DA:442,1
DA:443,1
DA:442,1
DA:443,1
DA:442,2
DA:443,2
DA:442,2
DA:443,2
DA:961,1
DA:962,1
DA:961,1
DA:962,1
DA:961,1
DA:962,1
DA:961,1
DA:962,1
DA:961,1
DA:962,1
DA:961,1
DA:962,1
DA:961,1
DA:962,1
DA:961,1
DA:962,1
DA:961,1
DA:962,1
DA:961,1
DA:962,1
end_of_record
SF:/usr/include/c++/11/bits/char_traits.h
FN:106,_ZN9__gnu_cxx11char_traitsIcE2eqERKcS3_
FNDA:0,_ZN9__gnu_cxx11char_traitsIcE2eqERKcS3_
FN:167,_ZN9__gnu_cxx11char_traitsIcE6lengthEPKc
FNDA:0,_ZN9__gnu_cxx11char_traitsIcE6lengthEPKc
FN:364,_ZNSt11char_traitsIcE2ltERKcS2_
FNDA:0,_ZNSt11char_traitsIcE2ltERKcS2_
FN:372,_ZNSt11char_traitsIcE7compareEPKcS2_m
FNDA:400,_ZNSt11char_traitsIcE7compareEPKcS2_m
FN:393,_ZNSt11char_traitsIcE6lengthEPKc
FNDA:379,_ZNSt11char_traitsIcE6lengthEPKc
DA:106,0
DA:107,0
DA:167,0
DA:170,0
DA:171,0
DA:172,0
DA:173,0
DA:290,379
DA:364,0
DA:367,0
DA:368,0
DA:372,400
DA:374,400
DA:375,0
DA:377,400
DA:379,400
DA:381,0
DA:382,0
DA:383,0
DA:384,0
DA:385,0
DA:386,0
DA:389,400
DA:393,379
DA:396,379
DA:397,0
DA:399,379
end_of_record
SF:/usr/include/c++/11/tuple
FN:80,_ZNSt10_Head_baseILm1ESt14default_deleteIN10path_utils3ArcEELb1EEC2Ev
FNDA:1,_ZNSt10_Head_baseILm1ESt14default_deleteIN10path_utils3ArcEELb1EEC2Ev
FN:80,_ZNSt10_Head_baseILm1ESt14default_deleteIN10path_utils11RightCircleEELb1EEC2Ev
FNDA:1,_ZNSt10_Head_baseILm1ESt14default_deleteIN10path_utils11RightCircleEELb1EEC2Ev
FN:80,_ZNSt10_Head_baseILm1ESt14default_deleteIN10path_utils10LeftCircleEELb1EEC2Ev
FNDA:1,_ZNSt10_Head_baseILm1ESt14default_deleteIN10path_utils10LeftCircleEELb1EEC2Ev
FN:80,_ZNSt10_Head_baseILm1ESt14default_deleteIN10path_utils14LeftTurnAroundEELb1EEC2Ev
FNDA:1,_ZNSt10_Head_baseILm1ESt14default_deleteIN10path_utils14LeftTurnAroundEELb1EEC2Ev
FN:80,_ZNSt10_Head_baseILm1ESt14default_deleteIN10path_utils9RightTurnEELb1EEC2Ev
FNDA:1,_ZNSt10_Head_baseILm1ESt14default_deleteIN10path_utils9RightTurnEELb1EEC2Ev
FN:80,_ZNSt10_Head_baseILm1ESt14default_deleteIN10path_utils8LeftTurnEELb1EEC2Ev
FNDA:1,_ZNSt10_Head_baseILm1ESt14default_deleteIN10path_utils8LeftTurnEELb1EEC2Ev
FN:80,_ZNSt10_Head_baseILm1ESt14default_deleteIN10path_utils15RightTurnAroundEELb1EEC2Ev
FNDA:2,_ZNSt10_Head_baseILm1ESt14default_deleteIN10path_utils15RightTurnAroundEELb1EEC2Ev
FN:80,_ZNSt10_Head_baseILm1ESt14default_deleteIN10path_utils8StraightEELb1EEC2Ev
FNDA:2,_ZNSt10_Head_baseILm1ESt14default_deleteIN10path_utils8StraightEELb1EEC2Ev
FN:90,_ZNSt10_Head_baseILm1ESt14default_deleteIN10path_utils11PathSegmentEELb1EEC2IS0_INS1_10LeftCircleEEEEOT_
FNDA:1,_ZNSt10_Head_baseILm1ESt14default_deleteIN10path_utils11PathSegmentEELb1EEC2IS0_INS1_10LeftCircleEEEEOT_
FN:90,_ZNSt10_Head_baseILm1ESt14default_deleteIN10path_utils11PathSegmentEELb1EEC2IS0_INS1_15RightTurnAroundEEEEOT_
FNDA:2,_ZNSt10_Head_baseILm1ESt14default_deleteIN10path_utils11PathSegmentEELb1EEC2IS0_INS1_15RightTurnAroundEEEEOT_
FN:90,_ZNSt10_Head_baseILm1ESt14default_deleteIN10path_utils11PathSegmentEELb1EEC2IS0_INS1_8StraightEEEEOT_
FNDA:2,_ZNSt10_Head_baseILm1ESt14default_deleteIN10path_utils11PathSegmentEELb1EEC2IS0_INS1_8StraightEEEEOT_
FN:90,_ZNSt10_Head_baseILm1ESt14default_deleteIN10path_utils11PathSegmentEELb1EEC2IS0_INS1_8LeftTurnEEEEOT_
FNDA:1,_ZNSt10_Head_baseILm1ESt14default_deleteIN10path_utils11PathSegmentEELb1EEC2IS0_INS1_8LeftTurnEEEEOT_
FN:90,_ZNSt10_Head_baseILm1ESt14default_deleteIN10path_utils11PathSegmentEELb1EEC2IS0_INS1_9RightTurnEEEEOT_
FNDA:1,_ZNSt10_Head_baseILm1ESt14default_deleteIN10path_utils11PathSegmentEELb1EEC2IS0_INS1_9RightTurnEEEEOT_
FN:90,_ZNSt10_Head_baseILm1ESt14default_deleteIN10path_utils11PathSegmentEELb1EEC2IS0_INS1_14LeftTurnAroundEEEEOT_
FNDA:1,_ZNSt10_Head_baseILm1ESt14default_deleteIN10path_utils11PathSegmentEELb1EEC2IS0_INS1_14LeftTurnAroundEEEEOT_
FN:90,_ZNSt10_Head_baseILm1ESt14default_deleteIN10path_utils11PathSegmentEELb1EEC2IS0_INS1_11RightCircleEEEEOT_
FNDA:1,_ZNSt10_Head_baseILm1ESt14default_deleteIN10path_utils11PathSegmentEELb1EEC2IS0_INS1_11RightCircleEEEEOT_
FN:90,_ZNSt10_Head_baseILm1ESt14default_deleteIN10path_utils11PathSegmentEELb1EEC2IS0_INS1_3ArcEEEEOT_
FNDA:1,_ZNSt10_Head_baseILm1ESt14default_deleteIN10path_utils11PathSegmentEELb1EEC2IS0_INS1_3ArcEEEEOT_
FN:124,_ZNSt10_Head_baseILm1ESt14default_deleteINSt7__cxx1112basic_stringIcSt11char_traitsIcESaIcEEEELb1EE7_M_headERS8_
FNDA:0,_ZNSt10_Head_baseILm1ESt14default_deleteINSt7__cxx1112basic_stringIcSt11char_traitsIcESaIcEEEELb1EE7_M_headERS8_
FN:124,_ZNSt10_Head_baseILm1ESt14default_deleteIN10path_utils3ArcEELb1EE7_M_headERS4_
FNDA:1,_ZNSt10_Head_baseILm1ESt14default_deleteIN10path_utils3ArcEELb1EE7_M_headERS4_
FN:124,_ZNSt10_Head_baseILm1ESt14default_deleteIN10path_utils11RightCircleEELb1EE7_M_headERS4_
FNDA:1,_ZNSt10_Head_baseILm1ESt14default_deleteIN10path_utils11RightCircleEELb1EE7_M_headERS4_
FN:124,_ZNSt10_Head_baseILm1ESt14default_deleteIN10path_utils10LeftCircleEELb1EE7_M_headERS4_
FNDA:1,_ZNSt10_Head_baseILm1ESt14default_deleteIN10path_utils10LeftCircleEELb1EE7_M_headERS4_
FN:124,_ZNSt10_Head_baseILm1ESt14default_deleteIN10path_utils14LeftTurnAroundEELb1EE7_M_headERS4_
FNDA:1,_ZNSt10_Head_baseILm1ESt14default_deleteIN10path_utils14LeftTurnAroundEELb1EE7_M_headERS4_
FN:124,_ZNSt10_Head_baseILm1ESt14default_deleteIN10path_utils9RightTurnEELb1EE7_M_headERS4_
FNDA:1,_ZNSt10_Head_baseILm1ESt14default_deleteIN10path_utils9RightTurnEELb1EE7_M_headERS4_
FN:124,_ZNSt10_Head_baseILm1ESt14default_deleteIN10path_utils8StraightEELb1EE7_M_headERS4_
FNDA:2,_ZNSt10_Head_baseILm1ESt14default_deleteIN10path_utils8StraightEELb1EE7_M_headERS4_
FN:124,_ZNSt10_Head_baseILm1ESt14default_deleteIN10path_utils15RightTurnAroundEELb1EE7_M_headERS4_
FNDA:2,_ZNSt10_Head_baseILm1ESt14default_deleteIN10path_utils15RightTurnAroundEELb1EE7_M_headERS4_
FN:124,_ZNSt10_Head_baseILm1ESt14default_deleteIN10path_utils11PathSegmentEELb1EE7_M_headERS4_
FNDA:10,_ZNSt10_Head_baseILm1ESt14default_deleteIN10path_utils11PathSegmentEELb1EE7_M_headERS4_
FN:124,_ZNSt10_Head_baseILm1ESt14default_deleteIN10path_utils8LeftTurnEELb1EE7_M_headERS4_
FNDA:1,_ZNSt10_Head_baseILm1ESt14default_deleteIN10path_utils8LeftTurnEELb1EE7_M_headERS4_
FN:124,_ZNSt10_Head_baseILm1ESt14default_deleteINSt7__cxx1118basic_stringstreamIcSt11char_traitsIcESaIcEEEELb1EE7_M_headERS8_
FNDA:96,_ZNSt10_Head_baseILm1ESt14default_deleteINSt7__cxx1118basic_stringstreamIcSt11char_traitsIcESaIcEEEELb1EE7_M_headERS8_
FN:189,_ZNSt10_Head_baseILm0EPN10path_utils8StraightELb0EEC2Ev
FNDA:2,_ZNSt10_Head_baseILm0EPN10path_utils8StraightELb0EEC2Ev
FN:189,_ZNSt10_Head_baseILm0EPN10path_utils3ArcELb0EEC2Ev
FNDA:1,_ZNSt10_Head_baseILm0EPN10path_utils3ArcELb0EEC2Ev
FN:189,_ZNSt10_Head_baseILm0EPN10path_utils9RightTurnELb0EEC2Ev
FNDA:1,_ZNSt10_Head_baseILm0EPN10path_utils9RightTurnELb0EEC2Ev
FN:189,_ZNSt10_Head_baseILm0EPN10path_utils14LeftTurnAroundELb0EEC2Ev
FNDA:1,_ZNSt10_Head_baseILm0EPN10path_utils14LeftTurnAroundELb0EEC2Ev
FN:189,_ZNSt10_Head_baseILm0EPN10path_utils15RightTurnAroundELb0EEC2Ev
FNDA:2,_ZNSt10_Head_baseILm0EPN10path_utils15RightTurnAroundELb0EEC2Ev
FN:189,_ZNSt10_Head_baseILm0EPN10path_utils11RightCircleELb0EEC2Ev
FNDA:1,_ZNSt10_Head_baseILm0EPN10path_utils11RightCircleELb0EEC2Ev
FN:189,_ZNSt10_Head_baseILm0EPN10path_utils8LeftTurnELb0EEC2Ev
FNDA:1,_ZNSt10_Head_baseILm0EPN10path_utils8LeftTurnELb0EEC2Ev
FN:189,_ZNSt10_Head_baseILm0EPN10path_utils10LeftCircleELb0EEC2Ev
FNDA:1,_ZNSt10_Head_baseILm0EPN10path_utils10LeftCircleELb0EEC2Ev
FN:199,_ZNSt10_Head_baseILm0EPN10path_utils11PathSegmentELb0EEC2IRS2_EEOT_
FNDA:10,_ZNSt10_Head_baseILm0EPN10path_utils11PathSegmentELb0EEC2IRS2_EEOT_
FN:233,_ZNSt10_Head_baseILm0EPNSt7__cxx1118basic_stringstreamIcSt11char_traitsIcESaIcEEELb0EE7_M_headERS7_
FNDA:192,_ZNSt10_Head_baseILm0EPNSt7__cxx1118basic_stringstreamIcSt11char_traitsIcESaIcEEELb0EE7_M_headERS7_
FN:233,_ZNSt10_Head_baseILm0EPN10path_utils15RightTurnAroundELb0EE7_M_headERS3_
FNDA:8,_ZNSt10_Head_baseILm0EPN10path_utils15RightTurnAroundELb0EE7_M_headERS3_
FN:233,_ZNSt10_Head_baseILm0EPN10path_utils8LeftTurnELb0EE7_M_headERS3_
FNDA:4,_ZNSt10_Head_baseILm0EPN10path_utils8LeftTurnELb0EE7_M_headERS3_
FN:233,_ZNSt10_Head_baseILm0EPNSt7__cxx1112basic_stringIcSt11char_traitsIcESaIcEEELb0EE7_M_headERS7_
FNDA:381,_ZNSt10_Head_baseILm0EPNSt7__cxx1112basic_stringIcSt11char_traitsIcESaIcEEELb0EE7_M_headERS7_
FN:233,_ZNSt10_Head_baseILm0EPN10path_utils11PathSegmentELb0EE7_M_headERS3_
FNDA:10,_ZNSt10_Head_baseILm0EPN10path_utils11PathSegmentELb0EE7_M_headERS3_
FN:233,_ZNSt10_Head_baseILm0EPN10path_utils8StraightELb0EE7_M_headERS3_
FNDA:8,_ZNSt10_Head_baseILm0EPN10path_utils8StraightELb0EE7_M_headERS3_
FN:233,_ZNSt10_Head_baseILm0EPN10path_utils9RightTurnELb0EE7_M_headERS3_
FNDA:4,_ZNSt10_Head_baseILm0EPN10path_utils9RightTurnELb0EE7_M_headERS3_
FN:233,_ZNSt10_Head_baseILm0EPN10path_utils3ArcELb0EE7_M_headERS3_
FNDA:4,_ZNSt10_Head_baseILm0EPN10path_utils3ArcELb0EE7_M_headERS3_
FN:233,_ZNSt10_Head_baseILm0EPN10path_utils14LeftTurnAroundELb0EE7_M_headERS3_
FNDA:4,_ZNSt10_Head_baseILm0EPN10path_utils14LeftTurnAroundELb0EE7_M_headERS3_
FN:233,_ZNSt10_Head_baseILm0EPN10path_utils10LeftCircleELb0EE7_M_headERS3_
FNDA:4,_ZNSt10_Head_baseILm0EPN10path_utils10LeftCircleELb0EE7_M_headERS3_
FN:233,_ZNSt10_Head_baseILm0EPN10path_utils11RightCircleELb0EE7_M_headERS3_
FNDA:4,_ZNSt10_Head_baseILm0EPN10path_utils11RightCircleELb0EE7_M_headERS3_
FN:236,_ZNSt10_Head_baseILm0EPNSt7__cxx1112basic_stringIcSt11char_traitsIcESaIcEEELb0EE7_M_headERKS7_
FNDA:0,_ZNSt10_Head_baseILm0EPNSt7__cxx1112basic_stringIcSt11char_traitsIcESaIcEEELb0EE7_M_headERKS7_
FN:268,_ZNSt11_Tuple_implILm0EJPN10path_utils14LeftTurnAroundESt14default_deleteIS1_EEE7_M_headERS5_
FNDA:4,_ZNSt11_Tuple_implILm0EJPN10path_utils14LeftTurnAroundESt14default_deleteIS1_EEE7_M_headERS5_
FN:268,_ZNSt11_Tuple_implILm0EJPNSt7__cxx1118basic_stringstreamIcSt11char_traitsIcESaIcEEESt14default_deleteIS5_EEE7_M_headERS9_
FNDA:192,_ZNSt11_Tuple_implILm0EJPNSt7__cxx1118basic_stringstreamIcSt11char_traitsIcESaIcEEESt14default_deleteIS5_EEE7_M_headERS9_
FN:268,_ZNSt11_Tuple_implILm0EJPNSt7__cxx1112basic_stringIcSt11char_traitsIcESaIcEEESt14default_deleteIS5_EEE7_M_headERS9_
FNDA:381,_ZNSt11_Tuple_implILm0EJPNSt7__cxx1112basic_stringIcSt11char_traitsIcESaIcEEESt14default_deleteIS5_EEE7_M_headERS9_
FN:268,_ZNSt11_Tuple_implILm0EJPN10path_utils8StraightESt14default_deleteIS1_EEE7_M_headERS5_
FNDA:8,_ZNSt11_Tuple_implILm0EJPN10path_utils8StraightESt14default_deleteIS1_EEE7_M_headERS5_
FN:268,_ZNSt11_Tuple_implILm0EJPN10path_utils11PathSegmentESt14default_deleteIS1_EEE7_M_headERS5_
FNDA:10,_ZNSt11_Tuple_implILm0EJPN10path_utils11PathSegmentESt14default_deleteIS1_EEE7_M_headERS5_
FN:268,_ZNSt11_Tuple_implILm0EJPN10path_utils15RightTurnAroundESt14default_deleteIS1_EEE7_M_headERS5_
FNDA:8,_ZNSt11_Tuple_implILm0EJPN10path_utils15RightTurnAroundESt14default_deleteIS1_EEE7_M_headERS5_
FN:268,_ZNSt11_Tuple_implILm0EJPN10path_utils3ArcESt14default_deleteIS1_EEE7_M_headERS5_
FNDA:4,_ZNSt11_Tuple_implILm0EJPN10path_utils3ArcESt14default_deleteIS1_EEE7_M_headERS5_
FN:268,_ZNSt11_Tuple_implILm0EJPN10path_utils8LeftTurnESt14default_deleteIS1_EEE7_M_headERS5_
FNDA:4,_ZNSt11_Tuple_implILm0EJPN10path_utils8LeftTurnESt14default_deleteIS1_EEE7_M_headERS5_
FN:268,_ZNSt11_Tuple_implILm0EJPN10path_utils11RightCircleESt14default_deleteIS1_EEE7_M_headERS5_
FNDA:4,_ZNSt11_Tuple_implILm0EJPN10path_utils11RightCircleESt14default_deleteIS1_EEE7_M_headERS5_
FN:268,_ZNSt11_Tuple_implILm0EJPN10path_utils10LeftCircleESt14default_deleteIS1_EEE7_M_headERS5_
FNDA:4,_ZNSt11_Tuple_implILm0EJPN10path_utils10LeftCircleESt14default_deleteIS1_EEE7_M_headERS5_
FN:268,_ZNSt11_Tuple_implILm0EJPN10path_utils9RightTurnESt14default_deleteIS1_EEE7_M_headERS5_
FNDA:4,_ZNSt11_Tuple_implILm0EJPN10path_utils9RightTurnESt14default_deleteIS1_EEE7_M_headERS5_
FN:271,_ZNSt11_Tuple_implILm0EJPNSt7__cxx1112basic_stringIcSt11char_traitsIcESaIcEEESt14default_deleteIS5_EEE7_M_headERKS9_
FNDA:0,_ZNSt11_Tuple_implILm0EJPNSt7__cxx1112basic_stringIcSt11char_traitsIcESaIcEEESt14default_deleteIS5_EEE7_M_headERKS9_
FN:279,_ZNSt11_Tuple_implILm0EJPN10path_utils8LeftTurnESt14default_deleteIS1_EEEC2Ev
FNDA:1,_ZNSt11_Tuple_implILm0EJPN10path_utils8LeftTurnESt14default_deleteIS1_EEEC2Ev
FN:279,_ZNSt11_Tuple_implILm0EJPN10path_utils15RightTurnAroundESt14default_deleteIS1_EEEC2Ev
FNDA:2,_ZNSt11_Tuple_implILm0EJPN10path_utils15RightTurnAroundESt14default_deleteIS1_EEEC2Ev
FN:279,_ZNSt11_Tuple_implILm0EJPN10path_utils9RightTurnESt14default_deleteIS1_EEEC2Ev
FNDA:1,_ZNSt11_Tuple_implILm0EJPN10path_utils9RightTurnESt14default_deleteIS1_EEEC2Ev
FN:279,_ZNSt11_Tuple_implILm0EJPN10path_utils14LeftTurnAroundESt14default_deleteIS1_EEEC2Ev
FNDA:1,_ZNSt11_Tuple_implILm0EJPN10path_utils14LeftTurnAroundESt14default_deleteIS1_EEEC2Ev
FN:279,_ZNSt11_Tuple_implILm0EJPN10path_utils10LeftCircleESt14default_deleteIS1_EEEC2Ev
FNDA:1,_ZNSt11_Tuple_implILm0EJPN10path_utils10LeftCircleESt14default_deleteIS1_EEEC2Ev
FN:279,_ZNSt11_Tuple_implILm0EJPN10path_utils8StraightESt14default_deleteIS1_EEEC2Ev
FNDA:2,_ZNSt11_Tuple_implILm0EJPN10path_utils8StraightESt14default_deleteIS1_EEEC2Ev
FN:279,_ZNSt11_Tuple_implILm0EJPN10path_utils11RightCircleESt14default_deleteIS1_EEEC2Ev
FNDA:1,_ZNSt11_Tuple_implILm0EJPN10path_utils11RightCircleESt14default_deleteIS1_EEEC2Ev
FN:279,_ZNSt11_Tuple_implILm0EJPN10path_utils3ArcESt14default_deleteIS1_EEEC2Ev
FNDA:1,_ZNSt11_Tuple_implILm0EJPN10path_utils3ArcESt14default_deleteIS1_EEEC2Ev
FN:290,_ZNSt11_Tuple_implILm0EJPN10path_utils11PathSegmentESt14default_deleteIS1_EEEC2IRS2_JS3_INS0_8StraightEEEvEEOT_DpOT0_
FNDA:2,_ZNSt11_Tuple_implILm0EJPN10path_utils11PathSegmentESt14default_deleteIS1_EEEC2IRS2_JS3_INS0_8StraightEEEvEEOT_DpOT0_
FN:290,_ZNSt11_Tuple_implILm0EJPN10path_utils11PathSegmentESt14default_deleteIS1_EEEC2IRS2_JS3_INS0_3ArcEEEvEEOT_DpOT0_
FNDA:1,_ZNSt11_Tuple_implILm0EJPN10path_utils11PathSegmentESt14default_deleteIS1_EEEC2IRS2_JS3_INS0_3ArcEEEvEEOT_DpOT0_
FN:290,_ZNSt11_Tuple_implILm0EJPN10path_utils11PathSegmentESt14default_deleteIS1_EEEC2IRS2_JS3_INS0_11RightCircleEEEvEEOT_DpOT0_
FNDA:1,_ZNSt11_Tuple_implILm0EJPN10path_utils11PathSegmentESt14default_deleteIS1_EEEC2IRS2_JS3_INS0_11RightCircleEEEvEEOT_DpOT0_
FN:290,_ZNSt11_Tuple_implILm0EJPN10path_utils11PathSegmentESt14default_deleteIS1_EEEC2IRS2_JS3_INS0_14LeftTurnAroundEEEvEEOT_DpOT0_
FNDA:1,_ZNSt11_Tuple_implILm0EJPN10path_utils11PathSegmentESt14default_deleteIS1_EEEC2IRS2_JS3_INS0_14LeftTurnAroundEEEvEEOT_DpOT0_
FN:290,_ZNSt11_Tuple_implILm0EJPN10path_utils11PathSegmentESt14default_deleteIS1_EEEC2IRS2_JS3_INS0_9RightTurnEEEvEEOT_DpOT0_
FNDA:1,_ZNSt11_Tuple_implILm0EJPN10path_utils11PathSegmentESt14default_deleteIS1_EEEC2IRS2_JS3_INS0_9RightTurnEEEvEEOT_DpOT0_
FN:290,_ZNSt11_Tuple_implILm0EJPN10path_utils11PathSegmentESt14default_deleteIS1_EEEC2IRS2_JS3_INS0_8LeftTurnEEEvEEOT_DpOT0_
FNDA:1,_ZNSt11_Tuple_implILm0EJPN10path_utils11PathSegmentESt14default_deleteIS1_EEEC2IRS2_JS3_INS0_8LeftTurnEEEvEEOT_DpOT0_
FN:290,_ZNSt11_Tuple_implILm0EJPN10path_utils11PathSegmentESt14default_deleteIS1_EEEC2IRS2_JS3_INS0_15RightTurnAroundEEEvEEOT_DpOT0_
FNDA:2,_ZNSt11_Tuple_implILm0EJPN10path_utils11PathSegmentESt14default_deleteIS1_EEEC2IRS2_JS3_INS0_15RightTurnAroundEEEvEEOT_DpOT0_
FN:290,_ZNSt11_Tuple_implILm0EJPN10path_utils11PathSegmentESt14default_deleteIS1_EEEC2IRS2_JS3_INS0_10LeftCircleEEEvEEOT_DpOT0_
FNDA:1,_ZNSt11_Tuple_implILm0EJPN10path_utils11PathSegmentESt14default_deleteIS1_EEEC2IRS2_JS3_INS0_10LeftCircleEEEvEEOT_DpOT0_
FN:424,_ZNSt11_Tuple_implILm1EJSt14default_deleteIN10path_utils11RightCircleEEEE7_M_headERS4_
FNDA:1,_ZNSt11_Tuple_implILm1EJSt14default_deleteIN10path_utils11RightCircleEEEE7_M_headERS4_
FN:424,_ZNSt11_Tuple_implILm1EJSt14default_deleteIN10path_utils14LeftTurnAroundEEEE7_M_headERS4_
FNDA:1,_ZNSt11_Tuple_implILm1EJSt14default_deleteIN10path_utils14LeftTurnAroundEEEE7_M_headERS4_
FN:424,_ZNSt11_Tuple_implILm1EJSt14default_deleteIN10path_utils11PathSegmentEEEE7_M_headERS4_
FNDA:10,_ZNSt11_Tuple_implILm1EJSt14default_deleteIN10path_utils11PathSegmentEEEE7_M_headERS4_
FN:424,_ZNSt11_Tuple_implILm1EJSt14default_deleteINSt7__cxx1112basic_stringIcSt11char_traitsIcESaIcEEEEEE7_M_headERS8_
FNDA:0,_ZNSt11_Tuple_implILm1EJSt14default_deleteINSt7__cxx1112basic_stringIcSt11char_traitsIcESaIcEEEEEE7_M_headERS8_
FN:424,_ZNSt11_Tuple_implILm1EJSt14default_deleteIN10path_utils10LeftCircleEEEE7_M_headERS4_
FNDA:1,_ZNSt11_Tuple_implILm1EJSt14default_deleteIN10path_utils10LeftCircleEEEE7_M_headERS4_
FN:424,_ZNSt11_Tuple_implILm1EJSt14default_deleteIN10path_utils9RightTurnEEEE7_M_headERS4_
FNDA:1,_ZNSt11_Tuple_implILm1EJSt14default_deleteIN10path_utils9RightTurnEEEE7_M_headERS4_
FN:424,_ZNSt11_Tuple_implILm1EJSt14default_deleteINSt7__cxx1118basic_stringstreamIcSt11char_traitsIcESaIcEEEEEE7_M_headERS8_
FNDA:96,_ZNSt11_Tuple_implILm1EJSt14default_deleteINSt7__cxx1118basic_stringstreamIcSt11char_traitsIcESaIcEEEEEE7_M_headERS8_
FN:424,_ZNSt11_Tuple_implILm1EJSt14default_deleteIN10path_utils15RightTurnAroundEEEE7_M_headERS4_
FNDA:2,_ZNSt11_Tuple_implILm1EJSt14default_deleteIN10path_utils15RightTurnAroundEEEE7_M_headERS4_
FN:424,_ZNSt11_Tuple_implILm1EJSt14default_deleteIN10path_utils8StraightEEEE7_M_headERS4_
FNDA:2,_ZNSt11_Tuple_implILm1EJSt14default_deleteIN10path_utils8StraightEEEE7_M_headERS4_
FN:424,_ZNSt11_Tuple_implILm1EJSt14default_deleteIN10path_utils8LeftTurnEEEE7_M_headERS4_
FNDA:1,_ZNSt11_Tuple_implILm1EJSt14default_deleteIN10path_utils8LeftTurnEEEE7_M_headERS4_
FN:424,_ZNSt11_Tuple_implILm1EJSt14default_deleteIN10path_utils3ArcEEEE7_M_headERS4_
FNDA:1,_ZNSt11_Tuple_implILm1EJSt14default_deleteIN10path_utils3ArcEEEE7_M_headERS4_
FN:430,_ZNSt11_Tuple_implILm1EJSt14default_deleteIN10path_utils11RightCircleEEEEC2Ev
FNDA:1,_ZNSt11_Tuple_implILm1EJSt14default_deleteIN10path_utils11RightCircleEEEEC2Ev
FN:430,_ZNSt11_Tuple_implILm1EJSt14default_deleteIN10path_utils3ArcEEEEC2Ev
FNDA:1,_ZNSt11_Tuple_implILm1EJSt14default_deleteIN10path_utils3ArcEEEEC2Ev
FN:430,_ZNSt11_Tuple_implILm1EJSt14default_deleteIN10path_utils8StraightEEEEC2Ev
FNDA:2,_ZNSt11_Tuple_implILm1EJSt14default_deleteIN10path_utils8StraightEEEEC2Ev
FN:430,_ZNSt11_Tuple_implILm1EJSt14default_deleteIN10path_utils10LeftCircleEEEEC2Ev
FNDA:1,_ZNSt11_Tuple_implILm1EJSt14default_deleteIN10path_utils10LeftCircleEEEEC2Ev
FN:430,_ZNSt11_Tuple_implILm1EJSt14default_deleteIN10path_utils14LeftTurnAroundEEEEC2Ev
FNDA:1,_ZNSt11_Tuple_implILm1EJSt14default_deleteIN10path_utils14LeftTurnAroundEEEEC2Ev
FN:430,_ZNSt11_Tuple_implILm1EJSt14default_deleteIN10path_utils15RightTurnAroundEEEEC2Ev
FNDA:2,_ZNSt11_Tuple_implILm1EJSt14default_deleteIN10path_utils15RightTurnAroundEEEEC2Ev
FN:430,_ZNSt11_Tuple_implILm1EJSt14default_deleteIN10path_utils9RightTurnEEEEC2Ev
FNDA:1,_ZNSt11_Tuple_implILm1EJSt14default_deleteIN10path_utils9RightTurnEEEEC2Ev
FN:430,_ZNSt11_Tuple_implILm1EJSt14default_deleteIN10path_utils8LeftTurnEEEEC2Ev
FNDA:1,_ZNSt11_Tuple_implILm1EJSt14default_deleteIN10path_utils8LeftTurnEEEEC2Ev
FN:440,_ZNSt11_Tuple_implILm1EJSt14default_deleteIN10path_utils11PathSegmentEEEEC2IS0_INS1_15RightTurnAroundEEEEOT_
FNDA:2,_ZNSt11_Tuple_implILm1EJSt14default_deleteIN10path_utils11PathSegmentEEEEC2IS0_INS1_15RightTurnAroundEEEEOT_
FN:440,_ZNSt11_Tuple_implILm1EJSt14default_deleteIN10path_utils11PathSegmentEEEEC2IS0_INS1_3ArcEEEEOT_
FNDA:1,_ZNSt11_Tuple_implILm1EJSt14default_deleteIN10path_utils11PathSegmentEEEEC2IS0_INS1_3ArcEEEEOT_
FN:440,_ZNSt11_Tuple_implILm1EJSt14default_deleteIN10path_utils11PathSegmentEEEEC2IS0_INS1_11RightCircleEEEEOT_
FNDA:1,_ZNSt11_Tuple_implILm1EJSt14default_deleteIN10path_utils11PathSegmentEEEEC2IS0_INS1_11RightCircleEEEEOT_
FN:440,_ZNSt11_Tuple_implILm1EJSt14default_deleteIN10path_utils11PathSegmentEEEEC2IS0_INS1_10LeftCircleEEEEOT_
FNDA:1,_ZNSt11_Tuple_implILm1EJSt14default_deleteIN10path_utils11PathSegmentEEEEC2IS0_INS1_10LeftCircleEEEEOT_
FN:440,_ZNSt11_Tuple_implILm1EJSt14default_deleteIN10path_utils11PathSegmentEEEEC2IS0_INS1_14LeftTurnAroundEEEEOT_
FNDA:1,_ZNSt11_Tuple_implILm1EJSt14default_deleteIN10path_utils11PathSegmentEEEEC2IS0_INS1_14LeftTurnAroundEEEEOT_
FN:440,_ZNSt11_Tuple_implILm1EJSt14default_deleteIN10path_utils11PathSegmentEEEEC2IS0_INS1_9RightTurnEEEEOT_
FNDA:1,_ZNSt11_Tuple_implILm1EJSt14default_deleteIN10path_utils11PathSegmentEEEEC2IS0_INS1_9RightTurnEEEEOT_
FN:440,_ZNSt11_Tuple_implILm1EJSt14default_deleteIN10path_utils11PathSegmentEEEEC2IS0_INS1_8LeftTurnEEEEOT_
FNDA:1,_ZNSt11_Tuple_implILm1EJSt14default_deleteIN10path_utils11PathSegmentEEEEC2IS0_INS1_8LeftTurnEEEEOT_
FN:440,_ZNSt11_Tuple_implILm1EJSt14default_deleteIN10path_utils11PathSegmentEEEEC2IS0_INS1_8StraightEEEEOT_
FNDA:2,_ZNSt11_Tuple_implILm1EJSt14default_deleteIN10path_utils11PathSegmentEEEEC2IS0_INS1_8StraightEEEEOT_
FN:1049,_ZNSt5tupleIJPN10path_utils15RightTurnAroundESt14default_deleteIS1_EEEC2ILb1ELb1EEEv
FNDA:2,_ZNSt5tupleIJPN10path_utils15RightTurnAroundESt14default_deleteIS1_EEEC2ILb1ELb1EEEv
FN:1049,_ZNSt5tupleIJPN10path_utils10LeftCircleESt14default_deleteIS1_EEEC2ILb1ELb1EEEv
FNDA:1,_ZNSt5tupleIJPN10path_utils10LeftCircleESt14default_deleteIS1_EEEC2ILb1ELb1EEEv
FN:1049,_ZNSt5tupleIJPN10path_utils11RightCircleESt14default_deleteIS1_EEEC2ILb1ELb1EEEv
FNDA:1,_ZNSt5tupleIJPN10path_utils11RightCircleESt14default_deleteIS1_EEEC2ILb1ELb1EEEv
FN:1049,_ZNSt5tupleIJPN10path_utils14LeftTurnAroundESt14default_deleteIS1_EEEC2ILb1ELb1EEEv
FNDA:1,_ZNSt5tupleIJPN10path_utils14LeftTurnAroundESt14default_deleteIS1_EEEC2ILb1ELb1EEEv
FN:1049,_ZNSt5tupleIJPN10path_utils9RightTurnESt14default_deleteIS1_EEEC2ILb1ELb1EEEv
FNDA:1,_ZNSt5tupleIJPN10path_utils9RightTurnESt14default_deleteIS1_EEEC2ILb1ELb1EEEv
FN:1049,_ZNSt5tupleIJPN10path_utils3ArcESt14default_deleteIS1_EEEC2ILb1ELb1EEEv
FNDA:1,_ZNSt5tupleIJPN10path_utils3ArcESt14default_deleteIS1_EEEC2ILb1ELb1EEEv
FN:1049,_ZNSt5tupleIJPN10path_utils8LeftTurnESt14default_deleteIS1_EEEC2ILb1ELb1EEEv
FNDA:1,_ZNSt5tupleIJPN10path_utils8LeftTurnESt14default_deleteIS1_EEEC2ILb1ELb1EEEv
FN:1049,_ZNSt5tupleIJPN10path_utils8StraightESt14default_deleteIS1_EEEC2ILb1ELb1EEEv
FNDA:2,_ZNSt5tupleIJPN10path_utils8StraightESt14default_deleteIS1_EEEC2ILb1ELb1EEEv
FN:1077,_ZNSt5tupleIJPN10path_utils11PathSegmentESt14default_deleteIS1_EEEC2IRS2_S3_INS0_9RightTurnEELb1EEEOT_OT0_
FNDA:1,_ZNSt5tupleIJPN10path_utils11PathSegmentESt14default_deleteIS1_EEEC2IRS2_S3_INS0_9RightTurnEELb1EEEOT_OT0_
FN:1077,_ZNSt5tupleIJPN10path_utils11PathSegmentESt14default_deleteIS1_EEEC2IRS2_S3_INS0_8LeftTurnEELb1EEEOT_OT0_
FNDA:1,_ZNSt5tupleIJPN10path_utils11PathSegmentESt14default_deleteIS1_EEEC2IRS2_S3_INS0_8LeftTurnEELb1EEEOT_OT0_
FN:1077,_ZNSt5tupleIJPN10path_utils11PathSegmentESt14default_deleteIS1_EEEC2IRS2_S3_INS0_8StraightEELb1EEEOT_OT0_
FNDA:2,_ZNSt5tupleIJPN10path_utils11PathSegmentESt14default_deleteIS1_EEEC2IRS2_S3_INS0_8StraightEELb1EEEOT_OT0_
FN:1077,_ZNSt5tupleIJPN10path_utils11PathSegmentESt14default_deleteIS1_EEEC2IRS2_S3_INS0_14LeftTurnAroundEELb1EEEOT_OT0_
FNDA:1,_ZNSt5tupleIJPN10path_utils11PathSegmentESt14default_deleteIS1_EEEC2IRS2_S3_INS0_14LeftTurnAroundEELb1EEEOT_OT0_
FN:1077,_ZNSt5tupleIJPN10path_utils11PathSegmentESt14default_deleteIS1_EEEC2IRS2_S3_INS0_10LeftCircleEELb1EEEOT_OT0_
FNDA:1,_ZNSt5tupleIJPN10path_utils11PathSegmentESt14default_deleteIS1_EEEC2IRS2_S3_INS0_10LeftCircleEELb1EEEOT_OT0_
FN:1077,_ZNSt5tupleIJPN10path_utils11PathSegmentESt14default_deleteIS1_EEEC2IRS2_S3_INS0_11RightCircleEELb1EEEOT_OT0_
FNDA:1,_ZNSt5tupleIJPN10path_utils11PathSegmentESt14default_deleteIS1_EEEC2IRS2_S3_INS0_11RightCircleEELb1EEEOT_OT0_
FN:1077,_ZNSt5tupleIJPN10path_utils11PathSegmentESt14default_deleteIS1_EEEC2IRS2_S3_INS0_3ArcEELb1EEEOT_OT0_
FNDA:1,_ZNSt5tupleIJPN10path_utils11PathSegmentESt14default_deleteIS1_EEEC2IRS2_S3_INS0_3ArcEELb1EEEOT_OT0_
FN:1077,_ZNSt5tupleIJPN10path_utils11PathSegmentESt14default_deleteIS1_EEEC2IRS2_S3_INS0_15RightTurnAroundEELb1EEEOT_OT0_
FNDA:2,_ZNSt5tupleIJPN10path_utils11PathSegmentESt14default_deleteIS1_EEEC2IRS2_S3_INS0_15RightTurnAroundEELb1EEEOT_OT0_
FN:1377,_ZSt12__get_helperILm0EPN10path_utils10LeftCircleEJSt14default_deleteIS1_EEERT0_RSt11_Tuple_implIXT_EJS5_DpT1_EE
FNDA:4,_ZSt12__get_helperILm0EPN10path_utils10LeftCircleEJSt14default_deleteIS1_EEERT0_RSt11_Tuple_implIXT_EJS5_DpT1_EE
FN:1377,_ZSt12__get_helperILm0EPNSt7__cxx1118basic_stringstreamIcSt11char_traitsIcESaIcEEEJSt14default_deleteIS5_EEERT0_RSt11_Tuple_implIXT_EJS9_DpT1_EE
FNDA:192,_ZSt12__get_helperILm0EPNSt7__cxx1118basic_stringstreamIcSt11char_traitsIcESaIcEEEJSt14default_deleteIS5_EEERT0_RSt11_Tuple_implIXT_EJS9_DpT1_EE
FN:1377,_ZSt12__get_helperILm0EPNSt7__cxx1112basic_stringIcSt11char_traitsIcESaIcEEEJSt14default_deleteIS5_EEERT0_RSt11_Tuple_implIXT_EJS9_DpT1_EE
FNDA:381,_ZSt12__get_helperILm0EPNSt7__cxx1112basic_stringIcSt11char_traitsIcESaIcEEEJSt14default_deleteIS5_EEERT0_RSt11_Tuple_implIXT_EJS9_DpT1_EE
FN:1377,_ZSt12__get_helperILm1ESt14default_deleteINSt7__cxx1112basic_stringIcSt11char_traitsIcESaIcEEEEJEERT0_RSt11_Tuple_implIXT_EJS8_DpT1_EE
FNDA:0,_ZSt12__get_helperILm1ESt14default_deleteINSt7__cxx1112basic_stringIcSt11char_traitsIcESaIcEEEEJEERT0_RSt11_Tuple_implIXT_EJS8_DpT1_EE
FN:1377,_ZSt12__get_helperILm0EPN10path_utils8StraightEJSt14default_deleteIS1_EEERT0_RSt11_Tuple_implIXT_EJS5_DpT1_EE
FNDA:8,_ZSt12__get_helperILm0EPN10path_utils8StraightEJSt14default_deleteIS1_EEERT0_RSt11_Tuple_implIXT_EJS5_DpT1_EE
FN:1377,_ZSt12__get_helperILm1ESt14default_deleteIN10path_utils10LeftCircleEEJEERT0_RSt11_Tuple_implIXT_EJS4_DpT1_EE
FNDA:1,_ZSt12__get_helperILm1ESt14default_deleteIN10path_utils10LeftCircleEEJEERT0_RSt11_Tuple_implIXT_EJS4_DpT1_EE
FN:1377,_ZSt12__get_helperILm1ESt14default_deleteIN10path_utils14LeftTurnAroundEEJEERT0_RSt11_Tuple_implIXT_EJS4_DpT1_EE
FNDA:1,_ZSt12__get_helperILm1ESt14default_deleteIN10path_utils14LeftTurnAroundEEJEERT0_RSt11_Tuple_implIXT_EJS4_DpT1_EE
FN:1377,_ZSt12__get_helperILm0EPN10path_utils11PathSegmentEJSt14default_deleteIS1_EEERT0_RSt11_Tuple_implIXT_EJS5_DpT1_EE
FNDA:10,_ZSt12__get_helperILm0EPN10path_utils11PathSegmentEJSt14default_deleteIS1_EEERT0_RSt11_Tuple_implIXT_EJS5_DpT1_EE
FN:1377,_ZSt12__get_helperILm1ESt14default_deleteIN10path_utils8StraightEEJEERT0_RSt11_Tuple_implIXT_EJS4_DpT1_EE
FNDA:2,_ZSt12__get_helperILm1ESt14default_deleteIN10path_utils8StraightEEJEERT0_RSt11_Tuple_implIXT_EJS4_DpT1_EE
FN:1377,_ZSt12__get_helperILm1ESt14default_deleteIN10path_utils11RightCircleEEJEERT0_RSt11_Tuple_implIXT_EJS4_DpT1_EE
FNDA:1,_ZSt12__get_helperILm1ESt14default_deleteIN10path_utils11RightCircleEEJEERT0_RSt11_Tuple_implIXT_EJS4_DpT1_EE
FN:1377,_ZSt12__get_helperILm0EPN10path_utils15RightTurnAroundEJSt14default_deleteIS1_EEERT0_RSt11_Tuple_implIXT_EJS5_DpT1_EE
FNDA:8,_ZSt12__get_helperILm0EPN10path_utils15RightTurnAroundEJSt14default_deleteIS1_EEERT0_RSt11_Tuple_implIXT_EJS5_DpT1_EE
FN:1377,_ZSt12__get_helperILm1ESt14default_deleteINSt7__cxx1118basic_stringstreamIcSt11char_traitsIcESaIcEEEEJEERT0_RSt11_Tuple_implIXT_EJS8_DpT1_EE
FNDA:96,_ZSt12__get_helperILm1ESt14default_deleteINSt7__cxx1118basic_stringstreamIcSt11char_traitsIcESaIcEEEEJEERT0_RSt11_Tuple_implIXT_EJS8_DpT1_EE
FN:1377,_ZSt12__get_helperILm1ESt14default_deleteIN10path_utils3ArcEEJEERT0_RSt11_Tuple_implIXT_EJS4_DpT1_EE
FNDA:1,_ZSt12__get_helperILm1ESt14default_deleteIN10path_utils3ArcEEJEERT0_RSt11_Tuple_implIXT_EJS4_DpT1_EE
FN:1377,_ZSt12__get_helperILm0EPN10path_utils3ArcEJSt14default_deleteIS1_EEERT0_RSt11_Tuple_implIXT_EJS5_DpT1_EE
FNDA:4,_ZSt12__get_helperILm0EPN10path_utils3ArcEJSt14default_deleteIS1_EEERT0_RSt11_Tuple_implIXT_EJS5_DpT1_EE
FN:1377,_ZSt12__get_helperILm0EPN10path_utils8LeftTurnEJSt14default_deleteIS1_EEERT0_RSt11_Tuple_implIXT_EJS5_DpT1_EE
FNDA:4,_ZSt12__get_helperILm0EPN10path_utils8LeftTurnEJSt14default_deleteIS1_EEERT0_RSt11_Tuple_implIXT_EJS5_DpT1_EE
FN:1377,_ZSt12__get_helperILm1ESt14default_deleteIN10path_utils9RightTurnEEJEERT0_RSt11_Tuple_implIXT_EJS4_DpT1_EE
FNDA:1,_ZSt12__get_helperILm1ESt14default_deleteIN10path_utils9RightTurnEEJEERT0_RSt11_Tuple_implIXT_EJS4_DpT1_EE
FN:1377,_ZSt12__get_helperILm1ESt14default_deleteIN10path_utils11PathSegmentEEJEERT0_RSt11_Tuple_implIXT_EJS4_DpT1_EE
FNDA:10,_ZSt12__get_helperILm1ESt14default_deleteIN10path_utils11PathSegmentEEJEERT0_RSt11_Tuple_implIXT_EJS4_DpT1_EE
FN:1377,_ZSt12__get_helperILm0EPN10path_utils9RightTurnEJSt14default_deleteIS1_EEERT0_RSt11_Tuple_implIXT_EJS5_DpT1_EE
FNDA:4,_ZSt12__get_helperILm0EPN10path_utils9RightTurnEJSt14default_deleteIS1_EEERT0_RSt11_Tuple_implIXT_EJS5_DpT1_EE
FN:1377,_ZSt12__get_helperILm1ESt14default_deleteIN10path_utils8LeftTurnEEJEERT0_RSt11_Tuple_implIXT_EJS4_DpT1_EE
FNDA:1,_ZSt12__get_helperILm1ESt14default_deleteIN10path_utils8LeftTurnEEJEERT0_RSt11_Tuple_implIXT_EJS4_DpT1_EE
FN:1377,_ZSt12__get_helperILm0EPN10path_utils11RightCircleEJSt14default_deleteIS1_EEERT0_RSt11_Tuple_implIXT_EJS5_DpT1_EE
FNDA:4,_ZSt12__get_helperILm0EPN10path_utils11RightCircleEJSt14default_deleteIS1_EEERT0_RSt11_Tuple_implIXT_EJS5_DpT1_EE
FN:1377,_ZSt12__get_helperILm0EPN10path_utils14LeftTurnAroundEJSt14default_deleteIS1_EEERT0_RSt11_Tuple_implIXT_EJS5_DpT1_EE
FNDA:4,_ZSt12__get_helperILm0EPN10path_utils14LeftTurnAroundEJSt14default_deleteIS1_EEERT0_RSt11_Tuple_implIXT_EJS5_DpT1_EE
FN:1377,_ZSt12__get_helperILm1ESt14default_deleteIN10path_utils15RightTurnAroundEEJEERT0_RSt11_Tuple_implIXT_EJS4_DpT1_EE
FNDA:2,_ZSt12__get_helperILm1ESt14default_deleteIN10path_utils15RightTurnAroundEEJEERT0_RSt11_Tuple_implIXT_EJS4_DpT1_EE
FN:1382,_ZSt12__get_helperILm0EPNSt7__cxx1112basic_stringIcSt11char_traitsIcESaIcEEEJSt14default_deleteIS5_EEERKT0_RKSt11_Tuple_implIXT_EJS9_DpT1_EE
FNDA:0,_ZSt12__get_helperILm0EPNSt7__cxx1112basic_stringIcSt11char_traitsIcESaIcEEEJSt14default_deleteIS5_EEERKT0_RKSt11_Tuple_implIXT_EJS9_DpT1_EE
FN:1393,_ZSt3getILm0EJPN10path_utils11RightCircleESt14default_deleteIS1_EEERNSt13tuple_elementIXT_ESt5tupleIJDpT0_EEE4typeERS9_
FNDA:4,_ZSt3getILm0EJPN10path_utils11RightCircleESt14default_deleteIS1_EEERNSt13tuple_elementIXT_ESt5tupleIJDpT0_EEE4typeERS9_
FN:1393,_ZSt3getILm0EJPN10path_utils10LeftCircleESt14default_deleteIS1_EEERNSt13tuple_elementIXT_ESt5tupleIJDpT0_EEE4typeERS9_
FNDA:4,_ZSt3getILm0EJPN10path_utils10LeftCircleESt14default_deleteIS1_EEERNSt13tuple_elementIXT_ESt5tupleIJDpT0_EEE4typeERS9_
FN:1393,_ZSt3getILm0EJPN10path_utils14LeftTurnAroundESt14default_deleteIS1_EEERNSt13tuple_elementIXT_ESt5tupleIJDpT0_EEE4typeERS9_
FNDA:4,_ZSt3getILm0EJPN10path_utils14LeftTurnAroundESt14default_deleteIS1_EEERNSt13tuple_elementIXT_ESt5tupleIJDpT0_EEE4typeERS9_
FN:1393,_ZSt3getILm0EJPN10path_utils9RightTurnESt14default_deleteIS1_EEERNSt13tuple_elementIXT_ESt5tupleIJDpT0_EEE4typeERS9_
FNDA:4,_ZSt3getILm0EJPN10path_utils9RightTurnESt14default_deleteIS1_EEERNSt13tuple_elementIXT_ESt5tupleIJDpT0_EEE4typeERS9_
FN:1393,_ZSt3getILm0EJPNSt7__cxx1118basic_stringstreamIcSt11char_traitsIcESaIcEEESt14default_deleteIS5_EEERNSt13tuple_elementIXT_ESt5tupleIJDpT0_EEE4typeERSD_
FNDA:192,_ZSt3getILm0EJPNSt7__cxx1118basic_stringstreamIcSt11char_traitsIcESaIcEEESt14default_deleteIS5_EEERNSt13tuple_elementIXT_ESt5tupleIJDpT0_EEE4typeERSD_
FN:1393,_ZSt3getILm0EJPN10path_utils8LeftTurnESt14default_deleteIS1_EEERNSt13tuple_elementIXT_ESt5tupleIJDpT0_EEE4typeERS9_
FNDA:4,_ZSt3getILm0EJPN10path_utils8LeftTurnESt14default_deleteIS1_EEERNSt13tuple_elementIXT_ESt5tupleIJDpT0_EEE4typeERS9_
FN:1393,_ZSt3getILm0EJPN10path_utils15RightTurnAroundESt14default_deleteIS1_EEERNSt13tuple_elementIXT_ESt5tupleIJDpT0_EEE4typeERS9_
FNDA:8,_ZSt3getILm0EJPN10path_utils15RightTurnAroundESt14default_deleteIS1_EEERNSt13tuple_elementIXT_ESt5tupleIJDpT0_EEE4typeERS9_
FN:1393,_ZSt3getILm0EJPNSt7__cxx1112basic_stringIcSt11char_traitsIcESaIcEEESt14default_deleteIS5_EEERNSt13tuple_elementIXT_ESt5tupleIJDpT0_EEE4typeERSD_
FNDA:381,_ZSt3getILm0EJPNSt7__cxx1112basic_stringIcSt11char_traitsIcESaIcEEESt14default_deleteIS5_EEERNSt13tuple_elementIXT_ESt5tupleIJDpT0_EEE4typeERSD_
FN:1393,_ZSt3getILm0EJPN10path_utils11PathSegmentESt14default_deleteIS1_EEERNSt13tuple_elementIXT_ESt5tupleIJDpT0_EEE4typeERS9_
FNDA:10,_ZSt3getILm0EJPN10path_utils11PathSegmentESt14default_deleteIS1_EEERNSt13tuple_elementIXT_ESt5tupleIJDpT0_EEE4typeERS9_
FN:1393,_ZSt3getILm0EJPN10path_utils8StraightESt14default_deleteIS1_EEERNSt13tuple_elementIXT_ESt5tupleIJDpT0_EEE4typeERS9_
FNDA:8,_ZSt3getILm0EJPN10path_utils8StraightESt14default_deleteIS1_EEERNSt13tuple_elementIXT_ESt5tupleIJDpT0_EEE4typeERS9_
FN:1393,_ZSt3getILm0EJPN10path_utils3ArcESt14default_deleteIS1_EEERNSt13tuple_elementIXT_ESt5tupleIJDpT0_EEE4typeERS9_
FNDA:4,_ZSt3getILm0EJPN10path_utils3ArcESt14default_deleteIS1_EEERNSt13tuple_elementIXT_ESt5tupleIJDpT0_EEE4typeERS9_
FN:1393,_ZSt3getILm1EJPNSt7__cxx1118basic_stringstreamIcSt11char_traitsIcESaIcEEESt14default_deleteIS5_EEERNSt13tuple_elementIXT_ESt5tupleIJDpT0_EEE4typeERSD_
FNDA:96,_ZSt3getILm1EJPNSt7__cxx1118basic_stringstreamIcSt11char_traitsIcESaIcEEESt14default_deleteIS5_EEERNSt13tuple_elementIXT_ESt5tupleIJDpT0_EEE4typeERSD_
FN:1393,_ZSt3getILm1EJPNSt7__cxx1112basic_stringIcSt11char_traitsIcESaIcEEESt14default_deleteIS5_EEERNSt13tuple_elementIXT_ESt5tupleIJDpT0_EEE4typeERSD_
FNDA:0,_ZSt3getILm1EJPNSt7__cxx1112basic_stringIcSt11char_traitsIcESaIcEEESt14default_deleteIS5_EEERNSt13tuple_elementIXT_ESt5tupleIJDpT0_EEE4typeERSD_
FN:1393,_ZSt3getILm1EJPN10path_utils8StraightESt14default_deleteIS1_EEERNSt13tuple_elementIXT_ESt5tupleIJDpT0_EEE4typeERS9_
FNDA:2,_ZSt3getILm1EJPN10path_utils8StraightESt14default_deleteIS1_EEERNSt13tuple_elementIXT_ESt5tupleIJDpT0_EEE4typeERS9_
FN:1393,_ZSt3getILm1EJPN10path_utils11PathSegmentESt14default_deleteIS1_EEERNSt13tuple_elementIXT_ESt5tupleIJDpT0_EEE4typeERS9_
FNDA:10,_ZSt3getILm1EJPN10path_utils11PathSegmentESt14default_deleteIS1_EEERNSt13tuple_elementIXT_ESt5tupleIJDpT0_EEE4typeERS9_
FN:1393,_ZSt3getILm1EJPN10path_utils15RightTurnAroundESt14default_deleteIS1_EEERNSt13tuple_elementIXT_ESt5tupleIJDpT0_EEE4typeERS9_
FNDA:2,_ZSt3getILm1EJPN10path_utils15RightTurnAroundESt14default_deleteIS1_EEERNSt13tuple_elementIXT_ESt5tupleIJDpT0_EEE4typeERS9_
FN:1393,_ZSt3getILm1EJPN10path_utils8LeftTurnESt14default_deleteIS1_EEERNSt13tuple_elementIXT_ESt5tupleIJDpT0_EEE4typeERS9_
FNDA:1,_ZSt3getILm1EJPN10path_utils8LeftTurnESt14default_deleteIS1_EEERNSt13tuple_elementIXT_ESt5tupleIJDpT0_EEE4typeERS9_
FN:1393,_ZSt3getILm1EJPN10path_utils9RightTurnESt14default_deleteIS1_EEERNSt13tuple_elementIXT_ESt5tupleIJDpT0_EEE4typeERS9_
FNDA:1,_ZSt3getILm1EJPN10path_utils9RightTurnESt14default_deleteIS1_EEERNSt13tuple_elementIXT_ESt5tupleIJDpT0_EEE4typeERS9_
FN:1393,_ZSt3getILm1EJPN10path_utils14LeftTurnAroundESt14default_deleteIS1_EEERNSt13tuple_elementIXT_ESt5tupleIJDpT0_EEE4typeERS9_
FNDA:1,_ZSt3getILm1EJPN10path_utils14LeftTurnAroundESt14default_deleteIS1_EEERNSt13tuple_elementIXT_ESt5tupleIJDpT0_EEE4typeERS9_
FN:1393,_ZSt3getILm1EJPN10path_utils10LeftCircleESt14default_deleteIS1_EEERNSt13tuple_elementIXT_ESt5tupleIJDpT0_EEE4typeERS9_
FNDA:1,_ZSt3getILm1EJPN10path_utils10LeftCircleESt14default_deleteIS1_EEERNSt13tuple_elementIXT_ESt5tupleIJDpT0_EEE4typeERS9_
FN:1393,_ZSt3getILm1EJPN10path_utils11RightCircleESt14default_deleteIS1_EEERNSt13tuple_elementIXT_ESt5tupleIJDpT0_EEE4typeERS9_
FNDA:1,_ZSt3getILm1EJPN10path_utils11RightCircleESt14default_deleteIS1_EEERNSt13tuple_elementIXT_ESt5tupleIJDpT0_EEE4typeERS9_
FN:1393,_ZSt3getILm1EJPN10path_utils3ArcESt14default_deleteIS1_EEERNSt13tuple_elementIXT_ESt5tupleIJDpT0_EEE4typeERS9_
FNDA:1,_ZSt3getILm1EJPN10path_utils3ArcESt14default_deleteIS1_EEERNSt13tuple_elementIXT_ESt5tupleIJDpT0_EEE4typeERS9_
FN:1399,_ZSt3getILm0EJPNSt7__cxx1112basic_stringIcSt11char_traitsIcESaIcEEESt14default_deleteIS5_EEERKNSt13tuple_elementIXT_ESt5tupleIJDpT0_EEE4typeERKSD_
FNDA:0,_ZSt3getILm0EJPNSt7__cxx1112basic_stringIcSt11char_traitsIcESaIcEEESt14default_deleteIS5_EEERKNSt13tuple_elementIXT_ESt5tupleIJDpT0_EEE4typeERKSD_
DA:80,1
DA:81,1
DA:80,1
DA:81,1
DA:80,1
DA:81,1
DA:80,1
DA:81,1
DA:80,1
DA:81,1
DA:80,1
DA:81,1
DA:80,2
DA:81,2
DA:80,2
DA:81,2
DA:90,1
DA:91,1
DA:90,1
DA:91,1
DA:90,1
DA:91,1
DA:90,1
DA:91,1
DA:90,1
DA:91,1
DA:90,1
DA:91,1
DA:90,2
DA:91,2
DA:90,2
DA:91,2
DA:124,1
DA:124,1
DA:124,1
DA:124,1
DA:124,1
DA:124,1
DA:124,2
DA:124,10
DA:124,2
DA:124,0
DA:124,96
DA:189,1
DA:190,1
DA:189,1
DA:190,1
DA:189,1
DA:190,1
DA:189,1
DA:190,1
DA:189,1
DA:190,1
DA:189,1
DA:190,1
DA:189,2
DA:190,2
DA:189,2
DA:190,2
DA:199,10
DA:200,10
DA:233,4
DA:233,4
DA:233,4
DA:233,4
DA:233,4
DA:233,4
DA:233,8
DA:233,10
DA:233,8
DA:233,381
DA:233,192
DA:236,0
DA:268,4
DA:268,4
DA:268,4
DA:268,4
DA:268,4
DA:268,4
DA:268,8
DA:268,10
DA:268,8
DA:268,381
DA:268,192
DA:271,0
DA:279,1
DA:280,1
DA:279,1
DA:280,1
DA:279,1
DA:280,1
DA:279,1
DA:280,1
DA:279,1
DA:280,1
DA:279,1
DA:280,1
DA:279,2
DA:280,2
DA:279,2
DA:280,2
DA:290,1
DA:292,1
DA:293,1
DA:290,1
DA:292,1
DA:293,1
DA:290,1
DA:292,1
DA:293,1
DA:290,1
DA:292,1
DA:293,1
DA:290,1
DA:292,1
DA:293,1
DA:290,1
DA:292,1
DA:293,1
DA:290,2
DA:292,2
DA:293,2
DA:290,2
DA:292,2
DA:293,2
DA:424,1
DA:424,1
DA:424,1
DA:424,1
DA:424,1
DA:424,1
DA:424,2
DA:424,10
DA:424,2
DA:424,0
DA:424,96
DA:430,1
DA:431,1
DA:430,1
DA:431,1
DA:430,1
DA:431,1
DA:430,1
DA:431,1
DA:430,1
DA:431,1
DA:430,1
DA:431,1
DA:430,2
DA:431,2
DA:430,2
DA:431,2
DA:440,1
DA:441,1
DA:442,1
DA:440,1
DA:441,1
DA:442,1
DA:440,1
DA:441,1
DA:442,1
DA:440,1
DA:441,1
DA:442,1
DA:440,1
DA:441,1
DA:442,1
DA:440,1
DA:441,1
DA:442,1
DA:440,2
DA:441,2
DA:442,2
DA:440,2
DA:441,2
DA:442,2
DA:1049,1
DA:1051,1
DA:1049,1
DA:1051,1
DA:1049,1
DA:1051,1
DA:1049,1
DA:1051,1
DA:1049,1
DA:1051,1
DA:1049,1
DA:1051,1
DA:1049,2
DA:1051,2
DA:1049,2
DA:1051,2
DA:1077,1
DA:1079,1
DA:1077,1
DA:1079,1
DA:1077,1
DA:1079,1
DA:1077,1
DA:1079,1
DA:1077,1
DA:1079,1
DA:1077,1
DA:1079,1
DA:1077,2
DA:1079,2
DA:1077,2
DA:1079,2
DA:1377,4
DA:1378,4
DA:1377,192
DA:1378,192
DA:1377,381
DA:1378,381
DA:1377,8
DA:1378,8
DA:1377,10
DA:1378,10
DA:1377,8
DA:1378,8
DA:1377,4
DA:1378,4
DA:1377,4
DA:1378,4
DA:1377,4
DA:1378,4
DA:1377,4
DA:1378,4
DA:1377,4
DA:1378,4
DA:1377,1
DA:1378,1
DA:1377,96
DA:1378,96
DA:1377,0
DA:1378,0
DA:1377,2
DA:1378,2
DA:1377,10
DA:1378,10
DA:1377,2
DA:1378,2
DA:1377,1
DA:1378,1
DA:1377,1
DA:1378,1
DA:1377,1
DA:1378,1
DA:1377,1
DA:1378,1
DA:1377,1
DA:1378,1
DA:1382,0
DA:1383,0
DA:1393,4
DA:1394,4
DA:1393,192
DA:1394,192
DA:1393,381
DA:1394,381
DA:1393,8
DA:1394,8
DA:1393,10
DA:1394,10
DA:1393,8
DA:1394,8
DA:1393,4
DA:1394,4
DA:1393,4
DA:1394,4
DA:1393,4
DA:1394,4
DA:1393,4
DA:1394,4
DA:1393,4
DA:1394,4
DA:1393,1
DA:1394,1
DA:1393,96
DA:1394,96
DA:1393,0
DA:1394,0
DA:1393,2
DA:1394,2
DA:1393,10
DA:1394,10
DA:1393,2
DA:1394,2
DA:1393,1
DA:1394,1
DA:1393,1
DA:1394,1
DA:1393,1
DA:1394,1
DA:1393,1
DA:1394,1
DA:1393,1
DA:1394,1
DA:1399,0
DA:1400,0
end_of_record
SF:/usr/include/c++/11/bits/stl_iterator_base_funcs.h
FN:98,_ZSt10__distanceIPcENSt15iterator_traitsIT_E15difference_typeES2_S2_St26random_access_iterator_tag
FNDA:0,_ZSt10__distanceIPcENSt15iterator_traitsIT_E15difference_typeES2_S2_St26random_access_iterator_tag
FN:98,_ZSt10__distanceIPKcENSt15iterator_traitsIT_E15difference_typeES3_S3_St26random_access_iterator_tag
FNDA:382,_ZSt10__distanceIPKcENSt15iterator_traitsIT_E15difference_typeES3_S3_St26random_access_iterator_tag
FN:138,_ZSt8distanceIPcENSt15iterator_traitsIT_E15difference_typeES2_S2_
FNDA:0,_ZSt8distanceIPcENSt15iterator_traitsIT_E15difference_typeES2_S2_
FN:138,_ZSt8distanceIPKcENSt15iterator_traitsIT_E15difference_typeES3_S3_
FNDA:382,_ZSt8distanceIPKcENSt15iterator_traitsIT_E15difference_typeES3_S3_
DA:98,0
DA:104,0
DA:98,382
DA:104,382
DA:138,0
DA:141,0
DA:142,0
DA:138,382
DA:141,382
DA:142,764
end_of_record
SF:/usr/include/c++/11/bits/move.h
FN:49,_ZSt11__addressofIN13geometry_msgs3msg12PoseStamped_ISaIvEEEEPT_RS5_
FNDA:2299,_ZSt11__addressofIN13geometry_msgs3msg12PoseStamped_ISaIvEEEEPT_RS5_
FN:77,_ZSt7forwardIRPN10path_utils11PathSegmentEEOT_RNSt16remove_referenceIS4_E4typeE
FNDA:30,_ZSt7forwardIRPN10path_utils11PathSegmentEEOT_RNSt16remove_referenceIS4_E4typeE
FN:77,_ZSt7forwardISt14default_deleteIN10path_utils15RightTurnAroundEEEOT_RNSt16remove_referenceIS4_E4typeE
FNDA:12,_ZSt7forwardISt14default_deleteIN10path_utils15RightTurnAroundEEEOT_RNSt16remove_referenceIS4_E4typeE
FN:77,_ZSt7forwardIdEOT_RNSt16remove_referenceIS0_E4typeE
FNDA:9,_ZSt7forwardIdEOT_RNSt16remove_referenceIS0_E4typeE
FN:77,_ZSt7forwardISt14default_deleteIN10path_utils8StraightEEEOT_RNSt16remove_referenceIS4_E4typeE
FNDA:12,_ZSt7forwardISt14default_deleteIN10path_utils8StraightEEEOT_RNSt16remove_referenceIS4_E4typeE
FN:77,_ZSt7forwardIRKdEOT_RNSt16remove_referenceIS2_E4typeE
FNDA:2,_ZSt7forwardIRKdEOT_RNSt16remove_referenceIS2_E4typeE
FN:77,_ZSt7forwardISt14default_deleteIN10path_utils8LeftTurnEEEOT_RNSt16remove_referenceIS4_E4typeE
FNDA:6,_ZSt7forwardISt14default_deleteIN10path_utils8LeftTurnEEEOT_RNSt16remove_referenceIS4_E4typeE
FN:77,_ZSt7forwardISt14default_deleteIN10path_utils9RightTurnEEEOT_RNSt16remove_referenceIS4_E4typeE
FNDA:6,_ZSt7forwardISt14default_deleteIN10path_utils9RightTurnEEEOT_RNSt16remove_referenceIS4_E4typeE
FN:77,_ZSt7forwardISt14default_deleteIN10path_utils14LeftTurnAroundEEEOT_RNSt16remove_referenceIS4_E4typeE
FNDA:6,_ZSt7forwardISt14default_deleteIN10path_utils14LeftTurnAroundEEEOT_RNSt16remove_referenceIS4_E4typeE
FN:77,_ZSt7forwardISt14default_deleteIN10path_utils10LeftCircleEEEOT_RNSt16remove_referenceIS4_E4typeE
FNDA:6,_ZSt7forwardISt14default_deleteIN10path_utils10LeftCircleEEEOT_RNSt16remove_referenceIS4_E4typeE
FN:77,_ZSt7forwardISt14default_deleteIN10path_utils11RightCircleEEEOT_RNSt16remove_referenceIS4_E4typeE
FNDA:6,_ZSt7forwardISt14default_deleteIN10path_utils11RightCircleEEEOT_RNSt16remove_referenceIS4_E4typeE
FN:77,_ZSt7forwardISt14default_deleteIN10path_utils3ArcEEEOT_RNSt16remove_referenceIS4_E4typeE
FNDA:6,_ZSt7forwardISt14default_deleteIN10path_utils3ArcEEEOT_RNSt16remove_referenceIS4_E4typeE
FN:104,_ZSt4moveIRPNSt7__cxx1118basic_stringstreamIcSt11char_traitsIcESaIcEEEEONSt16remove_referenceIT_E4typeEOS9_
FNDA:96,_ZSt4moveIRPNSt7__cxx1118basic_stringstreamIcSt11char_traitsIcESaIcEEEEONSt16remove_referenceIT_E4typeEOS9_
FN:104,_ZSt4moveIRPNSt7__cxx1112basic_stringIcSt11char_traitsIcESaIcEEEEONSt16remove_referenceIT_E4typeEOS9_
FNDA:0,_ZSt4moveIRPNSt7__cxx1112basic_stringIcSt11char_traitsIcESaIcEEEEONSt16remove_referenceIT_E4typeEOS9_
FN:104,_ZSt4moveIRPN10path_utils8StraightEEONSt16remove_referenceIT_E4typeEOS5_
FNDA:0,_ZSt4moveIRPN10path_utils8StraightEEONSt16remove_referenceIT_E4typeEOS5_
FN:104,_ZSt4moveIRSaIcEEONSt16remove_referenceIT_E4typeEOS3_
FNDA:0,_ZSt4moveIRSaIcEEONSt16remove_referenceIT_E4typeEOS3_
FN:104,_ZSt4moveIRPN10path_utils11PathSegmentEEONSt16remove_referenceIT_E4typeEOS5_
FNDA:10,_ZSt4moveIRPN10path_utils11PathSegmentEEONSt16remove_referenceIT_E4typeEOS5_
FN:104,_ZSt4moveIRPN10path_utils15RightTurnAroundEEONSt16remove_referenceIT_E4typeEOS5_
FNDA:0,_ZSt4moveIRPN10path_utils15RightTurnAroundEEONSt16remove_referenceIT_E4typeEOS5_
FN:104,_ZSt4moveIRPN10path_utils8LeftTurnEEONSt16remove_referenceIT_E4typeEOS5_
FNDA:0,_ZSt4moveIRPN10path_utils8LeftTurnEEONSt16remove_referenceIT_E4typeEOS5_
FN:104,_ZSt4moveIRPN10path_utils9RightTurnEEONSt16remove_referenceIT_E4typeEOS5_
FNDA:0,_ZSt4moveIRPN10path_utils9RightTurnEEONSt16remove_referenceIT_E4typeEOS5_
FN:104,_ZSt4moveIRPN10path_utils14LeftTurnAroundEEONSt16remove_referenceIT_E4typeEOS5_
FNDA:0,_ZSt4moveIRPN10path_utils14LeftTurnAroundEEONSt16remove_referenceIT_E4typeEOS5_
FN:104,_ZSt4moveIRPN10path_utils10LeftCircleEEONSt16remove_referenceIT_E4typeEOS5_
FNDA:0,_ZSt4moveIRPN10path_utils10LeftCircleEEONSt16remove_referenceIT_E4typeEOS5_
FN:104,_ZSt4moveIRPN10path_utils11RightCircleEEONSt16remove_referenceIT_E4typeEOS5_
FNDA:0,_ZSt4moveIRPN10path_utils11RightCircleEEONSt16remove_referenceIT_E4typeEOS5_
FN:104,_ZSt4moveIRPN10path_utils3ArcEEONSt16remove_referenceIT_E4typeEOS5_
FNDA:0,_ZSt4moveIRPN10path_utils3ArcEEONSt16remove_referenceIT_E4typeEOS5_
DA:49,2299
DA:50,2299
DA:77,30
DA:78,30
DA:77,6
DA:78,6
DA:77,6
DA:78,6
DA:77,6
DA:78,6
DA:77,6
DA:78,6
DA:77,6
DA:78,6
DA:77,6
DA:78,6
DA:77,9
DA:78,9
DA:77,12
DA:78,12
DA:77,12
DA:78,12
DA:77,2
DA:78,2
DA:104,0
DA:105,0
DA:104,0
DA:105,0
DA:104,0
DA:105,0
DA:104,0
DA:105,0
DA:104,0
DA:105,0
DA:104,0
DA:105,0
DA:104,0
DA:105,0
DA:104,10
DA:105,10
DA:104,0
DA:105,0
DA:104,0
DA:105,0
DA:104,96
DA:105,96
DA:104,0
DA:105,0
end_of_record
SF:/usr/include/c++/11/ext/type_traits.h
FN:152,_ZN9__gnu_cxx17__is_null_pointerIcEEbPT_
FNDA:0,_ZN9__gnu_cxx17__is_null_pointerIcEEbPT_
FN:152,_ZN9__gnu_cxx17__is_null_pointerIKcEEbPT_
FNDA:382,_ZN9__gnu_cxx17__is_null_pointerIKcEEbPT_
DA:152,0
DA:153,0
DA:152,382
DA:153,382
end_of_record
SF:/usr/include/c++/11/bits/stl_iterator_base_types.h
FN:238,_ZSt19__iterator_categoryIPcENSt15iterator_traitsIT_E17iterator_categoryERKS2_
FNDA:0,_ZSt19__iterator_categoryIPcENSt15iterator_traitsIT_E17iterator_categoryERKS2_
FN:238,_ZSt19__iterator_categoryIPKcENSt15iterator_traitsIT_E17iterator_categoryERKS3_
FNDA:382,_ZSt19__iterator_categoryIPKcENSt15iterator_traitsIT_E17iterator_categoryERKS3_
DA:238,0
DA:239,0
DA:238,382
DA:239,382
end_of_record
SF:/opt/ros/humble/include/geometry_msgs/geometry_msgs/msg/detail/pose_stamped__struct.hpp
FN:42,_ZN13geometry_msgs3msg12PoseStamped_ISaIvEEC2EN18rosidl_runtime_cpp21MessageInitializationE
FNDA:355,_ZN13geometry_msgs3msg12PoseStamped_ISaIvEEC2EN18rosidl_runtime_cpp21MessageInitializationE
DA:42,355
DA:43,355
DA:44,355
DA:47,355
end_of_record
TN:
SF:/usr/include/c++/11/bits/stl_construct.h
FN:109,_ZSt10_ConstructINSt7__cxx1112basic_stringIcSt11char_traitsIcESaIcEEEJRKS5_EEvPT_DpOT0_
FNDA:2,_ZSt10_ConstructINSt7__cxx1112basic_stringIcSt11char_traitsIcESaIcEEEJRKS5_EEvPT_DpOT0_
FN:109,_ZSt10_ConstructIN13geometry_msgs3msg17TransformStamped_ISaIvEEEJRKS4_EEvPT_DpOT0_
FNDA:14,_ZSt10_ConstructIN13geometry_msgs3msg17TransformStamped_ISaIvEEEJRKS4_EEvPT_DpOT0_
FN:109,_ZSt10_ConstructIN6rclcpp9ParameterEJRKS1_EEvPT_DpOT0_
FNDA:65,_ZSt10_ConstructIN6rclcpp9ParameterEJRKS1_EEvPT_DpOT0_
FN:109,_ZSt10_ConstructIN13geometry_msgs3msg12PoseStamped_ISaIvEEEJRKS4_EEvPT_DpOT0_
FNDA:755,_ZSt10_ConstructIN13geometry_msgs3msg12PoseStamped_ISaIvEEEJRKS4_EEvPT_DpOT0_
FN:109,_ZSt10_ConstructIN13geometry_msgs3msg12PoseStamped_ISaIvEEEJEEvPT_DpOT0_
FNDA:15,_ZSt10_ConstructIN13geometry_msgs3msg12PoseStamped_ISaIvEEEJEEvPT_DpOT0_
FN:109,_ZSt10_ConstructISt5tupleIJSt4pairIddES2_dS2_EEJRKS3_EEvPT_DpOT0_
FNDA:24,_ZSt10_ConstructISt5tupleIJSt4pairIddES2_dS2_EEJRKS3_EEvPT_DpOT0_
FN:146,_ZSt8_DestroyIN7testing8internal26ParameterizedTestSuiteInfoI29CircleSegmentIntersectionTestE17InstantiationInfoEEvPT_
FNDA:1,_ZSt8_DestroyIN7testing8internal26ParameterizedTestSuiteInfoI29CircleSegmentIntersectionTestE17InstantiationInfoEEvPT_
FN:146,_ZSt8_DestroyINSt7__cxx1112basic_stringIcSt11char_traitsIcESaIcEEEEvPT_
FNDA:1816,_ZSt8_DestroyINSt7__cxx1112basic_stringIcSt11char_traitsIcESaIcEEEEvPT_
FN:146,_ZSt8_DestroyIN14rcl_interfaces3msg20SetParametersResult_ISaIvEEEEvPT_
FNDA:35,_ZSt8_DestroyIN14rcl_interfaces3msg20SetParametersResult_ISaIvEEEEvPT_
FN:146,_ZSt8_DestroyIN13geometry_msgs3msg12PoseStamped_ISaIvEEEEvPT_
FNDA:1685,_ZSt8_DestroyIN13geometry_msgs3msg12PoseStamped_ISaIvEEEEvPT_
FN:146,_ZSt8_DestroyIN13geometry_msgs3msg17TransformStamped_ISaIvEEEEvPT_
FNDA:14,_ZSt8_DestroyIN13geometry_msgs3msg17TransformStamped_ISaIvEEEEvPT_
FN:146,_ZSt8_DestroyIN6rclcpp9ParameterEEvPT_
FNDA:65,_ZSt8_DestroyIN6rclcpp9ParameterEEvPT_
FN:146,_ZSt8_DestroyISt10shared_ptrIN7testing8internal26ParameterizedTestSuiteInfoI29CircleSegmentIntersectionTestE8TestInfoEEEvPT_
FNDA:1,_ZSt8_DestroyISt10shared_ptrIN7testing8internal26ParameterizedTestSuiteInfoI29CircleSegmentIntersectionTestE8TestInfoEEEvPT_
FN:160,_ZNSt12_Destroy_auxILb0EE9__destroyIPN13geometry_msgs3msg17TransformStamped_ISaIvEEEEEvT_S8_
FNDA:14,_ZNSt12_Destroy_auxILb0EE9__destroyIPN13geometry_msgs3msg17TransformStamped_ISaIvEEEEEvT_S8_
FN:160,_ZNSt12_Destroy_auxILb0EE9__destroyIPN13geometry_msgs3msg12PoseStamped_ISaIvEEEEEvT_S8_
FNDA:44,_ZNSt12_Destroy_auxILb0EE9__destroyIPN13geometry_msgs3msg12PoseStamped_ISaIvEEEEEvT_S8_
FN:160,_ZNSt12_Destroy_auxILb0EE9__destroyIPN14rcl_interfaces3msg20SetParametersResult_ISaIvEEEEEvT_S8_
FNDA:7,_ZNSt12_Destroy_auxILb0EE9__destroyIPN14rcl_interfaces3msg20SetParametersResult_ISaIvEEEEEvT_S8_
FN:160,_ZNSt12_Destroy_auxILb0EE9__destroyIPNSt7__cxx1112basic_stringIcSt11char_traitsIcESaIcEEEEEvT_S9_
FNDA:1631,_ZNSt12_Destroy_auxILb0EE9__destroyIPNSt7__cxx1112basic_stringIcSt11char_traitsIcESaIcEEEEEvT_S9_
FN:160,_ZNSt12_Destroy_auxILb0EE9__destroyIPN6rclcpp9ParameterEEEvT_S5_
FNDA:21,_ZNSt12_Destroy_auxILb0EE9__destroyIPN6rclcpp9ParameterEEEvT_S5_
FN:160,_ZNSt12_Destroy_auxILb0EE9__destroyIPSt10shared_ptrIN7testing8internal26ParameterizedTestSuiteInfoI29CircleSegmentIntersectionTestE8TestInfoEEEEvT_SB_
FNDA:1,_ZNSt12_Destroy_auxILb0EE9__destroyIPSt10shared_ptrIN7testing8internal26ParameterizedTestSuiteInfoI29CircleSegmentIntersectionTestE8TestInfoEEEEvT_SB_
FN:160,_ZNSt12_Destroy_auxILb0EE9__destroyIPN7testing8internal26ParameterizedTestSuiteInfoI29CircleSegmentIntersectionTestE17InstantiationInfoEEEvT_S9_
FNDA:1,_ZNSt12_Destroy_auxILb0EE9__destroyIPN7testing8internal26ParameterizedTestSuiteInfoI29CircleSegmentIntersectionTestE17InstantiationInfoEEEvT_S9_
FN:172,_ZNSt12_Destroy_auxILb1EE9__destroyIPN14rcl_interfaces3msg13IntegerRange_ISaIvEEEEEvT_S8_
FNDA:414,_ZNSt12_Destroy_auxILb1EE9__destroyIPN14rcl_interfaces3msg13IntegerRange_ISaIvEEEEEvT_S8_
FN:172,_ZNSt12_Destroy_auxILb1EE9__destroyIPN14rcl_interfaces3msg19FloatingPointRange_ISaIvEEEEEvT_S8_
FNDA:414,_ZNSt12_Destroy_auxILb1EE9__destroyIPN14rcl_interfaces3msg19FloatingPointRange_ISaIvEEEEEvT_S8_
FN:172,_ZNSt12_Destroy_auxILb1EE9__destroyIPSt5tupleIJSt4pairIddES4_dS4_EEEEvT_S7_
FNDA:2,_ZNSt12_Destroy_auxILb1EE9__destroyIPSt5tupleIJSt4pairIddES4_dS4_EEEEvT_S7_
FN:172,_ZNSt12_Destroy_auxILb1EE9__destroyIPN6rclcpp13QosPolicyKindEEEvT_S5_
FNDA:180,_ZNSt12_Destroy_auxILb1EE9__destroyIPN6rclcpp13QosPolicyKindEEEvT_S5_
FN:172,_ZNSt12_Destroy_auxILb1EE9__destroyIPdEEvT_S3_
FNDA:1425,_ZNSt12_Destroy_auxILb1EE9__destroyIPdEEvT_S3_
FN:172,_ZNSt12_Destroy_auxILb1EE9__destroyIPlEEvT_S3_
FNDA:1425,_ZNSt12_Destroy_auxILb1EE9__destroyIPlEEvT_S3_
FN:172,_ZNSt12_Destroy_auxILb1EE9__destroyIPhEEvT_S3_
FNDA:1425,_ZNSt12_Destroy_auxILb1EE9__destroyIPhEEvT_S3_
FN:182,_ZSt8_DestroyIPNSt7__cxx1112basic_stringIcSt11char_traitsIcESaIcEEEEvT_S7_
FNDA:1631,_ZSt8_DestroyIPNSt7__cxx1112basic_stringIcSt11char_traitsIcESaIcEEEEvT_S7_
FN:182,_ZSt8_DestroyIPhEvT_S1_
FNDA:1425,_ZSt8_DestroyIPhEvT_S1_
FN:182,_ZSt8_DestroyIPlEvT_S1_
FNDA:1425,_ZSt8_DestroyIPlEvT_S1_
FN:182,_ZSt8_DestroyIPdEvT_S1_
FNDA:1425,_ZSt8_DestroyIPdEvT_S1_
FN:182,_ZSt8_DestroyIPN6rclcpp13QosPolicyKindEEvT_S3_
FNDA:180,_ZSt8_DestroyIPN6rclcpp13QosPolicyKindEEvT_S3_
FN:182,_ZSt8_DestroyIPN14rcl_interfaces3msg20SetParametersResult_ISaIvEEEEvT_S6_
FNDA:7,_ZSt8_DestroyIPN14rcl_interfaces3msg20SetParametersResult_ISaIvEEEEvT_S6_
FN:182,_ZSt8_DestroyIPN13geometry_msgs3msg12PoseStamped_ISaIvEEEEvT_S6_
FNDA:44,_ZSt8_DestroyIPN13geometry_msgs3msg12PoseStamped_ISaIvEEEEvT_S6_
FN:182,_ZSt8_DestroyIPN13geometry_msgs3msg17TransformStamped_ISaIvEEEEvT_S6_
FNDA:14,_ZSt8_DestroyIPN13geometry_msgs3msg17TransformStamped_ISaIvEEEEvT_S6_
FN:182,_ZSt8_DestroyIPN6rclcpp9ParameterEEvT_S3_
FNDA:21,_ZSt8_DestroyIPN6rclcpp9ParameterEEvT_S3_
FN:182,_ZSt8_DestroyIPN14rcl_interfaces3msg19FloatingPointRange_ISaIvEEEEvT_S6_
FNDA:414,_ZSt8_DestroyIPN14rcl_interfaces3msg19FloatingPointRange_ISaIvEEEEvT_S6_
FN:182,_ZSt8_DestroyIPN14rcl_interfaces3msg13IntegerRange_ISaIvEEEEvT_S6_
FNDA:414,_ZSt8_DestroyIPN14rcl_interfaces3msg13IntegerRange_ISaIvEEEEvT_S6_
FN:182,_ZSt8_DestroyIPN7testing8internal26ParameterizedTestSuiteInfoI29CircleSegmentIntersectionTestE17InstantiationInfoEEvT_S7_
FNDA:1,_ZSt8_DestroyIPN7testing8internal26ParameterizedTestSuiteInfoI29CircleSegmentIntersectionTestE17InstantiationInfoEEvT_S7_
FN:182,_ZSt8_DestroyIPSt5tupleIJSt4pairIddES2_dS2_EEEvT_S5_
FNDA:2,_ZSt8_DestroyIPSt5tupleIJSt4pairIddES2_dS2_EEEvT_S5_
FN:182,_ZSt8_DestroyIPSt10shared_ptrIN7testing8internal26ParameterizedTestSuiteInfoI29CircleSegmentIntersectionTestE8TestInfoEEEvT_S9_
FNDA:1,_ZSt8_DestroyIPSt10shared_ptrIN7testing8internal26ParameterizedTestSuiteInfoI29CircleSegmentIntersectionTestE8TestInfoEEEvT_S9_
DA:109,24
DA:119,24
DA:120,24
DA:109,14
DA:119,14
DA:120,14
DA:109,65
DA:119,65
DA:120,65
DA:109,15
DA:119,15
DA:120,15
DA:109,755
DA:119,755
DA:120,755
DA:109,2
DA:119,2
DA:120,2
DA:146,1
DA:151,1
DA:153,1
DA:146,1
DA:151,1
DA:153,1
DA:146,65
DA:151,65
DA:153,65
DA:146,14
DA:151,14
DA:153,14
DA:146,1685
DA:151,1685
DA:153,1685
DA:146,35
DA:151,35
DA:153,35
DA:146,1816
DA:151,1816
DA:153,1816
DA:160,1
DA:162,2
DA:163,1
DA:164,1
DA:160,1
DA:162,2
DA:163,1
DA:164,1
DA:160,21
DA:162,86
DA:163,65
DA:164,21
DA:160,14
DA:162,28
DA:163,14
DA:164,14
DA:160,44
DA:162,1729
DA:163,1685
DA:164,44
DA:160,7
DA:162,42
DA:163,35
DA:164,7
DA:160,1631
DA:162,3447
DA:163,1816
DA:164,1631
DA:172,2
DA:172,414
DA:172,414
DA:172,180
DA:172,1425
DA:172,1425
DA:172,1425
DA:182,1
DA:196,1
DA:197,1
DA:182,1
DA:196,1
DA:197,1
DA:182,2
DA:196,2
DA:197,2
DA:182,414
DA:196,414
DA:197,414
DA:182,414
DA:196,414
DA:197,414
DA:182,21
DA:196,21
DA:197,21
DA:182,14
DA:196,14
DA:197,14
DA:182,44
DA:196,44
DA:197,44
DA:182,7
DA:196,7
DA:197,7
DA:182,180
DA:196,180
DA:197,180
DA:182,1425
DA:196,1425
DA:197,1425
DA:182,1425
DA:196,1425
DA:197,1425
DA:182,1425
DA:196,1425
DA:197,1425
DA:182,1631
DA:196,1631
DA:197,1631
end_of_record
SF:/opt/ros/humble/src/gtest_vendor/include/gtest/gtest-printers.h
FN:260,_ZN16testing_internal26DefaultPrintNonContainerToImEEvRKT_PSo
FNDA:0,_ZN16testing_internal26DefaultPrintNonContainerToImEEvRKT_PSo
FN:260,_ZN16testing_internal26DefaultPrintNonContainerToIdEEvRKT_PSo
FNDA:84,_ZN16testing_internal26DefaultPrintNonContainerToIdEEvRKT_PSo
FN:313,_ZN7testing8internal19FormatForComparisonIddE6FormatB5cxx11ERKd
FNDA:0,_ZN7testing8internal19FormatForComparisonIddE6FormatB5cxx11ERKd
FN:313,_ZN7testing8internal19FormatForComparisonImmE6FormatB5cxx11ERKm
FNDA:0,_ZN7testing8internal19FormatForComparisonImmE6FormatB5cxx11ERKm
FN:313,_ZN7testing8internal19FormatForComparisonINSt7__cxx1112basic_stringIcSt11char_traitsIcESaIcEEES7_E6FormatERKS7_
FNDA:0,_ZN7testing8internal19FormatForComparisonINSt7__cxx1112basic_stringIcSt11char_traitsIcESaIcEEES7_E6FormatERKS7_
FN:313,_ZN7testing8internal19FormatForComparisonIbbE6FormatB5cxx11ERKb
FNDA:0,_ZN7testing8internal19FormatForComparisonIbbE6FormatB5cxx11ERKb
FN:377,_ZN7testing8internal33FormatForComparisonFailureMessageIddEENSt7__cxx1112basic_stringIcSt11char_traitsIcESaIcEEERKT_RKT0_
FNDA:0,_ZN7testing8internal33FormatForComparisonFailureMessageIddEENSt7__cxx1112basic_stringIcSt11char_traitsIcESaIcEEERKT_RKT0_
FN:377,_ZN7testing8internal33FormatForComparisonFailureMessageImmEENSt7__cxx1112basic_stringIcSt11char_traitsIcESaIcEEERKT_RKT0_
FNDA:0,_ZN7testing8internal33FormatForComparisonFailureMessageImmEENSt7__cxx1112basic_stringIcSt11char_traitsIcESaIcEEERKT_RKT0_
FN:377,_ZN7testing8internal33FormatForComparisonFailureMessageINSt7__cxx1112basic_stringIcSt11char_traitsIcESaIcEEES7_EES7_RKT_RKT0_
FNDA:0,_ZN7testing8internal33FormatForComparisonFailureMessageINSt7__cxx1112basic_stringIcSt11char_traitsIcESaIcEEES7_EES7_RKT_RKT0_
FN:377,_ZN7testing8internal33FormatForComparisonFailureMessageIbbEENSt7__cxx1112basic_stringIcSt11char_traitsIcESaIcEEERKT_RKT0_
FNDA:0,_ZN7testing8internal33FormatForComparisonFailureMessageIbbEENSt7__cxx1112basic_stringIcSt11char_traitsIcESaIcEEERKT_RKT0_
FN:466,_ZN7testing8internal14DefaultPrintToIdEEvNS0_15WrapPrinterTypeILNS0_18DefaultPrinterTypeE3EEERKT_PSo
FNDA:84,_ZN7testing8internal14DefaultPrintToIdEEvNS0_15WrapPrinterTypeILNS0_18DefaultPrinterTypeE3EEERKT_PSo
FN:466,_ZN7testing8internal14DefaultPrintToImEEvNS0_15WrapPrinterTypeILNS0_18DefaultPrinterTypeE3EEERKT_PSo
FNDA:0,_ZN7testing8internal14DefaultPrintToImEEvNS0_15WrapPrinterTypeILNS0_18DefaultPrinterTypeE3EEERKT_PSo
FN:483,_ZN7testing8internal7PrintToIdEEvRKT_PSo
FNDA:84,_ZN7testing8internal7PrintToIdEEvRKT_PSo
FN:483,_ZN7testing8internal7PrintToImEEvRKT_PSo
FNDA:0,_ZN7testing8internal7PrintToImEEvRKT_PSo
FN:531,_ZN7testing8internal7PrintToEbPSo
FNDA:0,_ZN7testing8internal7PrintToEbPSo
FN:594,_ZN7testing8internal7PrintToERKNSt7__cxx1112basic_stringIcSt11char_traitsIcESaIcEEEPSo
FNDA:0,_ZN7testing8internal7PrintToERKNSt7__cxx1112basic_stringIcSt11char_traitsIcESaIcEEEPSo
FN:623,_ZN7testing8internal12PrintTupleToISt5tupleIJSt4pairIddES4_dS4_EEEEvRKT_St17integral_constantImLm0EEPSo
FNDA:12,_ZN7testing8internal12PrintTupleToISt5tupleIJSt4pairIddES4_dS4_EEEEvRKT_St17integral_constantImLm0EEPSo
FN:627,_ZN7testing8internal12PrintTupleToISt5tupleIJSt4pairIddES4_dS4_EELm1EEEvRKT_St17integral_constantImXT0_EEPSo
FNDA:12,_ZN7testing8internal12PrintTupleToISt5tupleIJSt4pairIddES4_dS4_EELm1EEEvRKT_St17integral_constantImXT0_EEPSo
FN:627,_ZN7testing8internal12PrintTupleToISt5tupleIJSt4pairIddES4_dS4_EELm2EEEvRKT_St17integral_constantImXT0_EEPSo
FNDA:12,_ZN7testing8internal12PrintTupleToISt5tupleIJSt4pairIddES4_dS4_EELm2EEEvRKT_St17integral_constantImXT0_EEPSo
FN:627,_ZN7testing8internal12PrintTupleToISt5tupleIJSt4pairIddES4_dS4_EELm3EEEvRKT_St17integral_constantImXT0_EEPSo
FNDA:12,_ZN7testing8internal12PrintTupleToISt5tupleIJSt4pairIddES4_dS4_EELm3EEEvRKT_St17integral_constantImXT0_EEPSo
FN:627,_ZN7testing8internal12PrintTupleToISt5tupleIJSt4pairIddES4_dS4_EELm4EEEvRKT_St17integral_constantImXT0_EEPSo
FNDA:12,_ZN7testing8internal12PrintTupleToISt5tupleIJSt4pairIddES4_dS4_EELm4EEEvRKT_St17integral_constantImXT0_EEPSo
FN:640,_ZN7testing8internal7PrintToIJSt4pairIddES3_dS3_EEEvRKSt5tupleIJDpT_EEPSo
FNDA:12,_ZN7testing8internal7PrintToIJSt4pairIddES3_dS3_EEEvRKSt5tupleIJDpT_EEPSo
FN:648,_ZN7testing8internal7PrintToIddEEvRKSt4pairIT_T0_EPSo
FNDA:36,_ZN7testing8internal7PrintToIddEEvRKSt4pairIT_T0_EPSo
FN:670,_ZN7testing8internal16UniversalPrinterImE5PrintERKmPSo
FNDA:0,_ZN7testing8internal16UniversalPrinterImE5PrintERKmPSo
FN:670,_ZN7testing8internal16UniversalPrinterINSt7__cxx1112basic_stringIcSt11char_traitsIcESaIcEEEE5PrintERKS7_PSo
FNDA:0,_ZN7testing8internal16UniversalPrinterINSt7__cxx1112basic_stringIcSt11char_traitsIcESaIcEEEE5PrintERKS7_PSo
FN:670,_ZN7testing8internal16UniversalPrinterISt4pairIddEE5PrintERKS3_PSo
FNDA:36,_ZN7testing8internal16UniversalPrinterISt4pairIddEE5PrintERKS3_PSo
FN:670,_ZN7testing8internal16UniversalPrinterISt5tupleIJSt4pairIddES4_dS4_EEE5PrintERKS5_PSo
FNDA:12,_ZN7testing8internal16UniversalPrinterISt5tupleIJSt4pairIddES4_dS4_EEE5PrintERKS5_PSo
FN:670,_ZN7testing8internal16UniversalPrinterIbE5PrintERKbPSo
FNDA:0,_ZN7testing8internal16UniversalPrinterIbE5PrintERKbPSo
FN:670,_ZN7testing8internal16UniversalPrinterIdE5PrintERKdPSo
FNDA:84,_ZN7testing8internal16UniversalPrinterIdE5PrintERKdPSo
FN:796,_ZN7testing8internal21UniversalTersePrinterImE5PrintERKmPSo
FNDA:0,_ZN7testing8internal21UniversalTersePrinterImE5PrintERKmPSo
FN:796,_ZN7testing8internal21UniversalTersePrinterIbE5PrintERKbPSo
FNDA:0,_ZN7testing8internal21UniversalTersePrinterIbE5PrintERKbPSo
FN:796,_ZN7testing8internal21UniversalTersePrinterINSt7__cxx1112basic_stringIcSt11char_traitsIcESaIcEEEE5PrintERKS7_PSo
FNDA:0,_ZN7testing8internal21UniversalTersePrinterINSt7__cxx1112basic_stringIcSt11char_traitsIcESaIcEEEE5PrintERKS7_PSo
FN:796,_ZN7testing8internal21UniversalTersePrinterIdE5PrintERKdPSo
FNDA:0,_ZN7testing8internal21UniversalTersePrinterIdE5PrintERKdPSo
FN:796,_ZN7testing8internal21UniversalTersePrinterISt5tupleIJSt4pairIddES4_dS4_EEE5PrintERKS5_PSo
FNDA:12,_ZN7testing8internal21UniversalTersePrinterISt5tupleIJSt4pairIddES4_dS4_EEE5PrintERKS5_PSo
FN:865,_ZN7testing8internal14UniversalPrintISt5tupleIJSt4pairIddES4_dS4_EEEEvRKT_PSo
FNDA:12,_ZN7testing8internal14UniversalPrintISt5tupleIJSt4pairIddES4_dS4_EEEEvRKT_PSo
FN:865,_ZN7testing8internal14UniversalPrintIdEEvRKT_PSo
FNDA:0,_ZN7testing8internal14UniversalPrintIdEEvRKT_PSo
FN:865,_ZN7testing8internal14UniversalPrintImEEvRKT_PSo
FNDA:0,_ZN7testing8internal14UniversalPrintImEEvRKT_PSo
FN:865,_ZN7testing8internal14UniversalPrintIbEEvRKT_PSo
FNDA:0,_ZN7testing8internal14UniversalPrintIbEEvRKT_PSo
FN:865,_ZN7testing8internal14UniversalPrintINSt7__cxx1112basic_stringIcSt11char_traitsIcESaIcEEEEEvRKT_PSo
FNDA:0,_ZN7testing8internal14UniversalPrintINSt7__cxx1112basic_stringIcSt11char_traitsIcESaIcEEEEEvRKT_PSo
FN:915,_ZN7testing13PrintToStringISt5tupleIJSt4pairIddES3_dS3_EEEENSt7__cxx1112basic_stringIcSt11char_traitsIcESaIcEEERKT_
FNDA:12,_ZN7testing13PrintToStringISt5tupleIJSt4pairIddES3_dS3_EEEENSt7__cxx1112basic_stringIcSt11char_traitsIcESaIcEEERKT_
FN:915,_ZN7testing13PrintToStringIdEENSt7__cxx1112basic_stringIcSt11char_traitsIcESaIcEEERKT_
FNDA:0,_ZN7testing13PrintToStringIdEENSt7__cxx1112basic_stringIcSt11char_traitsIcESaIcEEERKT_
FN:915,_ZN7testing13PrintToStringImEENSt7__cxx1112basic_stringIcSt11char_traitsIcESaIcEEERKT_
FNDA:0,_ZN7testing13PrintToStringImEENSt7__cxx1112basic_stringIcSt11char_traitsIcESaIcEEERKT_
FN:915,_ZN7testing13PrintToStringINSt7__cxx1112basic_stringIcSt11char_traitsIcESaIcEEEEES6_RKT_
FNDA:0,_ZN7testing13PrintToStringINSt7__cxx1112basic_stringIcSt11char_traitsIcESaIcEEEEES6_RKT_
FN:915,_ZN7testing13PrintToStringIbEENSt7__cxx1112basic_stringIcSt11char_traitsIcESaIcEEERKT_
FNDA:0,_ZN7testing13PrintToStringIbEENSt7__cxx1112basic_stringIcSt11char_traitsIcESaIcEEERKT_
DA:260,0
DA:287,0
DA:288,0
DA:260,84
DA:287,84
DA:288,84
DA:313,0
DA:314,0
DA:313,0
DA:314,0
DA:313,0
DA:314,0
DA:313,0
DA:314,0
DA:377,0
DA:379,0
DA:377,0
DA:379,0
DA:377,0
DA:379,0
DA:377,0
DA:379,0
DA:466,0
DA:468,0
DA:469,0
DA:466,84
DA:468,84
DA:469,84
DA:483,0
DA:503,0
DA:514,0
DA:483,84
DA:503,84
DA:514,84
DA:531,0
DA:532,0
DA:533,0
DA:594,0
DA:595,0
DA:596,0
DA:623,12
DA:624,12
DA:627,12
DA:629,12
DA:635,12
DA:636,12
DA:637,12
DA:627,12
DA:629,12
DA:633,12
DA:635,12
DA:636,12
DA:637,12
DA:627,12
DA:629,12
DA:633,12
DA:635,12
DA:636,12
DA:637,12
DA:627,12
DA:629,12
DA:633,12
DA:635,12
DA:636,12
DA:637,12
DA:640,12
DA:641,12
DA:642,12
DA:643,12
DA:644,12
DA:648,36
DA:649,36
DA:652,36
DA:653,36
DA:654,36
DA:655,36
DA:656,36
DA:670,36
DA:679,36
DA:680,36
DA:670,12
DA:679,12
DA:680,12
DA:670,0
DA:679,0
DA:680,0
DA:670,0
DA:679,0
DA:680,0
DA:670,84
DA:679,84
DA:680,84
DA:670,0
DA:679,0
DA:680,0
DA:796,12
DA:797,12
DA:798,12
DA:796,0
DA:797,0
DA:798,0
DA:796,0
DA:797,0
DA:798,0
DA:796,0
DA:797,0
DA:798,0
DA:796,0
DA:797,0
DA:798,0
DA:865,12
DA:869,12
DA:870,12
DA:865,0
DA:869,0
DA:870,0
DA:865,0
DA:869,0
DA:870,0
DA:865,0
DA:869,0
DA:870,0
DA:865,0
DA:869,0
DA:870,0
DA:915,12
DA:916,12
DA:917,12
DA:918,24
DA:919,12
DA:915,0
DA:916,0
DA:917,0
DA:918,0
DA:919,0
DA:915,0
DA:916,0
DA:917,0
DA:918,0
DA:919,0
DA:915,0
DA:916,0
DA:917,0
DA:918,0
DA:919,0
DA:915,0
DA:916,0
DA:917,0
DA:918,0
DA:919,0
end_of_record
SF:/usr/include/c++/11/atomic
FN:103,_ZNSt6atomicIbE5storeEbSt12memory_order
FNDA:1,_ZNSt6atomicIbE5storeEbSt12memory_order
FN:111,_ZNKSt6atomicIbE4loadESt12memory_order
FNDA:4,_ZNKSt6atomicIbE4loadESt12memory_order
FN:119,_ZNSt6atomicIbE8exchangeEbSt12memory_order
FNDA:1,_ZNSt6atomicIbE8exchangeEbSt12memory_order
DA:103,1
DA:104,1
DA:111,4
DA:112,8
DA:119,1
DA:120,2
end_of_record
SF:/usr/include/c++/11/bits/cpp_type_traits.h
FN:560,_ZSt12__miter_baseIN9__gnu_cxx17__normal_iteratorIPKdSt6vectorIdSaIdEEEEET_S8_
FNDA:160,_ZSt12__miter_baseIN9__gnu_cxx17__normal_iteratorIPKdSt6vectorIdSaIdEEEEET_S8_
FN:560,_ZSt12__miter_baseIN9__gnu_cxx17__normal_iteratorIPKlSt6vectorIlSaIlEEEEET_S8_
FNDA:160,_ZSt12__miter_baseIN9__gnu_cxx17__normal_iteratorIPKlSt6vectorIlSaIlEEEEET_S8_
FN:560,_ZSt12__miter_baseIN9__gnu_cxx17__normal_iteratorIPKhSt6vectorIhSaIhEEEEET_S8_
FNDA:160,_ZSt12__miter_baseIN9__gnu_cxx17__normal_iteratorIPKhSt6vectorIhSaIhEEEEET_S8_
FN:560,_ZSt12__miter_baseIPKN13geometry_msgs3msg17TransformStamped_ISaIvEEEET_S7_
FNDA:0,_ZSt12__miter_baseIPKN13geometry_msgs3msg17TransformStamped_ISaIvEEEET_S7_
FN:560,_ZSt12__miter_baseISt19_Bit_const_iteratorET_S1_
FNDA:160,_ZSt12__miter_baseISt19_Bit_const_iteratorET_S1_
FN:560,_ZSt12__miter_baseIPmET_S1_
FNDA:160,_ZSt12__miter_baseIPmET_S1_
DA:560,160
DA:561,160
DA:560,160
DA:561,160
DA:560,160
DA:561,160
DA:560,0
DA:561,0
DA:560,160
DA:561,160
DA:560,160
DA:561,160
end_of_record
SF:/opt/ros/humble/src/gtest_vendor/include/gtest/internal/gtest-port.h
FN:957,_ZN7testing8internal8GTestLog9GetStreamEv
FNDA:0,_ZN7testing8internal8GTestLog9GetStreamEv
FN:1099,_ZN7testing8internal27CheckedDowncastToActualTypeIKNS0_30ValuesInIteratorRangeGeneratorISt5tupleIJSt4pairIddES5_dS5_EEE8IteratorEKNS0_22ParamIteratorInterfaceIS6_EEEEPT_PT0_
FNDA:13,_ZN7testing8internal27CheckedDowncastToActualTypeIKNS0_30ValuesInIteratorRangeGeneratorISt5tupleIJSt4pairIddES5_dS5_EEE8IteratorEKNS0_22ParamIteratorInterfaceIS6_EEEEPT_PT0_
FN:1099,_ZN7testing8internal27CheckedDowncastToActualTypeINS0_26ParameterizedTestSuiteInfoI29CircleSegmentIntersectionTestEENS0_30ParameterizedTestSuiteInfoBaseEEEPT_PT0_
FNDA:1,_ZN7testing8internal27CheckedDowncastToActualTypeINS0_26ParameterizedTestSuiteInfoI29CircleSegmentIntersectionTestEENS0_30ParameterizedTestSuiteInfoBaseEEEPT_PT0_
FN:2070,_ZN7testing8internal5posix5AbortEv
FNDA:0,_ZN7testing8internal5posix5AbortEv
DA:957,0
DA:1099,13
DA:1101,13
DA:1107,13
DA:1099,1
DA:1101,1
DA:1107,1
DA:2070,0
end_of_record
SF:/usr/include/c++/11/initializer_list
FN:71,_ZNKSt16initializer_listISt5tupleIJSt4pairIddES2_dS2_EEE4sizeEv
FNDA:1,_ZNKSt16initializer_listISt5tupleIJSt4pairIddES2_dS2_EEE4sizeEv
FN:71,_ZNKSt16initializer_listIN13geometry_msgs3msg17TransformStamped_ISaIvEEEE4sizeEv
FNDA:7,_ZNKSt16initializer_listIN13geometry_msgs3msg17TransformStamped_ISaIvEEEE4sizeEv
FN:71,_ZNKSt16initializer_listIN6rclcpp9ParameterEE4sizeEv
FNDA:8,_ZNKSt16initializer_listIN6rclcpp9ParameterEE4sizeEv
FN:75,_ZNKSt16initializer_listISt5tupleIJSt4pairIddES2_dS2_EEE5beginEv
FNDA:2,_ZNKSt16initializer_listISt5tupleIJSt4pairIddES2_dS2_EEE5beginEv
FN:75,_ZNKSt16initializer_listIN13geometry_msgs3msg17TransformStamped_ISaIvEEEE5beginEv
FNDA:14,_ZNKSt16initializer_listIN13geometry_msgs3msg17TransformStamped_ISaIvEEEE5beginEv
FN:75,_ZNKSt16initializer_listIN6rclcpp9ParameterEE5beginEv
FNDA:16,_ZNKSt16initializer_listIN6rclcpp9ParameterEE5beginEv
FN:79,_ZNKSt16initializer_listISt5tupleIJSt4pairIddES2_dS2_EEE3endEv
FNDA:1,_ZNKSt16initializer_listISt5tupleIJSt4pairIddES2_dS2_EEE3endEv
FN:79,_ZNKSt16initializer_listIN13geometry_msgs3msg17TransformStamped_ISaIvEEEE3endEv
FNDA:7,_ZNKSt16initializer_listIN13geometry_msgs3msg17TransformStamped_ISaIvEEEE3endEv
FN:79,_ZNKSt16initializer_listIN6rclcpp9ParameterEE3endEv
FNDA:8,_ZNKSt16initializer_listIN6rclcpp9ParameterEE3endEv
DA:71,1
DA:71,7
DA:71,8
DA:75,2
DA:75,14
DA:75,16
DA:79,1
DA:79,7
DA:79,8
end_of_record
SF:/root/ros2_ws/src/vector_pursuit_controller/test/test_vector_pursuit.cpp
FN:35,_ZN13RclCppFixtureC2Ev
FNDA:1,_ZN13RclCppFixtureC2Ev
FN:36,_ZN13RclCppFixtureD2Ev
FNDA:1,_ZN13RclCppFixtureD2Ev
FN:43,_ZN10ControllerC2Ev
FNDA:11,_ZN10ControllerC2Ev
FN:46,_ZN10Controller7getPlanEv
FNDA:2,_ZN10Controller7getPlanEv
FN:48,_ZN10Controller8getSpeedEv
FNDA:6,_ZN10Controller8getSpeedEv
FN:50,_ZN10Controller26setVelocityScaledLookAheadEv
FNDA:1,_ZN10Controller26setVelocityScaledLookAheadEv
FN:51,_ZN10Controller24setCostRegulationScalingEv
FNDA:1,_ZN10Controller24setCostRegulationScalingEv
FN:53,_ZN10Controller27getLookAheadDistanceWrapperERKN13geometry_msgs3msg6Twist_ISaIvEEE
FNDA:5,_ZN10Controller27getLookAheadDistanceWrapperERKN13geometry_msgs3msg6Twist_ISaIvEEE
FN:58,_ZN10Controller32circleSegmentIntersectionWrapperERKN13geometry_msgs3msg6Point_ISaIvEEES6_d
FNDA:12,_ZN10Controller32circleSegmentIntersectionWrapperERKN13geometry_msgs3msg6Point_ISaIvEEES6_d
FN:66,_ZN10Controller24getLookAheadPointWrapperERKdRKN8nav_msgs3msg5Path_ISaIvEEE
FNDA:4,_ZN10Controller24getLookAheadPointWrapperERKdRKN8nav_msgs3msg5Path_ISaIvEEE
FN:72,_ZN10Controller25shouldRotateToPathWrapperERKN13geometry_msgs3msg12PoseStamped_ISaIvEEERdS7_
FNDA:3,_ZN10Controller25shouldRotateToPathWrapperERKN13geometry_msgs3msg12PoseStamped_ISaIvEEERdS7_
FN:78,_ZN10Controller22rotateToHeadingWrapperERdS0_RKdRKN13geometry_msgs3msg6Twist_ISaIvEEE
FNDA:5,_ZN10Controller22rotateToHeadingWrapperERdS0_RKdRKN13geometry_msgs3msg6Twist_ISaIvEEE
FN:85,_ZN10Controller23applyConstraintsWrapperERKdRKN13geometry_msgs3msg6Twist_ISaIvEEES1_RdRN8nav_msgs3msg5Path_IS5_EE
FNDA:8,_ZN10Controller23applyConstraintsWrapperERKdRKN13geometry_msgs3msg6Twist_ISaIvEEES1_RdRN8nav_msgs3msg5Path_IS5_EE
FN:95,_ZN10Controller26transformGlobalPlanWrapperERKN13geometry_msgs3msg12PoseStamped_ISaIvEEE
FNDA:6,_ZN10Controller26transformGlobalPlanWrapperERKN13geometry_msgs3msg12PoseStamped_ISaIvEEE
FN:101,_ZN10Controller30computeVelocityCommandsWrapperERKN13geometry_msgs3msg12PoseStamped_ISaIvEEERKNS1_6Twist_IS3_EEPN9nav2_core11GoalCheckerE
FNDA:1,_ZN10Controller30computeVelocityCommandsWrapperERKN13geometry_msgs3msg12PoseStamped_ISaIvEEERKNS1_6Twist_IS3_EEPN9nav2_core11GoalCheckerE
FN:110,_ZN31VectorPursuitTest_basicAPI_TestC2Ev
FNDA:1,_ZN31VectorPursuitTest_basicAPI_TestC2Ev
FN:110,_ZN31VectorPursuitTest_basicAPI_Test8TestBodyEv
FNDA:1,_ZN31VectorPursuitTest_basicAPI_Test8TestBodyEv
FN:157,_ZN60CircleSegmentIntersectionTest_circleSegmentIntersection_TestC2Ev
FNDA:12,_ZN60CircleSegmentIntersectionTest_circleSegmentIntersection_TestC2Ev
FN:157,_ZN60CircleSegmentIntersectionTest_circleSegmentIntersection_Test13AddToRegistryEv
FNDA:1,_ZN60CircleSegmentIntersectionTest_circleSegmentIntersection_Test13AddToRegistryEv
FN:157,_ZN60CircleSegmentIntersectionTest_circleSegmentIntersection_Test8TestBodyEv
FNDA:12,_ZN60CircleSegmentIntersectionTest_circleSegmentIntersection_Test8TestBodyEv
FN:163,_ZZN60CircleSegmentIntersectionTest_circleSegmentIntersection_Test8TestBodyEvENKUlSt4pairIddEE_clES1_
FNDA:36,_ZZN60CircleSegmentIntersectionTest_circleSegmentIntersection_Test8TestBodyEvENKUlSt4pairIddEE_clES1_
FN:180,_ZL67gtest_InterpolationTestCircleSegmentIntersectionTest_EvalGenerator_v
FNDA:1,_ZL67gtest_InterpolationTestCircleSegmentIntersectionTest_EvalGenerator_v
FN:180,_ZL70gtest_InterpolationTestCircleSegmentIntersectionTest_EvalGenerateName_RKN7testing13TestParamInfoISt5tupleIJSt4pairIddES3_dS3_EEEE
FNDA:12,_ZL70gtest_InterpolationTestCircleSegmentIntersectionTest_EvalGenerateName_RKN7testing13TestParamInfoISt5tupleIJSt4pairIddES3_dS3_EEEE
FN:270,_ZN35VectorPursuitTest_lookaheadAPI_TestC2Ev
FNDA:1,_ZN35VectorPursuitTest_lookaheadAPI_TestC2Ev
FN:270,_ZN35VectorPursuitTest_lookaheadAPI_Test8TestBodyEv
FNDA:1,_ZN35VectorPursuitTest_lookaheadAPI_Test8TestBodyEv
FN:345,_ZN34VectorPursuitTest_rotateTests_Test8TestBodyEv
FNDA:1,_ZN34VectorPursuitTest_rotateTests_Test8TestBodyEv
FN:345,_ZN34VectorPursuitTest_rotateTests_TestC2Ev
FNDA:1,_ZN34VectorPursuitTest_rotateTests_TestC2Ev
FN:405,_ZN39VectorPursuitTest_applyConstraints_TestC2Ev
FNDA:1,_ZN39VectorPursuitTest_applyConstraints_TestC2Ev
FN:405,_ZN39VectorPursuitTest_applyConstraints_Test8TestBodyEv
FNDA:1,_ZN39VectorPursuitTest_applyConstraints_Test8TestBodyEv
FN:493,_ZN43VectorPursuitTest_testDynamicParameter_TestC2Ev
FNDA:1,_ZN43VectorPursuitTest_testDynamicParameter_TestC2Ev
FN:493,_ZN43VectorPursuitTest_testDynamicParameter_Test8TestBodyEv
FNDA:1,_ZN43VectorPursuitTest_testDynamicParameter_Test8TestBodyEv
FN:552,_ZN23TransformGlobalPlanTest5SetUpEv
FNDA:6,_ZN23TransformGlobalPlanTest5SetUpEv
FN:560,_ZN23TransformGlobalPlanTest17configure_costmapEtd
FNDA:6,_ZN23TransformGlobalPlanTest17configure_costmapEtd
FN:581,_ZN23TransformGlobalPlanTest20configure_controllerEd
FNDA:6,_ZN23TransformGlobalPlanTest20configure_controllerEd
FN:590,_ZN23TransformGlobalPlanTest16setup_transformsERN13geometry_msgs3msg6Point_ISaIvEEE
FNDA:6,_ZN23TransformGlobalPlanTest16setup_transformsERN13geometry_msgs3msg6Point_ISaIvEEE
FN:638,_ZN56TransformGlobalPlanTest_no_pruning_on_large_costmap_TestC2Ev
FNDA:1,_ZN56TransformGlobalPlanTest_no_pruning_on_large_costmap_TestC2Ev
FN:638,_ZN56TransformGlobalPlanTest_no_pruning_on_large_costmap_Test8TestBodyEv
FNDA:1,_ZN56TransformGlobalPlanTest_no_pruning_on_large_costmap_Test8TestBodyEv
FN:679,_ZN54TransformGlobalPlanTest_transform_start_selection_TestC2Ev
FNDA:1,_ZN54TransformGlobalPlanTest_transform_start_selection_TestC2Ev
FN:679,_ZN54TransformGlobalPlanTest_transform_start_selection_Test8TestBodyEv
FNDA:1,_ZN54TransformGlobalPlanTest_transform_start_selection_Test8TestBodyEv
FN:723,_ZN57TransformGlobalPlanTest_all_poses_outside_of_costmap_TestC2Ev
FNDA:1,_ZN57TransformGlobalPlanTest_all_poses_outside_of_costmap_TestC2Ev
FN:723,_ZN57TransformGlobalPlanTest_all_poses_outside_of_costmap_Test8TestBodyEv
FNDA:1,_ZN57TransformGlobalPlanTest_all_poses_outside_of_costmap_Test8TestBodyEv
FN:765,_ZN49TransformGlobalPlanTest_good_circle_shortcut_TestC2Ev
FNDA:1,_ZN49TransformGlobalPlanTest_good_circle_shortcut_TestC2Ev
FN:765,_ZN49TransformGlobalPlanTest_good_circle_shortcut_Test8TestBodyEv
FNDA:1,_ZN49TransformGlobalPlanTest_good_circle_shortcut_Test8TestBodyEv
FN:810,_ZN44TransformGlobalPlanTest_costmap_pruning_TestC2Ev
FNDA:1,_ZN44TransformGlobalPlanTest_costmap_pruning_TestC2Ev
FN:810,_ZN44TransformGlobalPlanTest_costmap_pruning_Test8TestBodyEv
FNDA:1,_ZN44TransformGlobalPlanTest_costmap_pruning_Test8TestBodyEv
FN:855,_ZN56TransformGlobalPlanTest_prune_after_leaving_costmap_TestC2Ev
FNDA:1,_ZN56TransformGlobalPlanTest_prune_after_leaving_costmap_TestC2Ev
FN:855,_ZN56TransformGlobalPlanTest_prune_after_leaving_costmap_Test8TestBodyEv
FNDA:1,_ZN56TransformGlobalPlanTest_prune_after_leaving_costmap_Test8TestBodyEv
FN:905,_ZN27ComputeVelocityCommandsTest5SetUpEv
FNDA:1,_ZN27ComputeVelocityCommandsTest5SetUpEv
FN:914,_ZN27ComputeVelocityCommandsTest17configure_costmapEtd
FNDA:1,_ZN27ComputeVelocityCommandsTest17configure_costmapEtd
FN:932,_ZN27ComputeVelocityCommandsTest20configure_controllerEd
FNDA:1,_ZN27ComputeVelocityCommandsTest20configure_controllerEd
FN:941,_ZN27ComputeVelocityCommandsTest16setup_transformsERN13geometry_msgs3msg6Point_ISaIvEEE
FNDA:1,_ZN27ComputeVelocityCommandsTest16setup_transformsERN13geometry_msgs3msg6Point_ISaIvEEE
FN:988,_ZN45ComputeVelocityCommandsTest_straightLine_Test8TestBodyEv
FNDA:1,_ZN45ComputeVelocityCommandsTest_straightLine_Test8TestBodyEv
FN:988,_ZN45ComputeVelocityCommandsTest_straightLine_TestC2Ev
FNDA:1,_ZN45ComputeVelocityCommandsTest_straightLine_TestC2Ev
DA:35,1
DA:36,1
DA:43,11
DA:44,11
DA:46,2
DA:48,6
DA:50,1
DA:51,1
DA:53,5
DA:55,5
DA:58,12
DA:63,12
DA:66,4
DA:69,4
DA:72,3
DA:75,3
DA:78,5
DA:82,5
DA:85,8
DA:89,8
DA:90,8
DA:92,16
DA:95,6
DA:98,6
DA:101,1
DA:106,1
DA:110,1
DA:112,1
DA:113,1
DA:114,1
DA:115,1
DA:118,1
DA:119,1
DA:120,1
DA:121,1
DA:122,1
DA:123,1
DA:126,1
DA:127,1
DA:128,1
DA:129,1
DA:130,1
DA:131,2
DA:134,1
DA:135,1
DA:136,1
DA:137,1
DA:138,1
DA:139,1
DA:140,1
DA:141,1
DA:142,1
DA:143,1
DA:144,1
DA:110,1
DA:157,12
DA:159,12
DA:160,12
DA:161,12
DA:162,12
DA:170,12
DA:171,12
DA:172,12
DA:173,12
DA:174,12
DA:175,12
DA:177,12
DA:178,12
DA:157,1
DA:157,12
DA:163,36
DA:164,36
DA:165,36
DA:166,36
DA:167,36
DA:168,36
DA:180,12
DA:180,2
DA:270,1
DA:272,1
DA:273,1
DA:274,1
DA:275,1
DA:276,1
DA:277,1
DA:278,1
DA:279,1
DA:281,1
DA:284,1
DA:285,1
DA:288,1
DA:289,1
DA:290,1
DA:293,1
DA:294,1
DA:295,1
DA:298,1
DA:299,1
DA:300,1
DA:303,1
DA:304,1
DA:305,1
DA:308,1
DA:309,2
DA:310,1
DA:311,11
DA:312,10
DA:316,2
DA:317,1
DA:320,2
DA:321,2
DA:322,2
DA:323,2
DA:324,1
DA:325,1
DA:326,1
DA:327,1
DA:330,1
DA:331,1
DA:332,1
DA:335,2
DA:336,2
DA:337,2
DA:338,2
DA:339,1
DA:340,1
DA:341,1
DA:342,1
DA:343,1
DA:270,1
DA:345,1
DA:347,1
DA:348,1
DA:349,1
DA:350,1
DA:351,1
DA:352,1
DA:353,1
DA:354,1
DA:357,1
DA:359,1
DA:361,1
DA:363,1
DA:364,1
DA:365,1
DA:367,1
DA:368,1
DA:369,1
DA:372,1
DA:373,1
DA:374,1
DA:375,1
DA:376,1
DA:379,1
DA:380,1
DA:381,1
DA:384,1
DA:385,1
DA:386,1
DA:387,1
DA:390,1
DA:391,1
DA:392,1
DA:393,1
DA:395,1
DA:396,1
DA:397,1
DA:399,1
DA:400,1
DA:401,1
DA:402,1
DA:403,1
DA:345,1
DA:405,1
DA:407,1
DA:408,1
DA:409,1
DA:410,1
DA:411,1
DA:412,1
DA:413,1
DA:415,1
DA:416,2
DA:418,2
DA:419,2
DA:421,1
DA:423,1
DA:424,1
DA:425,1
DA:426,2
DA:428,1
DA:429,1
DA:430,1
DA:431,1
DA:434,1
DA:435,1
DA:436,1
DA:438,1
DA:439,1
DA:440,1
DA:441,1
DA:442,1
DA:444,1
DA:445,1
DA:446,1
DA:447,1
DA:448,1
DA:451,1
DA:452,1
DA:453,1
DA:454,2
DA:456,1
DA:457,1
DA:458,1
DA:459,1
DA:461,1
DA:464,1
DA:465,1
DA:468,1
DA:469,1
DA:470,1
DA:471,1
DA:472,1
DA:475,1
DA:476,1
DA:477,1
DA:478,1
DA:481,1
DA:482,1
DA:483,1
DA:484,1
DA:487,1
DA:488,1
DA:489,1
DA:490,1
DA:491,1
DA:405,1
DA:493,1
DA:495,1
DA:496,1
DA:497,1
DA:499,1
DA:500,1
DA:501,1
DA:502,1
DA:505,2
DA:506,2
DA:507,2
DA:509,15
DA:524,3
DA:526,2
DA:527,2
DA:530,1
DA:531,1
DA:532,1
DA:533,1
DA:534,1
DA:535,1
DA:536,1
DA:537,1
DA:538,1
DA:539,1
DA:540,1
DA:541,1
DA:542,1
DA:543,1
DA:545,1
DA:546,1
DA:547,1
DA:493,1
DA:552,6
DA:554,6
DA:555,6
DA:556,6
DA:557,6
DA:558,6
DA:560,6
DA:562,6
DA:563,6
DA:565,36
DA:572,18
DA:573,36
DA:574,30
DA:577,12
DA:578,6
DA:579,6
DA:581,6
DA:583,6
DA:584,12
DA:585,12
DA:586,12
DA:587,6
DA:588,6
DA:590,6
DA:592,6
DA:597,6
DA:598,6
DA:599,6
DA:600,6
DA:601,6
DA:602,6
DA:603,6
DA:605,6
DA:606,6
DA:607,6
DA:608,6
DA:609,6
DA:610,6
DA:611,6
DA:613,6
DA:614,24
DA:617,18
DA:618,18
DA:619,12
DA:621,6
DA:622,6
DA:638,1
DA:640,1
DA:641,1
DA:642,1
DA:643,1
DA:644,1
DA:645,1
DA:648,1
DA:649,1
DA:650,1
DA:654,1
DA:655,1
DA:656,1
DA:657,1
DA:658,1
DA:659,1
DA:661,1
DA:662,1
DA:664,1
DA:666,1
DA:667,3
DA:669,1
DA:673,1
DA:674,1
DA:675,1
DA:638,1
DA:679,1
DA:681,1
DA:682,1
DA:683,1
DA:684,1
DA:685,1
DA:686,1
DA:688,1
DA:689,1
DA:693,1
DA:695,1
DA:696,1
DA:697,1
DA:701,1
DA:702,1
DA:703,1
DA:704,1
DA:705,1
DA:706,1
DA:708,1
DA:710,1
DA:711,3
DA:713,1
DA:716,1
DA:717,1
DA:718,1
DA:719,1
DA:720,1
DA:679,1
DA:723,1
DA:725,1
DA:726,1
DA:727,1
DA:729,1
DA:730,1
DA:731,1
DA:733,1
DA:734,1
DA:738,1
DA:740,1
DA:741,1
DA:742,1
DA:746,1
DA:747,1
DA:748,1
DA:749,1
DA:750,1
DA:751,1
DA:753,1
DA:755,1
DA:756,3
DA:758,1
DA:761,1
DA:762,1
DA:723,1
DA:765,1
DA:767,1
DA:768,1
DA:769,1
DA:771,1
DA:772,1
DA:773,1
DA:775,1
DA:776,1
DA:780,1
DA:782,1
DA:783,1
DA:784,1
DA:788,1
DA:789,1
DA:790,1
DA:791,1
DA:792,1
DA:793,1
DA:795,1
DA:797,1
DA:798,3
DA:800,1
DA:803,1
DA:804,1
DA:805,1
DA:806,1
DA:807,1
DA:765,1
DA:810,1
DA:812,1
DA:813,1
DA:814,1
DA:816,1
DA:817,1
DA:818,1
DA:820,1
DA:824,1
DA:825,1
DA:826,1
DA:827,1
DA:831,1
DA:832,1
DA:833,1
DA:834,1
DA:835,1
DA:836,1
DA:838,1
DA:840,1
DA:842,1
DA:843,3
DA:845,1
DA:848,1
DA:849,1
DA:850,1
DA:851,1
DA:852,1
DA:810,1
DA:855,1
DA:857,1
DA:858,1
DA:859,1
DA:861,1
DA:862,1
DA:863,1
DA:865,1
DA:869,1
DA:870,1
DA:871,1
DA:872,1
DA:876,1
DA:877,1
DA:878,1
DA:879,1
DA:880,1
DA:881,1
DA:883,1
DA:885,3
DA:887,1
DA:888,2
DA:889,2
DA:890,5
DA:892,1
DA:895,1
DA:897,1
DA:898,1
DA:899,1
DA:900,1
DA:855,1
DA:905,1
DA:907,1
DA:908,1
DA:909,1
DA:910,1
DA:911,1
DA:912,1
DA:914,1
DA:916,6
DA:923,3
DA:924,6
DA:925,5
DA:928,2
DA:929,1
DA:930,1
DA:932,1
DA:934,1
DA:935,2
DA:936,2
DA:937,2
DA:938,1
DA:939,1
DA:941,1
DA:943,1
DA:948,1
DA:949,1
DA:950,1
DA:951,1
DA:952,1
DA:953,1
DA:954,1
DA:956,1
DA:957,1
DA:958,1
DA:959,1
DA:960,1
DA:961,1
DA:962,1
DA:964,1
DA:965,4
DA:968,3
DA:969,3
DA:970,2
DA:972,1
DA:973,1
DA:988,1
DA:990,1
DA:991,1
DA:992,1
DA:993,1
DA:994,1
DA:995,1
DA:998,1
DA:999,1
DA:1000,1
DA:1001,1
DA:1004,1
DA:1005,1
DA:1006,1
DA:1007,1
DA:1008,1
DA:1009,1
DA:1010,1
DA:1011,1
DA:1012,1
DA:1013,1
DA:1014,1
DA:1015,1
DA:1016,1
DA:1017,1
DA:1018,1
DA:1019,1
DA:1020,1
DA:1021,1
DA:1022,1
DA:1024,1
DA:1025,1
DA:1028,1
DA:1029,1
DA:1030,1
DA:1032,1
DA:1033,1
DA:1034,1
DA:1035,1
DA:988,1
end_of_record
SF:/opt/ros/humble/include/rosidl_runtime_cpp/rosidl_runtime_cpp/bounded_vector.hpp
FN:56,_ZN18rosidl_runtime_cpp13BoundedVectorIN14rcl_interfaces3msg13IntegerRange_ISaIvEEELm1ESaIS5_EEC2Ev
FNDA:414,_ZN18rosidl_runtime_cpp13BoundedVectorIN14rcl_interfaces3msg13IntegerRange_ISaIvEEELm1ESaIS5_EEC2Ev
FN:56,_ZN18rosidl_runtime_cpp13BoundedVectorIN14rcl_interfaces3msg19FloatingPointRange_ISaIvEEELm1ESaIS5_EEC2Ev
FNDA:414,_ZN18rosidl_runtime_cpp13BoundedVectorIN14rcl_interfaces3msg19FloatingPointRange_ISaIvEEELm1ESaIS5_EEC2Ev
FN:196,_ZN18rosidl_runtime_cpp13BoundedVectorIN14rcl_interfaces3msg13IntegerRange_ISaIvEEELm1ESaIS5_EED2Ev
FNDA:414,_ZN18rosidl_runtime_cpp13BoundedVectorIN14rcl_interfaces3msg13IntegerRange_ISaIvEEELm1ESaIS5_EED2Ev
FN:196,_ZN18rosidl_runtime_cpp13BoundedVectorIN14rcl_interfaces3msg19FloatingPointRange_ISaIvEEELm1ESaIS5_EED2Ev
FNDA:414,_ZN18rosidl_runtime_cpp13BoundedVectorIN14rcl_interfaces3msg19FloatingPointRange_ISaIvEEELm1ESaIS5_EED2Ev
DA:56,414
DA:58,414
DA:59,414
DA:56,414
DA:58,414
DA:59,414
DA:196,414
DA:197,414
DA:196,414
DA:197,414
end_of_record
SF:/usr/include/c++/11/bits/atomic_base.h
FN:104,_ZStanSt12memory_orderSt23__memory_order_modifier
FNDA:10,_ZStanSt12memory_orderSt23__memory_order_modifier
DA:104,10
DA:106,10
DA:459,1
DA:464,1
DA:465,1
DA:484,9
DA:488,9
DA:506,1
DA:648,0
end_of_record
SF:/opt/ros/humble/include/rcl_interfaces/rcl_interfaces/msg/detail/set_parameters_result__struct.hpp
end_of_record
SF:/opt/ros/humble/include/geometry_msgs/geometry_msgs/msg/detail/vector3__struct.hpp
FN:36,_ZN13geometry_msgs3msg8Vector3_ISaIvEEC2EN18rosidl_runtime_cpp21MessageInitializationE
FNDA:50,_ZN13geometry_msgs3msg8Vector3_ISaIvEEC2EN18rosidl_runtime_cpp21MessageInitializationE
DA:36,50
DA:38,50
DA:41,50
DA:42,50
DA:43,50
DA:45,50
end_of_record
SF:/usr/include/c++/11/ext/atomicity.h
DA:52,2683
DA:66,1639
DA:71,1044
DA:84,0
DA:85,0
DA:86,0
DA:92,0
DA:98,1639
DA:99,0
DA:101,1639
DA:108,1044
DA:112,1044
end_of_record
SF:/usr/include/c++/11/bits/vector.tcc
FN:109,_ZNSt6vectorIN7testing8internal26ParameterizedTestSuiteInfoI29CircleSegmentIntersectionTestE17InstantiationInfoESaIS5_EE12emplace_backIJS5_EEERS5_DpOT_
FNDA:1,_ZNSt6vectorIN7testing8internal26ParameterizedTestSuiteInfoI29CircleSegmentIntersectionTestE17InstantiationInfoESaIS5_EE12emplace_backIJS5_EEERS5_DpOT_
FN:109,_ZNSt6vectorISt10shared_ptrIN7testing8internal26ParameterizedTestSuiteInfoI29CircleSegmentIntersectionTestE8TestInfoEESaIS7_EE12emplace_backIJS7_EEERS7_DpOT_
FNDA:1,_ZNSt6vectorISt10shared_ptrIN7testing8internal26ParameterizedTestSuiteInfoI29CircleSegmentIntersectionTestE8TestInfoEESaIS7_EE12emplace_backIJS7_EEERS7_DpOT_
FN:109,_ZNSt6vectorIPN7testing8internal30ParameterizedTestSuiteInfoBaseESaIS3_EE12emplace_backIJS3_EEERS3_DpOT_
FNDA:1,_ZNSt6vectorIPN7testing8internal30ParameterizedTestSuiteInfoBaseESaIS3_EE12emplace_backIJS3_EEERS3_DpOT_
FN:300,_ZNSt6vectorIN13geometry_msgs3msg17TransformStamped_ISaIvEEESaIS4_EE13_M_assign_auxIPKS4_EEvT_SA_St20forward_iterator_tag
FNDA:7,_ZNSt6vectorIN13geometry_msgs3msg17TransformStamped_ISaIvEEESaIS4_EE13_M_assign_auxIPKS4_EEvT_SA_St20forward_iterator_tag
FN:426,_ZNSt6vectorIN7testing8internal26ParameterizedTestSuiteInfoI29CircleSegmentIntersectionTestE17InstantiationInfoESaIS5_EE17_M_realloc_insertIJS5_EEEvN9__gnu_cxx17__normal_iteratorIPS5_S7_EEDpOT_
FNDA:1,_ZNSt6vectorIN7testing8internal26ParameterizedTestSuiteInfoI29CircleSegmentIntersectionTestE17InstantiationInfoESaIS5_EE17_M_realloc_insertIJS5_EEEvN9__gnu_cxx17__normal_iteratorIPS5_S7_EEDpOT_
FN:426,_ZNSt6vectorISt10shared_ptrIN7testing8internal26ParameterizedTestSuiteInfoI29CircleSegmentIntersectionTestE8TestInfoEESaIS7_EE17_M_realloc_insertIJS7_EEEvN9__gnu_cxx17__normal_iteratorIPS7_S9_EEDpOT_
FNDA:1,_ZNSt6vectorISt10shared_ptrIN7testing8internal26ParameterizedTestSuiteInfoI29CircleSegmentIntersectionTestE8TestInfoEESaIS7_EE17_M_realloc_insertIJS7_EEEvN9__gnu_cxx17__normal_iteratorIPS7_S9_EEDpOT_
FN:426,_ZNSt6vectorIPN7testing8internal30ParameterizedTestSuiteInfoBaseESaIS3_EE17_M_realloc_insertIJS3_EEEvN9__gnu_cxx17__normal_iteratorIPS3_S5_EEDpOT_
FNDA:1,_ZNSt6vectorIPN7testing8internal30ParameterizedTestSuiteInfoBaseESaIS3_EE17_M_realloc_insertIJS3_EEEvN9__gnu_cxx17__normal_iteratorIPS3_S5_EEDpOT_
FN:611,_ZNSt6vectorIN13geometry_msgs3msg12PoseStamped_ISaIvEEESaIS4_EE17_M_default_appendEm
FNDA:3,_ZNSt6vectorIN13geometry_msgs3msg12PoseStamped_ISaIvEEESaIS4_EE17_M_default_appendEm
DA:109,1
DA:112,1
DA:115,0
DA:117,0
DA:121,1
DA:123,1
DA:109,1
DA:112,1
DA:115,0
DA:117,0
DA:121,1
DA:123,1
DA:109,1
DA:112,1
DA:115,0
DA:117,0
DA:121,1
DA:123,1
DA:300,7
DA:304,7
DA:306,7
DA:308,7
DA:309,7
DA:310,7
DA:311,7
DA:313,7
DA:314,7
DA:315,7
DA:316,7
DA:317,7
DA:318,7
DA:320,0
DA:321,0
DA:324,0
DA:325,0
DA:326,0
DA:327,0
DA:329,0
DA:330,0
DA:332,0
DA:335,7
DA:426,1
DA:436,1
DA:437,1
DA:438,1
DA:439,1
DA:440,1
DA:441,1
DA:449,1
DA:450,1
DA:456,1
DA:461,1
DA:462,1
DA:464,1
DA:466,1
DA:467,1
DA:500,1
DA:501,1
DA:502,1
DA:503,1
DA:504,1
DA:505,1
DA:426,1
DA:436,1
DA:437,1
DA:438,1
DA:439,1
DA:440,1
DA:441,1
DA:449,1
DA:450,1
DA:456,1
DA:461,1
DA:462,1
DA:464,1
DA:466,1
DA:467,1
DA:500,1
DA:501,1
DA:502,1
DA:503,1
DA:504,1
DA:505,1
DA:426,1
DA:436,1
DA:437,1
DA:438,1
DA:439,1
DA:440,1
DA:441,1
DA:449,1
DA:450,1
DA:456,1
DA:461,1
DA:462,1
DA:464,1
DA:466,1
DA:467,1
DA:500,1
DA:501,1
DA:502,1
DA:503,1
DA:504,1
DA:505,1
DA:611,3
DA:614,3
DA:616,3
DA:617,3
DA:618,3
DA:620,3
DA:621,0
DA:623,3
DA:626,0
DA:627,0
DA:628,0
DA:634,3
DA:635,3
DA:640,3
DA:641,3
DA:643,0
DA:645,0
DA:646,0
DA:648,3
DA:649,3
DA:675,3
DA:676,3
DA:677,3
DA:678,3
DA:679,3
DA:680,3
DA:683,3
end_of_record
SF:/usr/include/c++/11/bits/ptr_traits.h
FN:159,_ZSt12__to_addressISt23_Sp_counted_ptr_inplaceI10ControllerSaIS1_ELN9__gnu_cxx12_Lock_policyE2EEEPT_S7_
FNDA:11,_ZSt12__to_addressISt23_Sp_counted_ptr_inplaceI10ControllerSaIS1_ELN9__gnu_cxx12_Lock_policyE2EEEPT_S7_
FN:159,_ZSt12__to_addressISt23_Sp_counted_ptr_inplaceIN15nav2_costmap_2d12Costmap2DROSESaIS2_ELN9__gnu_cxx12_Lock_policyE2EEEPT_S8_
FNDA:12,_ZSt12__to_addressISt23_Sp_counted_ptr_inplaceIN15nav2_costmap_2d12Costmap2DROSESaIS2_ELN9__gnu_cxx12_Lock_policyE2EEEPT_S8_
FN:159,_ZSt12__to_addressISt23_Sp_counted_ptr_inplaceIN7tf2_ros6BufferESaIS2_ELN9__gnu_cxx12_Lock_policyE2EEEPT_S8_
FNDA:12,_ZSt12__to_addressISt23_Sp_counted_ptr_inplaceIN7tf2_ros6BufferESaIS2_ELN9__gnu_cxx12_Lock_policyE2EEEPT_S8_
FN:159,_ZSt12__to_addressISt23_Sp_counted_ptr_inplaceIN16rclcpp_lifecycle13LifecycleNodeESaIS2_ELN9__gnu_cxx12_Lock_policyE2EEEPT_S8_
FNDA:12,_ZSt12__to_addressISt23_Sp_counted_ptr_inplaceIN16rclcpp_lifecycle13LifecycleNodeESaIS2_ELN9__gnu_cxx12_Lock_policyE2EEEPT_S8_
FN:159,_ZSt12__to_addressISt23_Sp_counted_ptr_inplaceIN6rclcpp21AsyncParametersClientESaIS2_ELN9__gnu_cxx12_Lock_policyE2EEEPT_S8_
FNDA:1,_ZSt12__to_addressISt23_Sp_counted_ptr_inplaceIN6rclcpp21AsyncParametersClientESaIS2_ELN9__gnu_cxx12_Lock_policyE2EEEPT_S8_
DA:159,11
DA:162,11
DA:159,12
DA:162,12
DA:159,12
DA:162,12
DA:159,12
DA:162,12
DA:159,1
DA:162,1
end_of_record
SF:/opt/ros/humble/include/rclcpp/rclcpp/qos_overriding_options.hpp
end_of_record
SF:/usr/include/c++/11/new
FN:174,_ZnwmPv
FNDA:4596,_ZnwmPv
FN:180,_ZdlPvS_
FNDA:0,_ZdlPvS_
DA:174,4596
DA:175,4596
DA:180,0
end_of_record
SF:/opt/ros/humble/include/geometry_msgs/geometry_msgs/msg/detail/quaternion__struct.hpp
FN:36,_ZN13geometry_msgs3msg11Quaternion_ISaIvEEC2EN18rosidl_runtime_cpp21MessageInitializationE
FNDA:1876,_ZN13geometry_msgs3msg11Quaternion_ISaIvEEC2EN18rosidl_runtime_cpp21MessageInitializationE
DA:36,1876
DA:38,1876
DA:41,1876
DA:42,1876
DA:43,1876
DA:44,1876
DA:45,0
DA:46,0
DA:47,0
DA:48,0
DA:49,0
DA:51,1876
end_of_record
SF:/opt/ros/humble/include/rcpputils/rcpputils/scope_exit.hpp
FN:28,_ZN9rcpputils10scope_exitIZN6rclcpp8Executor26spin_until_future_completeISt13shared_futureIN14rcl_interfaces3msg20SetParametersResult_ISaIvEEEElSt5ratioILl1ELl1000EEEENS1_16FutureReturnCodeERKT_NSt6chrono8durationIT0_T1_EEEUlvE_EC2EOSM_
FNDA:1,_ZN9rcpputils10scope_exitIZN6rclcpp8Executor26spin_until_future_completeISt13shared_futureIN14rcl_interfaces3msg20SetParametersResult_ISaIvEEEElSt5ratioILl1ELl1000EEEENS1_16FutureReturnCodeERKT_NSt6chrono8durationIT0_T1_EEEUlvE_EC2EOSM_
FN:39,_ZN9rcpputils10scope_exitIZN6rclcpp8Executor26spin_until_future_completeISt13shared_futureIN14rcl_interfaces3msg20SetParametersResult_ISaIvEEEElSt5ratioILl1ELl1000EEEENS1_16FutureReturnCodeERKT_NSt6chrono8durationIT0_T1_EEEUlvE_ED2Ev
FNDA:1,_ZN9rcpputils10scope_exitIZN6rclcpp8Executor26spin_until_future_completeISt13shared_futureIN14rcl_interfaces3msg20SetParametersResult_ISaIvEEEElSt5ratioILl1ELl1000EEEENS1_16FutureReturnCodeERKT_NSt6chrono8durationIT0_T1_EEEUlvE_ED2Ev
FN:58,_ZN9rcpputils15make_scope_exitIZN6rclcpp8Executor26spin_until_future_completeISt13shared_futureIN14rcl_interfaces3msg20SetParametersResult_ISaIvEEEElSt5ratioILl1ELl1000EEEENS1_16FutureReturnCodeERKT_NSt6chrono8durationIT0_T1_EEEUlvE_EENS_10scope_exitISE_EEOSE_
FNDA:1,_ZN9rcpputils15make_scope_exitIZN6rclcpp8Executor26spin_until_future_completeISt13shared_futureIN14rcl_interfaces3msg20SetParametersResult_ISaIvEEEElSt5ratioILl1ELl1000EEEENS1_16FutureReturnCodeERKT_NSt6chrono8durationIT0_T1_EEEUlvE_EENS_10scope_exitISE_EEOSE_
DA:28,1
DA:29,1
DA:31,1
DA:39,1
DA:41,1
DA:42,1
DA:44,1
DA:58,1
DA:60,1
end_of_record
SF:/usr/include/c++/11/bits/allocator.h
FN:156,_ZNSaIN16rclcpp_lifecycle13LifecycleNodeEEC2Ev
FNDA:12,_ZNSaIN16rclcpp_lifecycle13LifecycleNodeEEC2Ev
FN:156,_ZNSaIN13geometry_msgs3msg12PoseStamped_ISaIvEEEEC2Ev
FNDA:31,_ZNSaIN13geometry_msgs3msg12PoseStamped_ISaIvEEEEC2Ev
FN:156,_ZNSaIN13geometry_msgs3msg17TransformStamped_ISaIvEEEEC2Ev
FNDA:7,_ZNSaIN13geometry_msgs3msg17TransformStamped_ISaIvEEEEC2Ev
FN:156,_ZNSaI10ControllerEC2Ev
FNDA:11,_ZNSaI10ControllerEC2Ev
FN:156,_ZNSaIN6rclcpp9ParameterEEC2Ev
FNDA:8,_ZNSaIN6rclcpp9ParameterEEC2Ev
FN:156,_ZNSaISt5tupleIJSt4pairIddES1_dS1_EEEC2Ev
FNDA:2,_ZNSaISt5tupleIJSt4pairIddES1_dS1_EEEC2Ev
FN:156,_ZNSaIN15nav2_costmap_2d12Costmap2DROSEEC2Ev
FNDA:12,_ZNSaIN15nav2_costmap_2d12Costmap2DROSEEC2Ev
FN:156,_ZNSaIN14rcl_interfaces3msg19FloatingPointRange_ISaIvEEEEC2Ev
FNDA:414,_ZNSaIN14rcl_interfaces3msg19FloatingPointRange_ISaIvEEEEC2Ev
FN:156,_ZNSaIN14rcl_interfaces3msg13IntegerRange_ISaIvEEEEC2Ev
FNDA:414,_ZNSaIN14rcl_interfaces3msg13IntegerRange_ISaIvEEEEC2Ev
FN:156,_ZNSaISt10shared_ptrIN7testing8internal26ParameterizedTestSuiteInfoI29CircleSegmentIntersectionTestE8TestInfoEEEC2Ev
FNDA:1,_ZNSaISt10shared_ptrIN7testing8internal26ParameterizedTestSuiteInfoI29CircleSegmentIntersectionTestE8TestInfoEEEC2Ev
FN:156,_ZNSaIN7testing8internal26ParameterizedTestSuiteInfoI29CircleSegmentIntersectionTestE17InstantiationInfoEEC2Ev
FNDA:1,_ZNSaIN7testing8internal26ParameterizedTestSuiteInfoI29CircleSegmentIntersectionTestE17InstantiationInfoEEC2Ev
FN:156,_ZNSaIN7tf2_ros6BufferEEC2Ev
FNDA:12,_ZNSaIN7tf2_ros6BufferEEC2Ev
FN:156,_ZNSaISt13_Rb_tree_nodeINSt7__cxx1112basic_stringIcSt11char_traitsIcESaIcEEEEEC2Ev
FNDA:1,_ZNSaISt13_Rb_tree_nodeINSt7__cxx1112basic_stringIcSt11char_traitsIcESaIcEEEEEC2Ev
FN:156,_ZNSaIN6rclcpp21AsyncParametersClientEEC2Ev
FNDA:1,_ZNSaIN6rclcpp21AsyncParametersClientEEC2Ev
FN:159,_ZNSaIN7tf2_ros6BufferEEC2ERKS1_
FNDA:36,_ZNSaIN7tf2_ros6BufferEEC2ERKS1_
FN:159,_ZNSaISt5tupleIJSt4pairIddES1_dS1_EEEC2ERKS3_
FNDA:4,_ZNSaISt5tupleIJSt4pairIddES1_dS1_EEEC2ERKS3_
FN:159,_ZNSaI10ControllerEC2ERKS0_
FNDA:33,_ZNSaI10ControllerEC2ERKS0_
FN:159,_ZNSaIhEC2ERKS_
FNDA:160,_ZNSaIhEC2ERKS_
FN:159,_ZNSaImEC2ERKS_
FNDA:160,_ZNSaImEC2ERKS_
FN:159,_ZNSaIN15nav2_costmap_2d12Costmap2DROSEEC2ERKS1_
FNDA:36,_ZNSaIN15nav2_costmap_2d12Costmap2DROSEEC2ERKS1_
FN:159,_ZNSaIlEC2ERKS_
FNDA:160,_ZNSaIlEC2ERKS_
FN:159,_ZNSaIdEC2ERKS_
FNDA:160,_ZNSaIdEC2ERKS_
FN:159,_ZNSaIN16rclcpp_lifecycle13LifecycleNodeEEC2ERKS1_
FNDA:36,_ZNSaIN16rclcpp_lifecycle13LifecycleNodeEEC2ERKS1_
FN:159,_ZNSaIN6rclcpp9ParameterEEC2ERKS1_
FNDA:18,_ZNSaIN6rclcpp9ParameterEEC2ERKS1_
FN:159,_ZNSaINSt7__cxx1112basic_stringIcSt11char_traitsIcESaIcEEEEC2ERKS5_
FNDA:546,_ZNSaINSt7__cxx1112basic_stringIcSt11char_traitsIcESaIcEEEEC2ERKS5_
FN:159,_ZNSaIN13geometry_msgs3msg12PoseStamped_ISaIvEEEEC2ERKS4_
FNDA:4,_ZNSaIN13geometry_msgs3msg12PoseStamped_ISaIvEEEEC2ERKS4_
FN:159,_ZNSaIN6rclcpp21AsyncParametersClientEEC2ERKS1_
FNDA:3,_ZNSaIN6rclcpp21AsyncParametersClientEEC2ERKS1_
FN:159,_ZNSaIN13geometry_msgs3msg17TransformStamped_ISaIvEEEEC2ERKS4_
FNDA:7,_ZNSaIN13geometry_msgs3msg17TransformStamped_ISaIvEEEEC2ERKS4_
FN:169,_ZNSaIbEC2ImEERKSaIT_E
FNDA:80,_ZNSaIbEC2ImEERKSaIT_E
FN:169,_ZNSaISt23_Sp_counted_ptr_inplaceI10ControllerSaIS0_ELN9__gnu_cxx12_Lock_policyE2EEEC2IS0_EERKSaIT_E
FNDA:22,_ZNSaISt23_Sp_counted_ptr_inplaceI10ControllerSaIS0_ELN9__gnu_cxx12_Lock_policyE2EEEC2IS0_EERKSaIT_E
FN:169,_ZNSaISt23_Sp_counted_ptr_inplaceIN6rclcpp21AsyncParametersClientESaIS1_ELN9__gnu_cxx12_Lock_policyE2EEEC2IS1_EERKSaIT_E
FNDA:2,_ZNSaISt23_Sp_counted_ptr_inplaceIN6rclcpp21AsyncParametersClientESaIS1_ELN9__gnu_cxx12_Lock_policyE2EEEC2IS1_EERKSaIT_E
FN:169,_ZNSaISt23_Sp_counted_ptr_inplaceIN15nav2_costmap_2d12Costmap2DROSESaIS1_ELN9__gnu_cxx12_Lock_policyE2EEEC2IS1_EERKSaIT_E
FNDA:24,_ZNSaISt23_Sp_counted_ptr_inplaceIN15nav2_costmap_2d12Costmap2DROSESaIS1_ELN9__gnu_cxx12_Lock_policyE2EEEC2IS1_EERKSaIT_E
FN:169,_ZNSaISt23_Sp_counted_ptr_inplaceIN16rclcpp_lifecycle13LifecycleNodeESaIS1_ELN9__gnu_cxx12_Lock_policyE2EEEC2IS1_EERKSaIT_E
FNDA:24,_ZNSaISt23_Sp_counted_ptr_inplaceIN16rclcpp_lifecycle13LifecycleNodeESaIS1_ELN9__gnu_cxx12_Lock_policyE2EEEC2IS1_EERKSaIT_E
FN:169,_ZNSaImEC2IbEERKSaIT_E
FNDA:80,_ZNSaImEC2IbEERKSaIT_E
FN:169,_ZNSaISt23_Sp_counted_ptr_inplaceIN7tf2_ros6BufferESaIS1_ELN9__gnu_cxx12_Lock_policyE2EEEC2IS1_EERKSaIT_E
FNDA:24,_ZNSaISt23_Sp_counted_ptr_inplaceIN7tf2_ros6BufferESaIS1_ELN9__gnu_cxx12_Lock_policyE2EEEC2IS1_EERKSaIT_E
FN:174,_ZNSaIdED2Ev
FNDA:1505,_ZNSaIdED2Ev
FN:174,_ZNSaINSt7__cxx1112basic_stringIcSt11char_traitsIcESaIcEEEED2Ev
FNDA:2095,_ZNSaINSt7__cxx1112basic_stringIcSt11char_traitsIcESaIcEEEED2Ev
FN:174,_ZNSaIhED2Ev
FNDA:1505,_ZNSaIhED2Ev
FN:174,_ZNSaImED2Ev
FNDA:1585,_ZNSaImED2Ev
FN:174,_ZNSaIlED2Ev
FNDA:1505,_ZNSaIlED2Ev
FN:174,_ZNSaIN14rcl_interfaces3msg13IntegerRange_ISaIvEEEED2Ev
FNDA:414,_ZNSaIN14rcl_interfaces3msg13IntegerRange_ISaIvEEEED2Ev
FN:174,_ZNSaIN14rcl_interfaces3msg19FloatingPointRange_ISaIvEEEED2Ev
FNDA:414,_ZNSaIN14rcl_interfaces3msg19FloatingPointRange_ISaIvEEEED2Ev
FN:174,_ZNSaIN6rclcpp9ParameterEED2Ev
FNDA:38,_ZNSaIN6rclcpp9ParameterEED2Ev
FN:174,_ZNSaIN6rclcpp13QosPolicyKindEED2Ev
FNDA:306,_ZNSaIN6rclcpp13QosPolicyKindEED2Ev
FN:174,_ZNSaIN14rcl_interfaces3msg20SetParametersResult_ISaIvEEEED2Ev
FNDA:7,_ZNSaIN14rcl_interfaces3msg20SetParametersResult_ISaIvEEEED2Ev
FN:174,_ZNSaIN13geometry_msgs3msg12PoseStamped_ISaIvEEEED2Ev
FNDA:63,_ZNSaIN13geometry_msgs3msg12PoseStamped_ISaIvEEEED2Ev
FN:174,_ZNSaIN13geometry_msgs3msg17TransformStamped_ISaIvEEEED2Ev
FNDA:14,_ZNSaIN13geometry_msgs3msg17TransformStamped_ISaIvEEEED2Ev
FN:174,_ZNSaIbED2Ev
FNDA:80,_ZNSaIbED2Ev
FN:174,_ZNSaIN6rclcpp21AsyncParametersClientEED2Ev
FNDA:4,_ZNSaIN6rclcpp21AsyncParametersClientEED2Ev
FN:174,_ZNSaIN16rclcpp_lifecycle13LifecycleNodeEED2Ev
FNDA:48,_ZNSaIN16rclcpp_lifecycle13LifecycleNodeEED2Ev
FN:174,_ZNSaIN7tf2_ros6BufferEED2Ev
FNDA:48,_ZNSaIN7tf2_ros6BufferEED2Ev
FN:174,_ZNSaIN15nav2_costmap_2d12Costmap2DROSEED2Ev
FNDA:48,_ZNSaIN15nav2_costmap_2d12Costmap2DROSEED2Ev
FN:174,_ZNSaI10ControllerED2Ev
FNDA:44,_ZNSaI10ControllerED2Ev
FN:174,_ZNSaISt10shared_ptrIN7testing8internal26ParameterizedTestSuiteInfoI29CircleSegmentIntersectionTestE8TestInfoEEED2Ev
FNDA:1,_ZNSaISt10shared_ptrIN7testing8internal26ParameterizedTestSuiteInfoI29CircleSegmentIntersectionTestE8TestInfoEEED2Ev
FN:174,_ZNSaIN7testing8internal26ParameterizedTestSuiteInfoI29CircleSegmentIntersectionTestE17InstantiationInfoEED2Ev
FNDA:1,_ZNSaIN7testing8internal26ParameterizedTestSuiteInfoI29CircleSegmentIntersectionTestE17InstantiationInfoEED2Ev
FN:174,_ZNSaISt5tupleIJSt4pairIddES1_dS1_EEED2Ev
FNDA:6,_ZNSaISt5tupleIJSt4pairIddES1_dS1_EEED2Ev
FN:174,_ZNSaISt23_Sp_counted_ptr_inplaceIN6rclcpp21AsyncParametersClientESaIS1_ELN9__gnu_cxx12_Lock_policyE2EEED2Ev
FNDA:2,_ZNSaISt23_Sp_counted_ptr_inplaceIN6rclcpp21AsyncParametersClientESaIS1_ELN9__gnu_cxx12_Lock_policyE2EEED2Ev
FN:174,_ZNSaISt23_Sp_counted_ptr_inplaceIN16rclcpp_lifecycle13LifecycleNodeESaIS1_ELN9__gnu_cxx12_Lock_policyE2EEED2Ev
FNDA:24,_ZNSaISt23_Sp_counted_ptr_inplaceIN16rclcpp_lifecycle13LifecycleNodeESaIS1_ELN9__gnu_cxx12_Lock_policyE2EEED2Ev
FN:174,_ZNSaISt23_Sp_counted_ptr_inplaceIN7tf2_ros6BufferESaIS1_ELN9__gnu_cxx12_Lock_policyE2EEED2Ev
FNDA:24,_ZNSaISt23_Sp_counted_ptr_inplaceIN7tf2_ros6BufferESaIS1_ELN9__gnu_cxx12_Lock_policyE2EEED2Ev
FN:174,_ZNSaISt23_Sp_counted_ptr_inplaceIN15nav2_costmap_2d12Costmap2DROSESaIS1_ELN9__gnu_cxx12_Lock_policyE2EEED2Ev
FNDA:24,_ZNSaISt23_Sp_counted_ptr_inplaceIN15nav2_costmap_2d12Costmap2DROSESaIS1_ELN9__gnu_cxx12_Lock_policyE2EEED2Ev
FN:174,_ZNSaISt23_Sp_counted_ptr_inplaceI10ControllerSaIS0_ELN9__gnu_cxx12_Lock_policyE2EEED2Ev
FNDA:22,_ZNSaISt23_Sp_counted_ptr_inplaceI10ControllerSaIS0_ELN9__gnu_cxx12_Lock_policyE2EEED2Ev
FN:174,_ZNSaISt13_Rb_tree_nodeINSt7__cxx1112basic_stringIcSt11char_traitsIcESaIcEEEEED2Ev
FNDA:1,_ZNSaISt13_Rb_tree_nodeINSt7__cxx1112basic_stringIcSt11char_traitsIcESaIcEEEEED2Ev
DA:156,1
DA:156,1
DA:156,1
DA:156,414
DA:156,414
DA:156,2
DA:156,7
DA:156,31
DA:156,11
DA:156,12
DA:156,12
DA:156,12
DA:156,1
DA:156,8
DA:159,4
DA:160,4
DA:159,33
DA:160,33
DA:159,36
DA:160,36
DA:159,36
DA:160,36
DA:159,36
DA:160,36
DA:159,3
DA:160,3
DA:159,18
DA:160,18
DA:159,7
DA:160,7
DA:159,4
DA:160,4
DA:159,160
DA:160,160
DA:159,160
DA:160,160
DA:159,160
DA:160,160
DA:159,160
DA:160,160
DA:159,546
DA:160,546
DA:169,22
DA:169,24
DA:169,24
DA:169,24
DA:169,2
DA:169,80
DA:169,80
DA:174,4
DA:174,2095
DA:174,1505
DA:174,1585
DA:174,1505
DA:174,1505
DA:174,38
DA:174,306
DA:174,7
DA:174,63
DA:174,14
DA:174,414
DA:174,414
DA:174,80
DA:174,1
DA:174,48
DA:174,48
DA:174,48
DA:174,44
DA:174,1
DA:174,1
DA:174,6
DA:174,2
DA:174,24
DA:174,24
DA:174,24
DA:174,22
end_of_record
SF:/opt/ros/humble/include/nav_msgs/nav_msgs/msg/detail/path__struct.hpp
FN:42,_ZN8nav_msgs3msg5Path_ISaIvEEC2EN18rosidl_runtime_cpp21MessageInitializationE
FNDA:31,_ZN8nav_msgs3msg5Path_ISaIvEEC2EN18rosidl_runtime_cpp21MessageInitializationE
DA:42,31
DA:43,31
DA:46,31
end_of_record
SF:/opt/ros/humble/include/rclcpp/rclcpp/parameter_value.hpp
end_of_record
SF:/opt/ros/humble/include/tf2/tf2/LinearMath/QuadWord.h
FN:61,_ZNK3tf28QuadWord4getXEv
FNDA:759,_ZNK3tf28QuadWord4getXEv
FN:63,_ZNK3tf28QuadWord4getYEv
FNDA:759,_ZNK3tf28QuadWord4getYEv
FN:65,_ZNK3tf28QuadWord4getZEv
FNDA:759,_ZNK3tf28QuadWord4getZEv
FN:154,_ZN3tf28QuadWordC2ERKdS2_S2_S2_
FNDA:769,_ZN3tf28QuadWordC2ERKdS2_S2_S2_
DA:61,759
DA:63,759
DA:65,759
DA:154,769
DA:155,769
DA:156,769
DA:157,769
end_of_record
SF:/opt/ros/humble/include/tf2/tf2/LinearMath/Quaternion.h
FN:39,_ZN3tf210QuaternionC2ERKdS2_S2_S2_
FNDA:769,_ZN3tf210QuaternionC2ERKdS2_S2_S2_
FN:351,_ZNK3tf210Quaternion4getWEv
FNDA:759,_ZNK3tf210Quaternion4getWEv
DA:39,769
DA:40,769
DA:41,769
DA:351,759
end_of_record
SF:/usr/include/c++/11/bits/basic_string.h
FN:251,_ZNSt7__cxx1112basic_stringIcSt11char_traitsIcESaIcEE16_M_construct_auxIPcEEvT_S7_St12__false_type
FNDA:0,_ZNSt7__cxx1112basic_stringIcSt11char_traitsIcESaIcEE16_M_construct_auxIPcEEvT_S7_St12__false_type
FN:271,_ZNSt7__cxx1112basic_stringIcSt11char_traitsIcESaIcEE12_M_constructIPcEEvT_S7_
FNDA:0,_ZNSt7__cxx1112basic_stringIcSt11char_traitsIcESaIcEE12_M_constructIPcEEvT_S7_
FN:533,_ZNSt7__cxx1112basic_stringIcSt11char_traitsIcESaIcEEC2IS3_EEPKcRKS3_
FNDA:2546,_ZNSt7__cxx1112basic_stringIcSt11char_traitsIcESaIcEEC2IS3_EEPKcRKS3_
FN:6132,_ZStplIcSt11char_traitsIcESaIcEENSt7__cxx1112basic_stringIT_T0_T1_EERKS8_PKS5_
FNDA:934,_ZStplIcSt11char_traitsIcESaIcEENSt7__cxx1112basic_stringIT_T0_T1_EERKS8_PKS5_
FN:6234,_ZSteqIcEN9__gnu_cxx11__enable_ifIXsrSt9__is_charIT_E7__valueEbE6__typeERKNSt7__cxx1112basic_stringIS3_St11char_traitsIS3_ESaIS3_EEESE_
FNDA:1171,_ZSteqIcEN9__gnu_cxx11__enable_ifIXsrSt9__is_charIT_E7__valueEbE6__typeERKNSt7__cxx1112basic_stringIS3_St11char_traitsIS3_ESaIS3_EEESE_
FN:6248,_ZSteqIcSt11char_traitsIcESaIcEEbRKNSt7__cxx1112basic_stringIT_T0_T1_EEPKS5_
FNDA:534,_ZSteqIcSt11char_traitsIcESaIcEEbRKNSt7__cxx1112basic_stringIT_T0_T1_EEPKS5_
FN:6340,_ZStltIcSt11char_traitsIcESaIcEEbRKNSt7__cxx1112basic_stringIT_T0_T1_EESA_
FNDA:92,_ZStltIcSt11char_traitsIcESaIcEEbRKNSt7__cxx1112basic_stringIT_T0_T1_EESA_
DA:251,0
DA:255,0
DA:256,0
DA:271,0
DA:274,0
DA:275,0
DA:533,2546
DA:534,2546
DA:536,2546
DA:539,2546
DA:540,2546
DA:6132,934
DA:6135,934
DA:6136,934
DA:6137,934
DA:6138,0
DA:6234,1171
DA:6236,1171
DA:6237,1171
DA:6238,1171
DA:6248,534
DA:6250,534
DA:6340,92
DA:6343,92
end_of_record
SF:/usr/include/c++/11/bits/std_mutex.h
FN:65,_ZNSt12__mutex_baseC2Ev
FNDA:12,_ZNSt12__mutex_baseC2Ev
FN:91,_ZNSt5mutexC2Ev
FNDA:12,_ZNSt5mutexC2Ev
DA:65,12
DA:91,12
end_of_record
SF:/opt/ros/humble/include/geometry_msgs/geometry_msgs/msg/detail/twist_stamped__struct.hpp
end_of_record
SF:/usr/include/c++/11/bits/atomic_futex.h
FN:128,_ZNSt23__atomic_futex_unsignedILj2147483648EE29_M_load_and_test_until_steadyEjjbSt12memory_orderbNSt6chrono8durationIlSt5ratioILl1ELl1EEEENS3_IlS4_ILl1ELl1000000000EEEE
FNDA:0,_ZNSt23__atomic_futex_unsignedILj2147483648EE29_M_load_and_test_until_steadyEjjbSt12memory_orderbNSt6chrono8durationIlSt5ratioILl1ELl1EEEENS3_IlS4_ILl1ELl1000000000EEEE
FN:183,_ZNSt23__atomic_futex_unsignedILj2147483648EE27_M_load_and_test_until_implINSt6chrono8durationIlSt5ratioILl1ELl1000000000EEEEEEjjjbSt12memory_orderRKNS2_10time_pointINS2_3_V212steady_clockET_EE
FNDA:0,_ZNSt23__atomic_futex_unsignedILj2147483648EE27_M_load_and_test_until_implINSt6chrono8durationIlSt5ratioILl1ELl1000000000EEEEEEjjjbSt12memory_orderRKNS2_10time_pointINS2_3_V212steady_clockET_EE
DA:87,10
DA:128,0
DA:132,0
DA:139,0
DA:140,0
DA:144,0
DA:145,0
DA:146,0
DA:183,0
DA:187,0
DA:188,0
DA:190,0
DA:191,0
DA:223,0
DA:224,0
DA:266,0
DA:267,0
DA:268,0
DA:270,0
DA:271,0
end_of_record
SF:/opt/ros/humble/include/rclcpp/rclcpp/node_options.hpp
FN:68,_ZN6rclcpp11NodeOptionsD0Ev
FNDA:0,_ZN6rclcpp11NodeOptionsD0Ev
FN:68,_ZN6rclcpp11NodeOptionsD2Ev
FNDA:12,_ZN6rclcpp11NodeOptionsD2Ev
DA:68,0
DA:68,12
end_of_record
SF:/usr/include/c++/11/bits/allocated_ptr.h
FN:53,_ZNSt15__allocated_ptrISaISt23_Sp_counted_ptr_inplaceIN15nav2_costmap_2d12Costmap2DROSESaIS2_ELN9__gnu_cxx12_Lock_policyE2EEEEC2ERS7_PS6_
FNDA:24,_ZNSt15__allocated_ptrISaISt23_Sp_counted_ptr_inplaceIN15nav2_costmap_2d12Costmap2DROSESaIS2_ELN9__gnu_cxx12_Lock_policyE2EEEEC2ERS7_PS6_
FN:53,_ZNSt15__allocated_ptrISaISt23_Sp_counted_ptr_inplaceIN7tf2_ros6BufferESaIS2_ELN9__gnu_cxx12_Lock_policyE2EEEEC2ERS7_PS6_
FNDA:24,_ZNSt15__allocated_ptrISaISt23_Sp_counted_ptr_inplaceIN7tf2_ros6BufferESaIS2_ELN9__gnu_cxx12_Lock_policyE2EEEEC2ERS7_PS6_
FN:53,_ZNSt15__allocated_ptrISaISt23_Sp_counted_ptr_inplaceIN16rclcpp_lifecycle13LifecycleNodeESaIS2_ELN9__gnu_cxx12_Lock_policyE2EEEEC2ERS7_PS6_
FNDA:24,_ZNSt15__allocated_ptrISaISt23_Sp_counted_ptr_inplaceIN16rclcpp_lifecycle13LifecycleNodeESaIS2_ELN9__gnu_cxx12_Lock_policyE2EEEEC2ERS7_PS6_
FN:53,_ZNSt15__allocated_ptrISaISt23_Sp_counted_ptr_inplaceIN6rclcpp21AsyncParametersClientESaIS2_ELN9__gnu_cxx12_Lock_policyE2EEEEC2ERS7_PS6_
FNDA:2,_ZNSt15__allocated_ptrISaISt23_Sp_counted_ptr_inplaceIN6rclcpp21AsyncParametersClientESaIS2_ELN9__gnu_cxx12_Lock_policyE2EEEEC2ERS7_PS6_
FN:53,_ZNSt15__allocated_ptrISaISt23_Sp_counted_ptr_inplaceI10ControllerSaIS1_ELN9__gnu_cxx12_Lock_policyE2EEEEC2ERS6_PS5_
FNDA:22,_ZNSt15__allocated_ptrISaISt23_Sp_counted_ptr_inplaceI10ControllerSaIS1_ELN9__gnu_cxx12_Lock_policyE2EEEEC2ERS6_PS5_
FN:71,_ZNSt15__allocated_ptrISaISt23_Sp_counted_ptr_inplaceIN16rclcpp_lifecycle13LifecycleNodeESaIS2_ELN9__gnu_cxx12_Lock_policyE2EEEED2Ev
FNDA:24,_ZNSt15__allocated_ptrISaISt23_Sp_counted_ptr_inplaceIN16rclcpp_lifecycle13LifecycleNodeESaIS2_ELN9__gnu_cxx12_Lock_policyE2EEEED2Ev
FN:71,_ZNSt15__allocated_ptrISaISt23_Sp_counted_ptr_inplaceI10ControllerSaIS1_ELN9__gnu_cxx12_Lock_policyE2EEEED2Ev
FNDA:22,_ZNSt15__allocated_ptrISaISt23_Sp_counted_ptr_inplaceI10ControllerSaIS1_ELN9__gnu_cxx12_Lock_policyE2EEEED2Ev
FN:71,_ZNSt15__allocated_ptrISaISt23_Sp_counted_ptr_inplaceIN7tf2_ros6BufferESaIS2_ELN9__gnu_cxx12_Lock_policyE2EEEED2Ev
FNDA:24,_ZNSt15__allocated_ptrISaISt23_Sp_counted_ptr_inplaceIN7tf2_ros6BufferESaIS2_ELN9__gnu_cxx12_Lock_policyE2EEEED2Ev
FN:71,_ZNSt15__allocated_ptrISaISt23_Sp_counted_ptr_inplaceIN15nav2_costmap_2d12Costmap2DROSESaIS2_ELN9__gnu_cxx12_Lock_policyE2EEEED2Ev
FNDA:24,_ZNSt15__allocated_ptrISaISt23_Sp_counted_ptr_inplaceIN15nav2_costmap_2d12Costmap2DROSESaIS2_ELN9__gnu_cxx12_Lock_policyE2EEEED2Ev
FN:71,_ZNSt15__allocated_ptrISaISt23_Sp_counted_ptr_inplaceIN6rclcpp21AsyncParametersClientESaIS2_ELN9__gnu_cxx12_Lock_policyE2EEEED2Ev
FNDA:2,_ZNSt15__allocated_ptrISaISt23_Sp_counted_ptr_inplaceIN6rclcpp21AsyncParametersClientESaIS2_ELN9__gnu_cxx12_Lock_policyE2EEEED2Ev
FN:79,_ZNSt15__allocated_ptrISaISt23_Sp_counted_ptr_inplaceIN6rclcpp21AsyncParametersClientESaIS2_ELN9__gnu_cxx12_Lock_policyE2EEEEaSEDn
FNDA:1,_ZNSt15__allocated_ptrISaISt23_Sp_counted_ptr_inplaceIN6rclcpp21AsyncParametersClientESaIS2_ELN9__gnu_cxx12_Lock_policyE2EEEEaSEDn
FN:79,_ZNSt15__allocated_ptrISaISt23_Sp_counted_ptr_inplaceIN16rclcpp_lifecycle13LifecycleNodeESaIS2_ELN9__gnu_cxx12_Lock_policyE2EEEEaSEDn
FNDA:12,_ZNSt15__allocated_ptrISaISt23_Sp_counted_ptr_inplaceIN16rclcpp_lifecycle13LifecycleNodeESaIS2_ELN9__gnu_cxx12_Lock_policyE2EEEEaSEDn
FN:79,_ZNSt15__allocated_ptrISaISt23_Sp_counted_ptr_inplaceIN7tf2_ros6BufferESaIS2_ELN9__gnu_cxx12_Lock_policyE2EEEEaSEDn
FNDA:12,_ZNSt15__allocated_ptrISaISt23_Sp_counted_ptr_inplaceIN7tf2_ros6BufferESaIS2_ELN9__gnu_cxx12_Lock_policyE2EEEEaSEDn
FN:79,_ZNSt15__allocated_ptrISaISt23_Sp_counted_ptr_inplaceIN15nav2_costmap_2d12Costmap2DROSESaIS2_ELN9__gnu_cxx12_Lock_policyE2EEEEaSEDn
FNDA:12,_ZNSt15__allocated_ptrISaISt23_Sp_counted_ptr_inplaceIN15nav2_costmap_2d12Costmap2DROSESaIS2_ELN9__gnu_cxx12_Lock_policyE2EEEEaSEDn
FN:79,_ZNSt15__allocated_ptrISaISt23_Sp_counted_ptr_inplaceI10ControllerSaIS1_ELN9__gnu_cxx12_Lock_policyE2EEEEaSEDn
FNDA:11,_ZNSt15__allocated_ptrISaISt23_Sp_counted_ptr_inplaceI10ControllerSaIS1_ELN9__gnu_cxx12_Lock_policyE2EEEEaSEDn
FN:86,_ZNSt15__allocated_ptrISaISt23_Sp_counted_ptr_inplaceIN15nav2_costmap_2d12Costmap2DROSESaIS2_ELN9__gnu_cxx12_Lock_policyE2EEEE3getEv
FNDA:12,_ZNSt15__allocated_ptrISaISt23_Sp_counted_ptr_inplaceIN15nav2_costmap_2d12Costmap2DROSESaIS2_ELN9__gnu_cxx12_Lock_policyE2EEEE3getEv
FN:86,_ZNSt15__allocated_ptrISaISt23_Sp_counted_ptr_inplaceIN7tf2_ros6BufferESaIS2_ELN9__gnu_cxx12_Lock_policyE2EEEE3getEv
FNDA:12,_ZNSt15__allocated_ptrISaISt23_Sp_counted_ptr_inplaceIN7tf2_ros6BufferESaIS2_ELN9__gnu_cxx12_Lock_policyE2EEEE3getEv
FN:86,_ZNSt15__allocated_ptrISaISt23_Sp_counted_ptr_inplaceIN6rclcpp21AsyncParametersClientESaIS2_ELN9__gnu_cxx12_Lock_policyE2EEEE3getEv
FNDA:1,_ZNSt15__allocated_ptrISaISt23_Sp_counted_ptr_inplaceIN6rclcpp21AsyncParametersClientESaIS2_ELN9__gnu_cxx12_Lock_policyE2EEEE3getEv
FN:86,_ZNSt15__allocated_ptrISaISt23_Sp_counted_ptr_inplaceI10ControllerSaIS1_ELN9__gnu_cxx12_Lock_policyE2EEEE3getEv
FNDA:11,_ZNSt15__allocated_ptrISaISt23_Sp_counted_ptr_inplaceI10ControllerSaIS1_ELN9__gnu_cxx12_Lock_policyE2EEEE3getEv
FN:86,_ZNSt15__allocated_ptrISaISt23_Sp_counted_ptr_inplaceIN16rclcpp_lifecycle13LifecycleNodeESaIS2_ELN9__gnu_cxx12_Lock_policyE2EEEE3getEv
FNDA:12,_ZNSt15__allocated_ptrISaISt23_Sp_counted_ptr_inplaceIN16rclcpp_lifecycle13LifecycleNodeESaIS2_ELN9__gnu_cxx12_Lock_policyE2EEEE3getEv
FN:96,_ZSt18__allocate_guardedISaISt23_Sp_counted_ptr_inplaceIN6rclcpp21AsyncParametersClientESaIS2_ELN9__gnu_cxx12_Lock_policyE2EEEESt15__allocated_ptrIT_ERS9_
FNDA:1,_ZSt18__allocate_guardedISaISt23_Sp_counted_ptr_inplaceIN6rclcpp21AsyncParametersClientESaIS2_ELN9__gnu_cxx12_Lock_policyE2EEEESt15__allocated_ptrIT_ERS9_
FN:96,_ZSt18__allocate_guardedISaISt23_Sp_counted_ptr_inplaceIN16rclcpp_lifecycle13LifecycleNodeESaIS2_ELN9__gnu_cxx12_Lock_policyE2EEEESt15__allocated_ptrIT_ERS9_
FNDA:12,_ZSt18__allocate_guardedISaISt23_Sp_counted_ptr_inplaceIN16rclcpp_lifecycle13LifecycleNodeESaIS2_ELN9__gnu_cxx12_Lock_policyE2EEEESt15__allocated_ptrIT_ERS9_
FN:96,_ZSt18__allocate_guardedISaISt23_Sp_counted_ptr_inplaceIN7tf2_ros6BufferESaIS2_ELN9__gnu_cxx12_Lock_policyE2EEEESt15__allocated_ptrIT_ERS9_
FNDA:12,_ZSt18__allocate_guardedISaISt23_Sp_counted_ptr_inplaceIN7tf2_ros6BufferESaIS2_ELN9__gnu_cxx12_Lock_policyE2EEEESt15__allocated_ptrIT_ERS9_
FN:96,_ZSt18__allocate_guardedISaISt23_Sp_counted_ptr_inplaceIN15nav2_costmap_2d12Costmap2DROSESaIS2_ELN9__gnu_cxx12_Lock_policyE2EEEESt15__allocated_ptrIT_ERS9_
FNDA:12,_ZSt18__allocate_guardedISaISt23_Sp_counted_ptr_inplaceIN15nav2_costmap_2d12Costmap2DROSESaIS2_ELN9__gnu_cxx12_Lock_policyE2EEEESt15__allocated_ptrIT_ERS9_
FN:96,_ZSt18__allocate_guardedISaISt23_Sp_counted_ptr_inplaceI10ControllerSaIS1_ELN9__gnu_cxx12_Lock_policyE2EEEESt15__allocated_ptrIT_ERS8_
FNDA:11,_ZSt18__allocate_guardedISaISt23_Sp_counted_ptr_inplaceI10ControllerSaIS1_ELN9__gnu_cxx12_Lock_policyE2EEEESt15__allocated_ptrIT_ERS8_
DA:53,22
DA:54,22
DA:55,22
DA:53,24
DA:54,24
DA:55,24
DA:53,24
DA:54,24
DA:55,24
DA:53,24
DA:54,24
DA:55,24
DA:53,2
DA:54,2
DA:55,2
DA:71,22
DA:73,22
DA:74,11
DA:75,22
DA:71,24
DA:73,24
DA:74,12
DA:75,24
DA:71,24
DA:73,24
DA:74,12
DA:75,24
DA:71,24
DA:73,24
DA:74,12
DA:75,24
DA:71,2
DA:73,2
DA:74,1
DA:75,2
DA:79,11
DA:81,11
DA:82,11
DA:79,12
DA:81,12
DA:82,12
DA:79,12
DA:81,12
DA:82,12
DA:79,12
DA:81,12
DA:82,12
DA:79,1
DA:81,1
DA:82,1
DA:86,11
DA:86,12
DA:86,12
DA:86,12
DA:86,1
DA:96,11
DA:98,11
DA:96,12
DA:98,12
DA:96,12
DA:98,12
DA:96,12
DA:98,12
DA:96,1
DA:98,1
end_of_record
SF:/usr/include/c++/11/iostream
end_of_record
SF:/usr/include/c++/11/ext/alloc_traits.h
FN:97,_ZN9__gnu_cxx14__alloc_traitsISaIN13geometry_msgs3msg12PoseStamped_ISaIvEEEES5_E17_S_select_on_copyERKS6_
FNDA:2,_ZN9__gnu_cxx14__alloc_traitsISaIN13geometry_msgs3msg12PoseStamped_ISaIvEEEES5_E17_S_select_on_copyERKS6_
FN:97,_ZN9__gnu_cxx14__alloc_traitsISaIdEdE17_S_select_on_copyERKS1_
FNDA:80,_ZN9__gnu_cxx14__alloc_traitsISaIdEdE17_S_select_on_copyERKS1_
FN:97,_ZN9__gnu_cxx14__alloc_traitsISaIlElE17_S_select_on_copyERKS1_
FNDA:80,_ZN9__gnu_cxx14__alloc_traitsISaIlElE17_S_select_on_copyERKS1_
FN:97,_ZN9__gnu_cxx14__alloc_traitsISaImEmE17_S_select_on_copyERKS1_
FNDA:80,_ZN9__gnu_cxx14__alloc_traitsISaImEmE17_S_select_on_copyERKS1_
FN:97,_ZN9__gnu_cxx14__alloc_traitsISaIhEhE17_S_select_on_copyERKS1_
FNDA:80,_ZN9__gnu_cxx14__alloc_traitsISaIhEhE17_S_select_on_copyERKS1_
FN:97,_ZN9__gnu_cxx14__alloc_traitsISaINSt7__cxx1112basic_stringIcSt11char_traitsIcESaIcEEEES6_E17_S_select_on_copyERKS7_
FNDA:82,_ZN9__gnu_cxx14__alloc_traitsISaINSt7__cxx1112basic_stringIcSt11char_traitsIcESaIcEEEES6_E17_S_select_on_copyERKS7_
FN:97,_ZN9__gnu_cxx14__alloc_traitsISaIcEcE17_S_select_on_copyERKS1_
FNDA:0,_ZN9__gnu_cxx14__alloc_traitsISaIcEcE17_S_select_on_copyERKS1_
DA:97,2
DA:98,2
DA:97,80
DA:98,80
DA:97,80
DA:98,80
DA:97,80
DA:98,80
DA:97,80
DA:98,80
DA:97,82
DA:98,82
DA:97,0
DA:98,0
end_of_record
SF:/opt/ros/humble/include/rclcpp/rclcpp/publisher_options.hpp
end_of_record
SF:/usr/include/c++/11/chrono
FN:211,_ZNSt6chrono20__duration_cast_implINS_8durationIlSt5ratioILl1ELl1000000000EEEES2_ILl1ELl1EElLb1ELb1EE6__castIlS3_EES4_RKNS1_IT_T0_EE
FNDA:158,_ZNSt6chrono20__duration_cast_implINS_8durationIlSt5ratioILl1ELl1000000000EEEES2_ILl1ELl1EElLb1ELb1EE6__castIlS3_EES4_RKNS1_IT_T0_EE
FN:223,_ZNSt6chrono20__duration_cast_implINS_8durationIlSt5ratioILl1ELl1EEEES2_ILl1ELl1000000000EElLb1ELb0EE6__castIlS5_EES4_RKNS1_IT_T0_EE
FNDA:0,_ZNSt6chrono20__duration_cast_implINS_8durationIlSt5ratioILl1ELl1EEEES2_ILl1ELl1000000000EElLb1ELb0EE6__castIlS5_EES4_RKNS1_IT_T0_EE
FN:236,_ZNSt6chrono20__duration_cast_implINS_8durationIlSt5ratioILl1ELl1000000000EEEES2_ILl1000000000ELl1EElLb0ELb1EE6__castIlS2_ILl1ELl1EEEES4_RKNS1_IT_T0_EE
FNDA:0,_ZNSt6chrono20__duration_cast_implINS_8durationIlSt5ratioILl1ELl1000000000EEEES2_ILl1000000000ELl1EElLb0ELb1EE6__castIlS2_ILl1ELl1EEEES4_RKNS1_IT_T0_EE
FN:236,_ZNSt6chrono20__duration_cast_implINS_8durationIlSt5ratioILl1ELl1000000000EEEES2_ILl1000000ELl1EElLb0ELb1EE6__castIlS2_ILl1ELl1000EEEES4_RKNS1_IT_T0_EE
FNDA:1,_ZNSt6chrono20__duration_cast_implINS_8durationIlSt5ratioILl1ELl1000000000EEEES2_ILl1000000ELl1EElLb0ELb1EE6__castIlS2_ILl1ELl1000EEEES4_RKNS1_IT_T0_EE
FN:267,_ZNSt6chrono13duration_castINS_8durationIlSt5ratioILl1ELl1000000000EEEElS2_ILl1ELl1EEEENSt9enable_ifIXsrNS_13__is_durationIT_EE5valueES8_E4typeERKNS1_IT0_T1_EE
FNDA:0,_ZNSt6chrono13duration_castINS_8durationIlSt5ratioILl1ELl1000000000EEEElS2_ILl1ELl1EEEENSt9enable_ifIXsrNS_13__is_durationIT_EE5valueES8_E4typeERKNS1_IT0_T1_EE
FN:267,_ZNSt6chrono13duration_castINS_8durationIlSt5ratioILl1ELl1000000000EEEElS3_EENSt9enable_ifIXsrNS_13__is_durationIT_EE5valueES7_E4typeERKNS1_IT0_T1_EE
FNDA:158,_ZNSt6chrono13duration_castINS_8durationIlSt5ratioILl1ELl1000000000EEEElS3_EENSt9enable_ifIXsrNS_13__is_durationIT_EE5valueES7_E4typeERKNS1_IT0_T1_EE
FN:267,_ZNSt6chrono13duration_castINS_8durationIlSt5ratioILl1ELl1EEEElS2_ILl1ELl1000000000EEEENSt9enable_ifIXsrNS_13__is_durationIT_EE5valueES8_E4typeERKNS1_IT0_T1_EE
FNDA:0,_ZNSt6chrono13duration_castINS_8durationIlSt5ratioILl1ELl1EEEElS2_ILl1ELl1000000000EEEENSt9enable_ifIXsrNS_13__is_durationIT_EE5valueES8_E4typeERKNS1_IT0_T1_EE
FN:267,_ZNSt6chrono13duration_castINS_8durationIlSt5ratioILl1ELl1000000000EEEElS2_ILl1ELl1000EEEENSt9enable_ifIXsrNS_13__is_durationIT_EE5valueES8_E4typeERKNS1_IT0_T1_EE
FNDA:1,_ZNSt6chrono13duration_castINS_8durationIlSt5ratioILl1ELl1000000000EEEElS2_ILl1ELl1000EEEENSt9enable_ifIXsrNS_13__is_durationIT_EE5valueES8_E4typeERKNS1_IT0_T1_EE
FN:360,_ZNSt6chrono4ceilINS_8durationIlSt5ratioILl1ELl1000000000EEEElS2_ILl1ELl1EEEENSt9enable_ifIXsrNS_13__is_durationIT_EE5valueES8_E4typeERKNS1_IT0_T1_EE
FNDA:0,_ZNSt6chrono4ceilINS_8durationIlSt5ratioILl1ELl1000000000EEEElS2_ILl1ELl1EEEENSt9enable_ifIXsrNS_13__is_durationIT_EE5valueES8_E4typeERKNS1_IT0_T1_EE
FN:432,_ZNSt6chrono15duration_valuesIlE4zeroEv
FNDA:8,_ZNSt6chrono15duration_valuesIlE4zeroEv
FN:521,_ZNSt6chrono8durationIlSt5ratioILl1ELl1000000000EEEC1IlvEERKT_
FNDA:321,_ZNSt6chrono8durationIlSt5ratioILl1ELl1000000000EEEC1IlvEERKT_
FN:521,_ZNSt6chrono8durationIlSt5ratioILl1ELl1000EEEC2IivEERKT_
FNDA:1,_ZNSt6chrono8durationIlSt5ratioILl1ELl1000EEEC2IivEERKT_
FN:521,_ZNSt6chrono8durationIlSt5ratioILl1ELl1EEEC1IlvEERKT_
FNDA:4,_ZNSt6chrono8durationIlSt5ratioILl1ELl1EEEC1IlvEERKT_
FN:521,_ZNSt6chrono8durationIlSt5ratioILl1ELl1EEEC1IivEERKT_
FNDA:5,_ZNSt6chrono8durationIlSt5ratioILl1ELl1EEEC1IivEERKT_
FN:521,_ZNSt6chrono8durationIlSt5ratioILl1ELl1000000000EEEC2IivEERKT_
FNDA:0,_ZNSt6chrono8durationIlSt5ratioILl1ELl1000000000EEEC2IivEERKT_
FN:529,_ZNSt6chrono8durationIlSt5ratioILl1ELl1000000000EEEC1IlS1_ILl1ELl1EEvEERKNS0_IT_T0_EE
FNDA:0,_ZNSt6chrono8durationIlSt5ratioILl1ELl1000000000EEEC1IlS1_ILl1ELl1EEvEERKNS0_IT_T0_EE
FN:537,_ZNKSt6chrono8durationIlSt5ratioILl1ELl1000000000EEE5countEv
FNDA:166,_ZNKSt6chrono8durationIlSt5ratioILl1ELl1000000000EEE5countEv
FN:537,_ZNKSt6chrono8durationIlSt5ratioILl1ELl1000EEE5countEv
FNDA:1,_ZNKSt6chrono8durationIlSt5ratioILl1ELl1000EEE5countEv
FN:537,_ZNKSt6chrono8durationIlSt5ratioILl1ELl1EEE5countEv
FNDA:8,_ZNKSt6chrono8durationIlSt5ratioILl1ELl1EEE5countEv
FN:573,_ZNSt6chrono8durationIlSt5ratioILl1ELl1000000000EEEpLERKS3_
FNDA:0,_ZNSt6chrono8durationIlSt5ratioILl1ELl1000000000EEEpLERKS3_
FN:623,_ZNSt6chrono8durationIlSt5ratioILl1ELl1EEE4zeroEv
FNDA:4,_ZNSt6chrono8durationIlSt5ratioILl1ELl1EEE4zeroEv
FN:623,_ZNSt6chrono8durationIlSt5ratioILl1ELl1000000000EEE4zeroEv
FNDA:4,_ZNSt6chrono8durationIlSt5ratioILl1ELl1000000000EEE4zeroEv
FN:646,_ZNSt6chronoplIlSt5ratioILl1ELl1000000000EElS2_EENSt11common_typeIJNS_8durationIT_T0_EENS4_IT1_T2_EEEE4typeERKS7_RKSA_
FNDA:0,_ZNSt6chronoplIlSt5ratioILl1ELl1000000000EElS2_EENSt11common_typeIJNS_8durationIT_T0_EENS4_IT1_T2_EEEE4typeERKS7_RKSA_
FN:660,_ZNSt6chronomiIlSt5ratioILl1ELl1000000000EElS2_EENSt11common_typeIJNS_8durationIT_T0_EENS4_IT1_T2_EEEE4typeERKS7_RKSA_
FNDA:0,_ZNSt6chronomiIlSt5ratioILl1ELl1000000000EElS2_EENSt11common_typeIJNS_8durationIT_T0_EENS4_IT1_T2_EEEE4typeERKS7_RKSA_
FN:660,_ZNSt6chronomiIlSt5ratioILl1ELl1000000000EElS1_ILl1ELl1EEEENSt11common_typeIJNS_8durationIT_T0_EENS5_IT1_T2_EEEE4typeERKS8_RKSB_
FNDA:0,_ZNSt6chronomiIlSt5ratioILl1ELl1000000000EElS1_ILl1ELl1EEEENSt11common_typeIJNS_8durationIT_T0_EENS5_IT1_T2_EEEE4typeERKS8_RKSB_
FN:772,_ZNSt6chronoltIlSt5ratioILl1ELl1EElS2_EEbRKNS_8durationIT_T0_EERKNS3_IT1_T2_EE
FNDA:4,_ZNSt6chronoltIlSt5ratioILl1ELl1EElS2_EEbRKNS_8durationIT_T0_EERKNS3_IT1_T2_EE
FN:772,_ZNSt6chronoltIlSt5ratioILl1ELl1000000000EElS1_ILl1ELl1EEEEbRKNS_8durationIT_T0_EERKNS4_IT1_T2_EE
FNDA:0,_ZNSt6chronoltIlSt5ratioILl1ELl1000000000EElS1_ILl1ELl1EEEEbRKNS_8durationIT_T0_EERKNS4_IT1_T2_EE
FN:772,_ZNSt6chronoltIlSt5ratioILl1ELl1000000000EElS2_EEbRKNS_8durationIT_T0_EERKNS3_IT1_T2_EE
FNDA:4,_ZNSt6chronoltIlSt5ratioILl1ELl1000000000EElS2_EEbRKNS_8durationIT_T0_EERKNS3_IT1_T2_EE
FN:812,_ZNSt6chronogtIlSt5ratioILl1ELl1000000000EElS2_EEbRKNS_8durationIT_T0_EERKNS3_IT1_T2_EE
FNDA:1,_ZNSt6chronogtIlSt5ratioILl1ELl1000000000EElS2_EEbRKNS_8durationIT_T0_EERKNS3_IT1_T2_EE
FN:812,_ZNSt6chronogtIlSt5ratioILl1ELl1EElS2_EEbRKNS_8durationIT_T0_EERKNS3_IT1_T2_EE
FNDA:4,_ZNSt6chronogtIlSt5ratioILl1ELl1EElS2_EEbRKNS_8durationIT_T0_EERKNS3_IT1_T2_EE
FN:885,_ZNSt6chrono10time_pointINS_3_V212steady_clockENS_8durationIlSt5ratioILl1ELl1EEEEEC2ERKS6_
FNDA:0,_ZNSt6chrono10time_pointINS_3_V212steady_clockENS_8durationIlSt5ratioILl1ELl1EEEEEC2ERKS6_
FN:885,_ZNSt6chrono10time_pointINS_3_V212steady_clockENS_8durationIlSt5ratioILl1ELl1000000000EEEEEC1ERKS6_
FNDA:0,_ZNSt6chrono10time_pointINS_3_V212steady_clockENS_8durationIlSt5ratioILl1ELl1000000000EEEEEC1ERKS6_
FN:898,_ZNKSt6chrono10time_pointINS_3_V212steady_clockENS_8durationIlSt5ratioILl1ELl1000000000EEEEE16time_since_epochEv
FNDA:0,_ZNKSt6chrono10time_pointINS_3_V212steady_clockENS_8durationIlSt5ratioILl1ELl1000000000EEEEE16time_since_epochEv
FN:898,_ZNKSt6chrono10time_pointINS_3_V212steady_clockENS_8durationIlSt5ratioILl1ELl1EEEEE16time_since_epochEv
FNDA:0,_ZNKSt6chrono10time_pointINS_3_V212steady_clockENS_8durationIlSt5ratioILl1ELl1EEEEE16time_since_epochEv
FN:927,_ZNSt6chrono10time_pointINS_3_V212steady_clockENS_8durationIlSt5ratioILl1ELl1000000000EEEEEpLERKS6_
FNDA:0,_ZNSt6chrono10time_pointINS_3_V212steady_clockENS_8durationIlSt5ratioILl1ELl1000000000EEEEEpLERKS6_
FN:957,_ZNSt6chrono15time_point_castINS_8durationIlSt5ratioILl1ELl1EEEENS_3_V212steady_clockENS1_IlS2_ILl1ELl1000000000EEEEEENSt9enable_ifIXsrNS_13__is_durationIT_EE5valueENS_10time_pointIT0_SB_EEE4typeERKNSD_ISE_T1_EE
FNDA:0,_ZNSt6chrono15time_point_castINS_8durationIlSt5ratioILl1ELl1EEEENS_3_V212steady_clockENS1_IlS2_ILl1ELl1000000000EEEEEENSt9enable_ifIXsrNS_13__is_durationIT_EE5valueENS_10time_pointIT0_SB_EEE4typeERKNSD_ISE_T1_EE
FN:1002,_ZNSt6chronoplINS_3_V212steady_clockENS_8durationIlSt5ratioILl1ELl1000000000EEEElS5_EENS_10time_pointIT_NSt11common_typeIJT0_NS3_IT1_T2_EEEE4typeEEERKNS7_IS8_SA_EERKSD_
FNDA:0,_ZNSt6chronoplINS_3_V212steady_clockENS_8durationIlSt5ratioILl1ELl1000000000EEEElS5_EENS_10time_pointIT_NSt11common_typeIJT0_NS3_IT1_T2_EEEE4typeEEERKNS7_IS8_SA_EERKSD_
FN:1042,_ZNSt6chronomiINS_3_V212steady_clockENS_8durationIlSt5ratioILl1ELl1000000000EEEES6_EENSt11common_typeIJT0_T1_EE4typeERKNS_10time_pointIT_S8_EERKNSC_ISD_S9_EE
FNDA:0,_ZNSt6chronomiINS_3_V212steady_clockENS_8durationIlSt5ratioILl1ELl1000000000EEEES6_EENSt11common_typeIJT0_T1_EE4typeERKNS_10time_pointIT_S8_EERKNSC_ISD_S9_EE
FN:1042,_ZNSt6chronomiINS_3_V212steady_clockENS_8durationIlSt5ratioILl1ELl1000000000EEEENS3_IlS4_ILl1ELl1EEEEEENSt11common_typeIJT0_T1_EE4typeERKNS_10time_pointIT_SA_EERKNSE_ISF_SB_EE
FNDA:0,_ZNSt6chronomiINS_3_V212steady_clockENS_8durationIlSt5ratioILl1ELl1000000000EEEENS3_IlS4_ILl1ELl1EEEEEENSt11common_typeIJT0_T1_EE4typeERKNS_10time_pointIT_SA_EERKNSE_ISF_SB_EE
FN:1075,_ZNSt6chronoltINS_3_V212steady_clockENS_8durationIlSt5ratioILl1ELl1000000000EEEES6_EEbRKNS_10time_pointIT_T0_EERKNS7_IS8_T1_EE
FNDA:0,_ZNSt6chronoltINS_3_V212steady_clockENS_8durationIlSt5ratioILl1ELl1000000000EEEES6_EEbRKNS_10time_pointIT_T0_EERKNS7_IS8_T1_EE
FN:1093,_ZNSt6chronogeINS_3_V212steady_clockENS_8durationIlSt5ratioILl1ELl1000000000EEEES6_EEbRKNS_10time_pointIT_T0_EERKNS7_IS8_T1_EE
FNDA:0,_ZNSt6chronogeINS_3_V212steady_clockENS_8durationIlSt5ratioILl1ELl1000000000EEEES6_EEbRKNS_10time_pointIT_T0_EERKNS7_IS8_T1_EE
DA:211,158
DA:214,158
DA:223,0
DA:226,0
DA:227,0
DA:236,1
DA:239,2
DA:240,1
DA:236,0
DA:239,0
DA:240,0
DA:267,1
DA:276,1
DA:267,0
DA:276,0
DA:267,158
DA:276,158
DA:267,0
DA:276,0
DA:360,0
DA:362,0
DA:363,0
DA:364,0
DA:365,0
DA:432,8
DA:433,8
DA:521,1
DA:522,1
DA:521,0
DA:522,0
DA:521,5
DA:522,5
DA:521,4
DA:522,4
DA:521,321
DA:522,321
DA:529,0
DA:530,0
DA:537,8
DA:538,8
DA:537,1
DA:538,1
DA:537,166
DA:538,166
DA:573,0
DA:575,0
DA:576,0
DA:623,4
DA:624,4
DA:623,4
DA:624,4
DA:646,0
DA:652,0
DA:660,0
DA:666,0
DA:660,0
DA:666,0
DA:772,0
DA:778,0
DA:772,4
DA:778,4
DA:772,4
DA:778,4
DA:812,4
DA:814,4
DA:812,1
DA:814,1
DA:885,0
DA:886,0
DA:887,0
DA:885,0
DA:886,0
DA:887,0
DA:898,0
DA:899,0
DA:898,0
DA:899,0
DA:927,0
DA:929,0
DA:930,0
DA:957,0
DA:960,0
DA:1002,0
DA:1008,0
DA:1042,0
DA:1044,0
DA:1042,0
DA:1044,0
DA:1075,0
DA:1077,0
DA:1093,0
DA:1095,0
end_of_record
SF:/usr/include/c++/11/bits/alloc_traits.h
FN:463,_ZNSt16allocator_traitsISaIPN7testing8internal30ParameterizedTestSuiteInfoBaseEEE8allocateERS4_m
FNDA:1,_ZNSt16allocator_traitsISaIPN7testing8internal30ParameterizedTestSuiteInfoBaseEEE8allocateERS4_m
FN:463,_ZNSt16allocator_traitsISaISt23_Sp_counted_ptr_inplaceI10ControllerSaIS1_ELN9__gnu_cxx12_Lock_policyE2EEEE8allocateERS6_m
FNDA:11,_ZNSt16allocator_traitsISaISt23_Sp_counted_ptr_inplaceI10ControllerSaIS1_ELN9__gnu_cxx12_Lock_policyE2EEEE8allocateERS6_m
FN:463,_ZNSt16allocator_traitsISaISt23_Sp_counted_ptr_inplaceIN15nav2_costmap_2d12Costmap2DROSESaIS2_ELN9__gnu_cxx12_Lock_policyE2EEEE8allocateERS7_m
FNDA:12,_ZNSt16allocator_traitsISaISt23_Sp_counted_ptr_inplaceIN15nav2_costmap_2d12Costmap2DROSESaIS2_ELN9__gnu_cxx12_Lock_policyE2EEEE8allocateERS7_m
FN:463,_ZNSt16allocator_traitsISaISt23_Sp_counted_ptr_inplaceIN7tf2_ros6BufferESaIS2_ELN9__gnu_cxx12_Lock_policyE2EEEE8allocateERS7_m
FNDA:12,_ZNSt16allocator_traitsISaISt23_Sp_counted_ptr_inplaceIN7tf2_ros6BufferESaIS2_ELN9__gnu_cxx12_Lock_policyE2EEEE8allocateERS7_m
FN:463,_ZNSt16allocator_traitsISaISt23_Sp_counted_ptr_inplaceIN16rclcpp_lifecycle13LifecycleNodeESaIS2_ELN9__gnu_cxx12_Lock_policyE2EEEE8allocateERS7_m
FNDA:12,_ZNSt16allocator_traitsISaISt23_Sp_counted_ptr_inplaceIN16rclcpp_lifecycle13LifecycleNodeESaIS2_ELN9__gnu_cxx12_Lock_policyE2EEEE8allocateERS7_m
FN:463,_ZNSt16allocator_traitsISaISt23_Sp_counted_ptr_inplaceIN6rclcpp21AsyncParametersClientESaIS2_ELN9__gnu_cxx12_Lock_policyE2EEEE8allocateERS7_m
FNDA:1,_ZNSt16allocator_traitsISaISt23_Sp_counted_ptr_inplaceIN6rclcpp21AsyncParametersClientESaIS2_ELN9__gnu_cxx12_Lock_policyE2EEEE8allocateERS7_m
FN:463,_ZNSt16allocator_traitsISaIN7testing8internal26ParameterizedTestSuiteInfoI29CircleSegmentIntersectionTestE17InstantiationInfoEEE8allocateERS6_m
FNDA:1,_ZNSt16allocator_traitsISaIN7testing8internal26ParameterizedTestSuiteInfoI29CircleSegmentIntersectionTestE17InstantiationInfoEEE8allocateERS6_m
FN:463,_ZNSt16allocator_traitsISaISt5tupleIJSt4pairIddES2_dS2_EEEE8allocateERS4_m
FNDA:2,_ZNSt16allocator_traitsISaISt5tupleIJSt4pairIddES2_dS2_EEEE8allocateERS4_m
FN:463,_ZNSt16allocator_traitsISaISt10shared_ptrIN7testing8internal26ParameterizedTestSuiteInfoI29CircleSegmentIntersectionTestE8TestInfoEEEE8allocateERS8_m
FNDA:1,_ZNSt16allocator_traitsISaISt10shared_ptrIN7testing8internal26ParameterizedTestSuiteInfoI29CircleSegmentIntersectionTestE8TestInfoEEEE8allocateERS8_m
FN:463,_ZNSt16allocator_traitsISaISt13_Rb_tree_nodeINSt7__cxx1112basic_stringIcSt11char_traitsIcESaIcEEEEEE8allocateERS8_m
FNDA:12,_ZNSt16allocator_traitsISaISt13_Rb_tree_nodeINSt7__cxx1112basic_stringIcSt11char_traitsIcESaIcEEEEEE8allocateERS8_m
FN:463,_ZNSt16allocator_traitsISaIN13geometry_msgs3msg17TransformStamped_ISaIvEEEEE8allocateERS5_m
FNDA:7,_ZNSt16allocator_traitsISaIN13geometry_msgs3msg17TransformStamped_ISaIvEEEEE8allocateERS5_m
FN:463,_ZNSt16allocator_traitsISaIdEE8allocateERS0_m
FNDA:0,_ZNSt16allocator_traitsISaIdEE8allocateERS0_m
FN:463,_ZNSt16allocator_traitsISaIlEE8allocateERS0_m
FNDA:0,_ZNSt16allocator_traitsISaIlEE8allocateERS0_m
FN:463,_ZNSt16allocator_traitsISaIhEE8allocateERS0_m
FNDA:0,_ZNSt16allocator_traitsISaIhEE8allocateERS0_m
FN:463,_ZNSt16allocator_traitsISaIN6rclcpp9ParameterEEE8allocateERS2_m
FNDA:9,_ZNSt16allocator_traitsISaIN6rclcpp9ParameterEEE8allocateERS2_m
FN:463,_ZNSt16allocator_traitsISaIN13geometry_msgs3msg12PoseStamped_ISaIvEEEEE8allocateERS5_m
FNDA:59,_ZNSt16allocator_traitsISaIN13geometry_msgs3msg12PoseStamped_ISaIvEEEEE8allocateERS5_m
FN:463,_ZNSt16allocator_traitsISaINSt7__cxx1112basic_stringIcSt11char_traitsIcESaIcEEEEE8allocateERS6_m
FNDA:194,_ZNSt16allocator_traitsISaINSt7__cxx1112basic_stringIcSt11char_traitsIcESaIcEEEEE8allocateERS6_m
FN:463,_ZNSt16allocator_traitsISaImEE8allocateERS0_m
FNDA:0,_ZNSt16allocator_traitsISaImEE8allocateERS0_m
FN:495,_ZNSt16allocator_traitsISaIdEE10deallocateERS0_Pdm
FNDA:0,_ZNSt16allocator_traitsISaIdEE10deallocateERS0_Pdm
FN:495,_ZNSt16allocator_traitsISaISt23_Sp_counted_ptr_inplaceI10ControllerSaIS1_ELN9__gnu_cxx12_Lock_policyE2EEEE10deallocateERS6_PS5_m
FNDA:11,_ZNSt16allocator_traitsISaISt23_Sp_counted_ptr_inplaceI10ControllerSaIS1_ELN9__gnu_cxx12_Lock_policyE2EEEE10deallocateERS6_PS5_m
FN:495,_ZNSt16allocator_traitsISaISt13_Rb_tree_nodeINSt7__cxx1112basic_stringIcSt11char_traitsIcESaIcEEEEEE10deallocateERS8_PS7_m
FNDA:12,_ZNSt16allocator_traitsISaISt13_Rb_tree_nodeINSt7__cxx1112basic_stringIcSt11char_traitsIcESaIcEEEEEE10deallocateERS8_PS7_m
FN:495,_ZNSt16allocator_traitsISaIN14rcl_interfaces3msg13IntegerRange_ISaIvEEEEE10deallocateERS5_PS4_m
FNDA:0,_ZNSt16allocator_traitsISaIN14rcl_interfaces3msg13IntegerRange_ISaIvEEEEE10deallocateERS5_PS4_m
FN:495,_ZNSt16allocator_traitsISaIN14rcl_interfaces3msg19FloatingPointRange_ISaIvEEEEE10deallocateERS5_PS4_m
FNDA:0,_ZNSt16allocator_traitsISaIN14rcl_interfaces3msg19FloatingPointRange_ISaIvEEEEE10deallocateERS5_PS4_m
FN:495,_ZNSt16allocator_traitsISaIN13geometry_msgs3msg17TransformStamped_ISaIvEEEEE10deallocateERS5_PS4_m
FNDA:7,_ZNSt16allocator_traitsISaIN13geometry_msgs3msg17TransformStamped_ISaIvEEEEE10deallocateERS5_PS4_m
FN:495,_ZNSt16allocator_traitsISaISt10shared_ptrIN7testing8internal26ParameterizedTestSuiteInfoI29CircleSegmentIntersectionTestE8TestInfoEEEE10deallocateERS8_PS7_m
FNDA:1,_ZNSt16allocator_traitsISaISt10shared_ptrIN7testing8internal26ParameterizedTestSuiteInfoI29CircleSegmentIntersectionTestE8TestInfoEEEE10deallocateERS8_PS7_m
FN:495,_ZNSt16allocator_traitsISaIN7testing8internal26ParameterizedTestSuiteInfoI29CircleSegmentIntersectionTestE17InstantiationInfoEEE10deallocateERS6_PS5_m
FNDA:1,_ZNSt16allocator_traitsISaIN7testing8internal26ParameterizedTestSuiteInfoI29CircleSegmentIntersectionTestE17InstantiationInfoEEE10deallocateERS6_PS5_m
FN:495,_ZNSt16allocator_traitsISaIN13geometry_msgs3msg12PoseStamped_ISaIvEEEEE10deallocateERS5_PS4_m
FNDA:59,_ZNSt16allocator_traitsISaIN13geometry_msgs3msg12PoseStamped_ISaIvEEEEE10deallocateERS5_PS4_m
FN:495,_ZNSt16allocator_traitsISaISt5tupleIJSt4pairIddES2_dS2_EEEE10deallocateERS4_PS3_m
FNDA:2,_ZNSt16allocator_traitsISaISt5tupleIJSt4pairIddES2_dS2_EEEE10deallocateERS4_PS3_m
FN:495,_ZNSt16allocator_traitsISaIN14rcl_interfaces3msg20SetParametersResult_ISaIvEEEEE10deallocateERS5_PS4_m
FNDA:7,_ZNSt16allocator_traitsISaIN14rcl_interfaces3msg20SetParametersResult_ISaIvEEEEE10deallocateERS5_PS4_m
FN:495,_ZNSt16allocator_traitsISaIN6rclcpp13QosPolicyKindEEE10deallocateERS2_PS1_m
FNDA:0,_ZNSt16allocator_traitsISaIN6rclcpp13QosPolicyKindEEE10deallocateERS2_PS1_m
FN:495,_ZNSt16allocator_traitsISaIN6rclcpp9ParameterEEE10deallocateERS2_PS1_m
FNDA:9,_ZNSt16allocator_traitsISaIN6rclcpp9ParameterEEE10deallocateERS2_PS1_m
FN:495,_ZNSt16allocator_traitsISaIlEE10deallocateERS0_Plm
FNDA:0,_ZNSt16allocator_traitsISaIlEE10deallocateERS0_Plm
FN:495,_ZNSt16allocator_traitsISaIhEE10deallocateERS0_Phm
FNDA:0,_ZNSt16allocator_traitsISaIhEE10deallocateERS0_Phm
FN:495,_ZNSt16allocator_traitsISaINSt7__cxx1112basic_stringIcSt11char_traitsIcESaIcEEEEE10deallocateERS6_PS5_m
FNDA:194,_ZNSt16allocator_traitsISaINSt7__cxx1112basic_stringIcSt11char_traitsIcESaIcEEEEE10deallocateERS6_PS5_m
FN:495,_ZNSt16allocator_traitsISaISt23_Sp_counted_ptr_inplaceIN15nav2_costmap_2d12Costmap2DROSESaIS2_ELN9__gnu_cxx12_Lock_policyE2EEEE10deallocateERS7_PS6_m
FNDA:12,_ZNSt16allocator_traitsISaISt23_Sp_counted_ptr_inplaceIN15nav2_costmap_2d12Costmap2DROSESaIS2_ELN9__gnu_cxx12_Lock_policyE2EEEE10deallocateERS7_PS6_m
FN:495,_ZNSt16allocator_traitsISaIPN7testing8internal30ParameterizedTestSuiteInfoBaseEEE10deallocateERS4_PS3_m
FNDA:1,_ZNSt16allocator_traitsISaIPN7testing8internal30ParameterizedTestSuiteInfoBaseEEE10deallocateERS4_PS3_m
FN:495,_ZNSt16allocator_traitsISaISt23_Sp_counted_ptr_inplaceIN7tf2_ros6BufferESaIS2_ELN9__gnu_cxx12_Lock_policyE2EEEE10deallocateERS7_PS6_m
FNDA:12,_ZNSt16allocator_traitsISaISt23_Sp_counted_ptr_inplaceIN7tf2_ros6BufferESaIS2_ELN9__gnu_cxx12_Lock_policyE2EEEE10deallocateERS7_PS6_m
FN:495,_ZNSt16allocator_traitsISaISt23_Sp_counted_ptr_inplaceIN16rclcpp_lifecycle13LifecycleNodeESaIS2_ELN9__gnu_cxx12_Lock_policyE2EEEE10deallocateERS7_PS6_m
FNDA:12,_ZNSt16allocator_traitsISaISt23_Sp_counted_ptr_inplaceIN16rclcpp_lifecycle13LifecycleNodeESaIS2_ELN9__gnu_cxx12_Lock_policyE2EEEE10deallocateERS7_PS6_m
FN:495,_ZNSt16allocator_traitsISaISt23_Sp_counted_ptr_inplaceIN6rclcpp21AsyncParametersClientESaIS2_ELN9__gnu_cxx12_Lock_policyE2EEEE10deallocateERS7_PS6_m
FNDA:1,_ZNSt16allocator_traitsISaISt23_Sp_counted_ptr_inplaceIN6rclcpp21AsyncParametersClientESaIS2_ELN9__gnu_cxx12_Lock_policyE2EEEE10deallocateERS7_PS6_m
FN:495,_ZNSt16allocator_traitsISaImEE10deallocateERS0_Pmm
FNDA:0,_ZNSt16allocator_traitsISaImEE10deallocateERS0_Pmm
FN:511,_ZNSt16allocator_traitsISaIN6rclcpp21AsyncParametersClientEEE9constructIS1_JSt10shared_ptrINS0_15node_interfaces17NodeBaseInterfaceEES5_INS6_19NodeTopicsInterfaceEES5_INS6_18NodeGraphInterfaceEES5_INS6_21NodeServicesInterfaceEEEEEvRS2_PT_DpOT0_
FNDA:1,_ZNSt16allocator_traitsISaIN6rclcpp21AsyncParametersClientEEE9constructIS1_JSt10shared_ptrINS0_15node_interfaces17NodeBaseInterfaceEES5_INS6_19NodeTopicsInterfaceEES5_INS6_18NodeGraphInterfaceEES5_INS6_21NodeServicesInterfaceEEEEEvRS2_PT_DpOT0_
FN:511,_ZNSt16allocator_traitsISaIN16rclcpp_lifecycle13LifecycleNodeEEE9constructIS1_JRA7_KcEEEvRS2_PT_DpOT0_
FNDA:12,_ZNSt16allocator_traitsISaIN16rclcpp_lifecycle13LifecycleNodeEEE9constructIS1_JRA7_KcEEEvRS2_PT_DpOT0_
FN:511,_ZNSt16allocator_traitsISaIN15nav2_costmap_2d12Costmap2DROSEEE9constructIS1_JRA15_KcEEEvRS2_PT_DpOT0_
FNDA:1,_ZNSt16allocator_traitsISaIN15nav2_costmap_2d12Costmap2DROSEEE9constructIS1_JRA15_KcEEEvRS2_PT_DpOT0_
FN:511,_ZNSt16allocator_traitsISaIN13geometry_msgs3msg12PoseStamped_ISaIvEEEEE9constructIS4_JS4_EEEvRS5_PT_DpOT0_
FNDA:523,_ZNSt16allocator_traitsISaIN13geometry_msgs3msg12PoseStamped_ISaIvEEEEE9constructIS4_JS4_EEEvRS5_PT_DpOT0_
FN:511,_ZNSt16allocator_traitsISaIN7tf2_ros6BufferEEE9constructIS1_JSt10shared_ptrIN6rclcpp5ClockEEEEEvRS2_PT_DpOT0_
FNDA:12,_ZNSt16allocator_traitsISaIN7tf2_ros6BufferEEE9constructIS1_JSt10shared_ptrIN6rclcpp5ClockEEEEEvRS2_PT_DpOT0_
FN:511,_ZNSt16allocator_traitsISaISt13_Rb_tree_nodeINSt7__cxx1112basic_stringIcSt11char_traitsIcESaIcEEEEEE9constructIS6_JRKS6_EEEvRS8_PT_DpOT0_
FNDA:12,_ZNSt16allocator_traitsISaISt13_Rb_tree_nodeINSt7__cxx1112basic_stringIcSt11char_traitsIcESaIcEEEEEE9constructIS6_JRKS6_EEEvRS8_PT_DpOT0_
FN:511,_ZNSt16allocator_traitsISaIN15nav2_costmap_2d12Costmap2DROSEEE9constructIS1_JRA13_KcEEEvRS2_PT_DpOT0_
FNDA:11,_ZNSt16allocator_traitsISaIN15nav2_costmap_2d12Costmap2DROSEEE9constructIS1_JRA13_KcEEEvRS2_PT_DpOT0_
FN:511,_ZNSt16allocator_traitsISaIN7testing8internal26ParameterizedTestSuiteInfoI29CircleSegmentIntersectionTestE17InstantiationInfoEEE9constructIS5_JS5_EEEvRS6_PT_DpOT0_
FNDA:1,_ZNSt16allocator_traitsISaIN7testing8internal26ParameterizedTestSuiteInfoI29CircleSegmentIntersectionTestE17InstantiationInfoEEE9constructIS5_JS5_EEEvRS6_PT_DpOT0_
FN:511,_ZNSt16allocator_traitsISaISt10shared_ptrIN7testing8internal26ParameterizedTestSuiteInfoI29CircleSegmentIntersectionTestE8TestInfoEEEE9constructIS7_JS7_EEEvRS8_PT_DpOT0_
FNDA:1,_ZNSt16allocator_traitsISaISt10shared_ptrIN7testing8internal26ParameterizedTestSuiteInfoI29CircleSegmentIntersectionTestE8TestInfoEEEE9constructIS7_JS7_EEEvRS8_PT_DpOT0_
FN:511,_ZNSt16allocator_traitsISaIPN7testing8internal30ParameterizedTestSuiteInfoBaseEEE9constructIS3_JS3_EEEvRS4_PT_DpOT0_
FNDA:1,_ZNSt16allocator_traitsISaIPN7testing8internal30ParameterizedTestSuiteInfoBaseEEE9constructIS3_JS3_EEEvRS4_PT_DpOT0_
FN:511,_ZNSt16allocator_traitsISaI10ControllerEE9constructIS0_JEEEvRS1_PT_DpOT0_
FNDA:11,_ZNSt16allocator_traitsISaI10ControllerEE9constructIS0_JEEEvRS1_PT_DpOT0_
FN:531,_ZNSt16allocator_traitsISaISt13_Rb_tree_nodeINSt7__cxx1112basic_stringIcSt11char_traitsIcESaIcEEEEEE7destroyIS6_EEvRS8_PT_
FNDA:12,_ZNSt16allocator_traitsISaISt13_Rb_tree_nodeINSt7__cxx1112basic_stringIcSt11char_traitsIcESaIcEEEEEE7destroyIS6_EEvRS8_PT_
FN:531,_ZNSt16allocator_traitsISaIN13geometry_msgs3msg12PoseStamped_ISaIvEEEEE7destroyIS4_EEvRS5_PT_
FNDA:372,_ZNSt16allocator_traitsISaIN13geometry_msgs3msg12PoseStamped_ISaIvEEEEE7destroyIS4_EEvRS5_PT_
FN:531,_ZNSt16allocator_traitsISaI10ControllerEE7destroyIS0_EEvRS1_PT_
FNDA:11,_ZNSt16allocator_traitsISaI10ControllerEE7destroyIS0_EEvRS1_PT_
FN:531,_ZNSt16allocator_traitsISaIN7testing8internal26ParameterizedTestSuiteInfoI29CircleSegmentIntersectionTestE17InstantiationInfoEEE7destroyIS5_EEvRS6_PT_
FNDA:0,_ZNSt16allocator_traitsISaIN7testing8internal26ParameterizedTestSuiteInfoI29CircleSegmentIntersectionTestE17InstantiationInfoEEE7destroyIS5_EEvRS6_PT_
FN:531,_ZNSt16allocator_traitsISaISt10shared_ptrIN7testing8internal26ParameterizedTestSuiteInfoI29CircleSegmentIntersectionTestE8TestInfoEEEE7destroyIS7_EEvRS8_PT_
FNDA:0,_ZNSt16allocator_traitsISaISt10shared_ptrIN7testing8internal26ParameterizedTestSuiteInfoI29CircleSegmentIntersectionTestE8TestInfoEEEE7destroyIS7_EEvRS8_PT_
FN:531,_ZNSt16allocator_traitsISaIN15nav2_costmap_2d12Costmap2DROSEEE7destroyIS1_EEvRS2_PT_
FNDA:12,_ZNSt16allocator_traitsISaIN15nav2_costmap_2d12Costmap2DROSEEE7destroyIS1_EEvRS2_PT_
FN:531,_ZNSt16allocator_traitsISaIN7tf2_ros6BufferEEE7destroyIS1_EEvRS2_PT_
FNDA:12,_ZNSt16allocator_traitsISaIN7tf2_ros6BufferEEE7destroyIS1_EEvRS2_PT_
FN:531,_ZNSt16allocator_traitsISaIN16rclcpp_lifecycle13LifecycleNodeEEE7destroyIS1_EEvRS2_PT_
FNDA:12,_ZNSt16allocator_traitsISaIN16rclcpp_lifecycle13LifecycleNodeEEE7destroyIS1_EEvRS2_PT_
FN:531,_ZNSt16allocator_traitsISaIN6rclcpp21AsyncParametersClientEEE7destroyIS1_EEvRS2_PT_
FNDA:1,_ZNSt16allocator_traitsISaIN6rclcpp21AsyncParametersClientEEE7destroyIS1_EEvRS2_PT_
FN:547,_ZNSt16allocator_traitsISaISt5tupleIJSt4pairIddES2_dS2_EEEE8max_sizeERKS4_
FNDA:2,_ZNSt16allocator_traitsISaISt5tupleIJSt4pairIddES2_dS2_EEEE8max_sizeERKS4_
FN:547,_ZNSt16allocator_traitsISaIN13geometry_msgs3msg12PoseStamped_ISaIvEEEEE8max_sizeERKS5_
FNDA:96,_ZNSt16allocator_traitsISaIN13geometry_msgs3msg12PoseStamped_ISaIvEEEEE8max_sizeERKS5_
FN:547,_ZNSt16allocator_traitsISaIN6rclcpp9ParameterEEE8max_sizeERKS2_
FNDA:8,_ZNSt16allocator_traitsISaIN6rclcpp9ParameterEEE8max_sizeERKS2_
FN:547,_ZNSt16allocator_traitsISaIN13geometry_msgs3msg17TransformStamped_ISaIvEEEEE8max_sizeERKS5_
FNDA:7,_ZNSt16allocator_traitsISaIN13geometry_msgs3msg17TransformStamped_ISaIvEEEEE8max_sizeERKS5_
FN:547,_ZNSt16allocator_traitsISaIN7testing8internal26ParameterizedTestSuiteInfoI29CircleSegmentIntersectionTestE17InstantiationInfoEEE8max_sizeERKS6_
FNDA:2,_ZNSt16allocator_traitsISaIN7testing8internal26ParameterizedTestSuiteInfoI29CircleSegmentIntersectionTestE17InstantiationInfoEEE8max_sizeERKS6_
FN:547,_ZNSt16allocator_traitsISaISt10shared_ptrIN7testing8internal26ParameterizedTestSuiteInfoI29CircleSegmentIntersectionTestE8TestInfoEEEE8max_sizeERKS8_
FNDA:2,_ZNSt16allocator_traitsISaISt10shared_ptrIN7testing8internal26ParameterizedTestSuiteInfoI29CircleSegmentIntersectionTestE8TestInfoEEEE8max_sizeERKS8_
FN:547,_ZNSt16allocator_traitsISaIPN7testing8internal30ParameterizedTestSuiteInfoBaseEEE8max_sizeERKS4_
FNDA:2,_ZNSt16allocator_traitsISaIPN7testing8internal30ParameterizedTestSuiteInfoBaseEEE8max_sizeERKS4_
FN:562,_ZNSt16allocator_traitsISaINSt7__cxx1112basic_stringIcSt11char_traitsIcESaIcEEEEE37select_on_container_copy_constructionERKS6_
FNDA:82,_ZNSt16allocator_traitsISaINSt7__cxx1112basic_stringIcSt11char_traitsIcESaIcEEEEE37select_on_container_copy_constructionERKS6_
FN:562,_ZNSt16allocator_traitsISaImEE37select_on_container_copy_constructionERKS0_
FNDA:80,_ZNSt16allocator_traitsISaImEE37select_on_container_copy_constructionERKS0_
FN:562,_ZNSt16allocator_traitsISaIhEE37select_on_container_copy_constructionERKS0_
FNDA:80,_ZNSt16allocator_traitsISaIhEE37select_on_container_copy_constructionERKS0_
FN:562,_ZNSt16allocator_traitsISaIcEE37select_on_container_copy_constructionERKS0_
FNDA:0,_ZNSt16allocator_traitsISaIcEE37select_on_container_copy_constructionERKS0_
FN:562,_ZNSt16allocator_traitsISaIlEE37select_on_container_copy_constructionERKS0_
FNDA:80,_ZNSt16allocator_traitsISaIlEE37select_on_container_copy_constructionERKS0_
FN:562,_ZNSt16allocator_traitsISaIdEE37select_on_container_copy_constructionERKS0_
FNDA:80,_ZNSt16allocator_traitsISaIdEE37select_on_container_copy_constructionERKS0_
FN:562,_ZNSt16allocator_traitsISaIN13geometry_msgs3msg12PoseStamped_ISaIvEEEEE37select_on_container_copy_constructionERKS5_
FNDA:2,_ZNSt16allocator_traitsISaIN13geometry_msgs3msg12PoseStamped_ISaIvEEEEE37select_on_container_copy_constructionERKS5_
FN:845,_ZSt8_DestroyIPN6rclcpp13QosPolicyKindES1_EvT_S3_RSaIT0_E
FNDA:180,_ZSt8_DestroyIPN6rclcpp13QosPolicyKindES1_EvT_S3_RSaIT0_E
FN:845,_ZSt8_DestroyIPNSt7__cxx1112basic_stringIcSt11char_traitsIcESaIcEEES5_EvT_S7_RSaIT0_E
FNDA:1631,_ZSt8_DestroyIPNSt7__cxx1112basic_stringIcSt11char_traitsIcESaIcEEES5_EvT_S7_RSaIT0_E
FN:845,_ZSt8_DestroyIPN14rcl_interfaces3msg20SetParametersResult_ISaIvEEES4_EvT_S6_RSaIT0_E
FNDA:7,_ZSt8_DestroyIPN14rcl_interfaces3msg20SetParametersResult_ISaIvEEES4_EvT_S6_RSaIT0_E
FN:845,_ZSt8_DestroyIPddEvT_S1_RSaIT0_E
FNDA:1425,_ZSt8_DestroyIPddEvT_S1_RSaIT0_E
FN:845,_ZSt8_DestroyIPllEvT_S1_RSaIT0_E
FNDA:1425,_ZSt8_DestroyIPllEvT_S1_RSaIT0_E
FN:845,_ZSt8_DestroyIPhhEvT_S1_RSaIT0_E
FNDA:1425,_ZSt8_DestroyIPhhEvT_S1_RSaIT0_E
FN:845,_ZSt8_DestroyIPSt10shared_ptrIN7testing8internal26ParameterizedTestSuiteInfoI29CircleSegmentIntersectionTestE8TestInfoEES7_EvT_S9_RSaIT0_E
FNDA:1,_ZSt8_DestroyIPSt10shared_ptrIN7testing8internal26ParameterizedTestSuiteInfoI29CircleSegmentIntersectionTestE8TestInfoEES7_EvT_S9_RSaIT0_E
FN:845,_ZSt8_DestroyIPN13geometry_msgs3msg12PoseStamped_ISaIvEEES4_EvT_S6_RSaIT0_E
FNDA:44,_ZSt8_DestroyIPN13geometry_msgs3msg12PoseStamped_ISaIvEEES4_EvT_S6_RSaIT0_E
FN:845,_ZSt8_DestroyIPN13geometry_msgs3msg17TransformStamped_ISaIvEEES4_EvT_S6_RSaIT0_E
FNDA:14,_ZSt8_DestroyIPN13geometry_msgs3msg17TransformStamped_ISaIvEEES4_EvT_S6_RSaIT0_E
FN:845,_ZSt8_DestroyIPN6rclcpp9ParameterES1_EvT_S3_RSaIT0_E
FNDA:21,_ZSt8_DestroyIPN6rclcpp9ParameterES1_EvT_S3_RSaIT0_E
FN:845,_ZSt8_DestroyIPN14rcl_interfaces3msg19FloatingPointRange_ISaIvEEES4_EvT_S6_RSaIT0_E
FNDA:414,_ZSt8_DestroyIPN14rcl_interfaces3msg19FloatingPointRange_ISaIvEEES4_EvT_S6_RSaIT0_E
FN:845,_ZSt8_DestroyIPN14rcl_interfaces3msg13IntegerRange_ISaIvEEES4_EvT_S6_RSaIT0_E
FNDA:414,_ZSt8_DestroyIPN14rcl_interfaces3msg13IntegerRange_ISaIvEEES4_EvT_S6_RSaIT0_E
FN:845,_ZSt8_DestroyIPSt5tupleIJSt4pairIddES2_dS2_EES3_EvT_S5_RSaIT0_E
FNDA:2,_ZSt8_DestroyIPSt5tupleIJSt4pairIddES2_dS2_EES3_EvT_S5_RSaIT0_E
FN:845,_ZSt8_DestroyIPN7testing8internal26ParameterizedTestSuiteInfoI29CircleSegmentIntersectionTestE17InstantiationInfoES5_EvT_S7_RSaIT0_E
FNDA:1,_ZSt8_DestroyIPN7testing8internal26ParameterizedTestSuiteInfoI29CircleSegmentIntersectionTestE17InstantiationInfoES5_EvT_S7_RSaIT0_E
DA:463,1
DA:464,1
DA:463,0
DA:464,0
DA:463,194
DA:464,194
DA:463,59
DA:464,59
DA:463,9
DA:464,9
DA:463,0
DA:464,0
DA:463,0
DA:464,0
DA:463,0
DA:464,0
DA:463,7
DA:464,7
DA:463,12
DA:464,12
DA:463,1
DA:464,1
DA:463,2
DA:464,2
DA:463,1
DA:464,1
DA:463,1
DA:464,1
DA:463,12
DA:464,12
DA:463,12
DA:464,12
DA:463,12
DA:464,12
DA:463,11
DA:464,11
DA:495,7
DA:496,7
DA:495,1
DA:496,1
DA:495,194
DA:496,194
DA:495,0
DA:496,0
DA:495,0
DA:496,0
DA:495,0
DA:496,0
DA:495,0
DA:496,0
DA:495,9
DA:496,9
DA:495,0
DA:496,0
DA:495,7
DA:496,7
DA:495,59
DA:496,59
DA:495,12
DA:496,12
DA:495,0
DA:496,0
DA:495,0
DA:496,0
DA:495,1
DA:496,1
DA:495,1
DA:496,1
DA:495,2
DA:496,2
DA:495,1
DA:496,1
DA:495,12
DA:496,12
DA:495,12
DA:496,12
DA:495,12
DA:496,12
DA:495,11
DA:496,11
DA:511,12
DA:516,12
DA:520,12
DA:511,523
DA:516,523
DA:520,523
DA:511,1
DA:516,1
DA:520,1
DA:511,1
DA:516,1
DA:520,1
DA:511,11
DA:516,11
DA:520,11
DA:511,11
DA:516,11
DA:520,11
DA:511,12
DA:516,12
DA:520,12
DA:511,12
DA:516,12
DA:520,12
DA:511,1
DA:516,1
DA:520,1
DA:511,1
DA:516,1
DA:520,1
DA:511,1
DA:516,1
DA:520,1
DA:531,12
DA:535,12
DA:539,12
DA:531,1
DA:535,1
DA:539,1
DA:531,12
DA:535,12
DA:539,12
DA:531,12
DA:535,12
DA:539,12
DA:531,12
DA:535,12
DA:539,12
DA:531,11
DA:535,11
DA:539,11
DA:531,372
DA:535,372
DA:539,372
DA:531,0
DA:535,0
DA:539,0
DA:531,0
DA:535,0
DA:539,0
DA:547,2
DA:550,2
DA:547,2
DA:550,2
DA:547,2
DA:550,2
DA:547,2
DA:550,2
DA:547,7
DA:550,7
DA:547,8
DA:550,8
DA:547,96
DA:550,96
DA:562,2
DA:563,2
DA:562,80
DA:563,80
DA:562,80
DA:563,80
DA:562,80
DA:563,80
DA:562,80
DA:563,80
DA:562,82
DA:563,82
DA:562,0
DA:563,0
DA:845,1
DA:848,1
DA:849,1
DA:845,1
DA:848,1
DA:849,1
DA:845,2
DA:848,2
DA:849,2
DA:845,414
DA:848,414
DA:849,414
DA:845,414
DA:848,414
DA:849,414
DA:845,21
DA:848,21
DA:849,21
DA:845,14
DA:848,14
DA:849,14
DA:845,44
DA:848,44
DA:849,44
DA:845,7
DA:848,7
DA:849,7
DA:845,180
DA:848,180
DA:849,180
DA:845,1425
DA:848,1425
DA:849,1425
DA:845,1425
DA:848,1425
DA:849,1425
DA:845,1425
DA:848,1425
DA:849,1425
DA:845,1631
DA:848,1631
DA:849,1631
end_of_record
SF:/usr/include/c++/11/ext/new_allocator.h
FN:79,_ZN9__gnu_cxx13new_allocatorIN14rcl_interfaces3msg19FloatingPointRange_ISaIvEEEEC2Ev
FNDA:414,_ZN9__gnu_cxx13new_allocatorIN14rcl_interfaces3msg19FloatingPointRange_ISaIvEEEEC2Ev
FN:79,_ZN9__gnu_cxx13new_allocatorIN6rclcpp21AsyncParametersClientEEC2Ev
FNDA:1,_ZN9__gnu_cxx13new_allocatorIN6rclcpp21AsyncParametersClientEEC2Ev
FN:79,_ZN9__gnu_cxx13new_allocatorImEC2Ev
FNDA:80,_ZN9__gnu_cxx13new_allocatorImEC2Ev
FN:79,_ZN9__gnu_cxx13new_allocatorIN16rclcpp_lifecycle13LifecycleNodeEEC2Ev
FNDA:12,_ZN9__gnu_cxx13new_allocatorIN16rclcpp_lifecycle13LifecycleNodeEEC2Ev
FN:79,_ZN9__gnu_cxx13new_allocatorIN7tf2_ros6BufferEEC2Ev
FNDA:12,_ZN9__gnu_cxx13new_allocatorIN7tf2_ros6BufferEEC2Ev
FN:79,_ZN9__gnu_cxx13new_allocatorIN15nav2_costmap_2d12Costmap2DROSEEC2Ev
FNDA:12,_ZN9__gnu_cxx13new_allocatorIN15nav2_costmap_2d12Costmap2DROSEEC2Ev
FN:79,_ZN9__gnu_cxx13new_allocatorI10ControllerEC2Ev
FNDA:11,_ZN9__gnu_cxx13new_allocatorI10ControllerEC2Ev
FN:79,_ZN9__gnu_cxx13new_allocatorIN13geometry_msgs3msg12PoseStamped_ISaIvEEEEC2Ev
FNDA:59,_ZN9__gnu_cxx13new_allocatorIN13geometry_msgs3msg12PoseStamped_ISaIvEEEEC2Ev
FN:79,_ZN9__gnu_cxx13new_allocatorIN13geometry_msgs3msg17TransformStamped_ISaIvEEEEC2Ev
FNDA:7,_ZN9__gnu_cxx13new_allocatorIN13geometry_msgs3msg17TransformStamped_ISaIvEEEEC2Ev
FN:79,_ZN9__gnu_cxx13new_allocatorISt5tupleIJSt4pairIddES3_dS3_EEEC2Ev
FNDA:2,_ZN9__gnu_cxx13new_allocatorISt5tupleIJSt4pairIddES3_dS3_EEEC2Ev
FN:79,_ZN9__gnu_cxx13new_allocatorIcEC2Ev
FNDA:0,_ZN9__gnu_cxx13new_allocatorIcEC2Ev
FN:79,_ZN9__gnu_cxx13new_allocatorIN14rcl_interfaces3msg13IntegerRange_ISaIvEEEEC2Ev
FNDA:414,_ZN9__gnu_cxx13new_allocatorIN14rcl_interfaces3msg13IntegerRange_ISaIvEEEEC2Ev
FN:79,_ZN9__gnu_cxx13new_allocatorISt23_Sp_counted_ptr_inplaceI10ControllerSaIS2_ELNS_12_Lock_policyE2EEEC2Ev
FNDA:22,_ZN9__gnu_cxx13new_allocatorISt23_Sp_counted_ptr_inplaceI10ControllerSaIS2_ELNS_12_Lock_policyE2EEEC2Ev
FN:79,_ZN9__gnu_cxx13new_allocatorISt23_Sp_counted_ptr_inplaceIN15nav2_costmap_2d12Costmap2DROSESaIS3_ELNS_12_Lock_policyE2EEEC2Ev
FNDA:24,_ZN9__gnu_cxx13new_allocatorISt23_Sp_counted_ptr_inplaceIN15nav2_costmap_2d12Costmap2DROSESaIS3_ELNS_12_Lock_policyE2EEEC2Ev
FN:79,_ZN9__gnu_cxx13new_allocatorISt23_Sp_counted_ptr_inplaceIN7tf2_ros6BufferESaIS3_ELNS_12_Lock_policyE2EEEC2Ev
FNDA:24,_ZN9__gnu_cxx13new_allocatorISt23_Sp_counted_ptr_inplaceIN7tf2_ros6BufferESaIS3_ELNS_12_Lock_policyE2EEEC2Ev
FN:79,_ZN9__gnu_cxx13new_allocatorISt23_Sp_counted_ptr_inplaceIN16rclcpp_lifecycle13LifecycleNodeESaIS3_ELNS_12_Lock_policyE2EEEC2Ev
FNDA:24,_ZN9__gnu_cxx13new_allocatorISt23_Sp_counted_ptr_inplaceIN16rclcpp_lifecycle13LifecycleNodeESaIS3_ELNS_12_Lock_policyE2EEEC2Ev
FN:79,_ZN9__gnu_cxx13new_allocatorISt23_Sp_counted_ptr_inplaceIN6rclcpp21AsyncParametersClientESaIS3_ELNS_12_Lock_policyE2EEEC2Ev
FNDA:2,_ZN9__gnu_cxx13new_allocatorISt23_Sp_counted_ptr_inplaceIN6rclcpp21AsyncParametersClientESaIS3_ELNS_12_Lock_policyE2EEEC2Ev
FN:79,_ZN9__gnu_cxx13new_allocatorISt10shared_ptrIN7testing8internal26ParameterizedTestSuiteInfoI29CircleSegmentIntersectionTestE8TestInfoEEEC2Ev
FNDA:1,_ZN9__gnu_cxx13new_allocatorISt10shared_ptrIN7testing8internal26ParameterizedTestSuiteInfoI29CircleSegmentIntersectionTestE8TestInfoEEEC2Ev
FN:79,_ZN9__gnu_cxx13new_allocatorIN7testing8internal26ParameterizedTestSuiteInfoI29CircleSegmentIntersectionTestE17InstantiationInfoEEC2Ev
FNDA:1,_ZN9__gnu_cxx13new_allocatorIN7testing8internal26ParameterizedTestSuiteInfoI29CircleSegmentIntersectionTestE17InstantiationInfoEEC2Ev
FN:79,_ZN9__gnu_cxx13new_allocatorIbEC2Ev
FNDA:80,_ZN9__gnu_cxx13new_allocatorIbEC2Ev
FN:79,_ZN9__gnu_cxx13new_allocatorISt13_Rb_tree_nodeINSt7__cxx1112basic_stringIcSt11char_traitsIcESaIcEEEEEC2Ev
FNDA:1,_ZN9__gnu_cxx13new_allocatorISt13_Rb_tree_nodeINSt7__cxx1112basic_stringIcSt11char_traitsIcESaIcEEEEEC2Ev
FN:79,_ZN9__gnu_cxx13new_allocatorIN6rclcpp9ParameterEEC2Ev
FNDA:8,_ZN9__gnu_cxx13new_allocatorIN6rclcpp9ParameterEEC2Ev
FN:82,_ZN9__gnu_cxx13new_allocatorI10ControllerEC2ERKS2_
FNDA:33,_ZN9__gnu_cxx13new_allocatorI10ControllerEC2ERKS2_
FN:82,_ZN9__gnu_cxx13new_allocatorIN15nav2_costmap_2d12Costmap2DROSEEC2ERKS3_
FNDA:36,_ZN9__gnu_cxx13new_allocatorIN15nav2_costmap_2d12Costmap2DROSEEC2ERKS3_
FN:82,_ZN9__gnu_cxx13new_allocatorISt5tupleIJSt4pairIddES3_dS3_EEEC2ERKS5_
FNDA:4,_ZN9__gnu_cxx13new_allocatorISt5tupleIJSt4pairIddES3_dS3_EEEC2ERKS5_
FN:82,_ZN9__gnu_cxx13new_allocatorIN7tf2_ros6BufferEEC2ERKS3_
FNDA:36,_ZN9__gnu_cxx13new_allocatorIN7tf2_ros6BufferEEC2ERKS3_
FN:82,_ZN9__gnu_cxx13new_allocatorIcEC2ERKS1_
FNDA:0,_ZN9__gnu_cxx13new_allocatorIcEC2ERKS1_
FN:82,_ZN9__gnu_cxx13new_allocatorIN16rclcpp_lifecycle13LifecycleNodeEEC2ERKS3_
FNDA:36,_ZN9__gnu_cxx13new_allocatorIN16rclcpp_lifecycle13LifecycleNodeEEC2ERKS3_
FN:82,_ZN9__gnu_cxx13new_allocatorIN6rclcpp21AsyncParametersClientEEC2ERKS3_
FNDA:3,_ZN9__gnu_cxx13new_allocatorIN6rclcpp21AsyncParametersClientEEC2ERKS3_
FN:82,_ZN9__gnu_cxx13new_allocatorINSt7__cxx1112basic_stringIcSt11char_traitsIcESaIcEEEEC2ERKS7_
FNDA:546,_ZN9__gnu_cxx13new_allocatorINSt7__cxx1112basic_stringIcSt11char_traitsIcESaIcEEEEC2ERKS7_
FN:82,_ZN9__gnu_cxx13new_allocatorIN13geometry_msgs3msg12PoseStamped_ISaIvEEEEC2ERKS6_
FNDA:4,_ZN9__gnu_cxx13new_allocatorIN13geometry_msgs3msg12PoseStamped_ISaIvEEEEC2ERKS6_
FN:82,_ZN9__gnu_cxx13new_allocatorIhEC2ERKS1_
FNDA:160,_ZN9__gnu_cxx13new_allocatorIhEC2ERKS1_
FN:82,_ZN9__gnu_cxx13new_allocatorImEC2ERKS1_
FNDA:160,_ZN9__gnu_cxx13new_allocatorImEC2ERKS1_
FN:82,_ZN9__gnu_cxx13new_allocatorIN6rclcpp9ParameterEEC2ERKS3_
FNDA:18,_ZN9__gnu_cxx13new_allocatorIN6rclcpp9ParameterEEC2ERKS3_
FN:82,_ZN9__gnu_cxx13new_allocatorIdEC2ERKS1_
FNDA:160,_ZN9__gnu_cxx13new_allocatorIdEC2ERKS1_
FN:82,_ZN9__gnu_cxx13new_allocatorIN13geometry_msgs3msg17TransformStamped_ISaIvEEEEC2ERKS6_
FNDA:7,_ZN9__gnu_cxx13new_allocatorIN13geometry_msgs3msg17TransformStamped_ISaIvEEEEC2ERKS6_
FN:82,_ZN9__gnu_cxx13new_allocatorIlEC2ERKS1_
FNDA:160,_ZN9__gnu_cxx13new_allocatorIlEC2ERKS1_
FN:89,_ZN9__gnu_cxx13new_allocatorISt23_Sp_counted_ptr_inplaceIN7tf2_ros6BufferESaIS3_ELNS_12_Lock_policyE2EEED2Ev
FNDA:24,_ZN9__gnu_cxx13new_allocatorISt23_Sp_counted_ptr_inplaceIN7tf2_ros6BufferESaIS3_ELNS_12_Lock_policyE2EEED2Ev
FN:89,_ZN9__gnu_cxx13new_allocatorIbED2Ev
FNDA:80,_ZN9__gnu_cxx13new_allocatorIbED2Ev
FN:89,_ZN9__gnu_cxx13new_allocatorISt23_Sp_counted_ptr_inplaceI10ControllerSaIS2_ELNS_12_Lock_policyE2EEED2Ev
FNDA:22,_ZN9__gnu_cxx13new_allocatorISt23_Sp_counted_ptr_inplaceI10ControllerSaIS2_ELNS_12_Lock_policyE2EEED2Ev
FN:89,_ZN9__gnu_cxx13new_allocatorImED2Ev
FNDA:1585,_ZN9__gnu_cxx13new_allocatorImED2Ev
FN:89,_ZN9__gnu_cxx13new_allocatorISt23_Sp_counted_ptr_inplaceIN15nav2_costmap_2d12Costmap2DROSESaIS3_ELNS_12_Lock_policyE2EEED2Ev
FNDA:24,_ZN9__gnu_cxx13new_allocatorISt23_Sp_counted_ptr_inplaceIN15nav2_costmap_2d12Costmap2DROSESaIS3_ELNS_12_Lock_policyE2EEED2Ev
FN:89,_ZN9__gnu_cxx13new_allocatorISt13_Rb_tree_nodeINSt7__cxx1112basic_stringIcSt11char_traitsIcESaIcEEEEED2Ev
FNDA:1,_ZN9__gnu_cxx13new_allocatorISt13_Rb_tree_nodeINSt7__cxx1112basic_stringIcSt11char_traitsIcESaIcEEEEED2Ev
FN:89,_ZN9__gnu_cxx13new_allocatorIcED2Ev
FNDA:0,_ZN9__gnu_cxx13new_allocatorIcED2Ev
FN:89,_ZN9__gnu_cxx13new_allocatorISt23_Sp_counted_ptr_inplaceIN16rclcpp_lifecycle13LifecycleNodeESaIS3_ELNS_12_Lock_policyE2EEED2Ev
FNDA:24,_ZN9__gnu_cxx13new_allocatorISt23_Sp_counted_ptr_inplaceIN16rclcpp_lifecycle13LifecycleNodeESaIS3_ELNS_12_Lock_policyE2EEED2Ev
FN:89,_ZN9__gnu_cxx13new_allocatorIhED2Ev
FNDA:1505,_ZN9__gnu_cxx13new_allocatorIhED2Ev
FN:89,_ZN9__gnu_cxx13new_allocatorINSt7__cxx1112basic_stringIcSt11char_traitsIcESaIcEEEED2Ev
FNDA:2095,_ZN9__gnu_cxx13new_allocatorINSt7__cxx1112basic_stringIcSt11char_traitsIcESaIcEEEED2Ev
FN:89,_ZN9__gnu_cxx13new_allocatorISt23_Sp_counted_ptr_inplaceIN6rclcpp21AsyncParametersClientESaIS3_ELNS_12_Lock_policyE2EEED2Ev
FNDA:2,_ZN9__gnu_cxx13new_allocatorISt23_Sp_counted_ptr_inplaceIN6rclcpp21AsyncParametersClientESaIS3_ELNS_12_Lock_policyE2EEED2Ev
FN:89,_ZN9__gnu_cxx13new_allocatorIdED2Ev
FNDA:1505,_ZN9__gnu_cxx13new_allocatorIdED2Ev
FN:89,_ZN9__gnu_cxx13new_allocatorIN14rcl_interfaces3msg13IntegerRange_ISaIvEEEED2Ev
FNDA:414,_ZN9__gnu_cxx13new_allocatorIN14rcl_interfaces3msg13IntegerRange_ISaIvEEEED2Ev
FN:89,_ZN9__gnu_cxx13new_allocatorIN6rclcpp21AsyncParametersClientEED2Ev
FNDA:4,_ZN9__gnu_cxx13new_allocatorIN6rclcpp21AsyncParametersClientEED2Ev
FN:89,_ZN9__gnu_cxx13new_allocatorIN14rcl_interfaces3msg19FloatingPointRange_ISaIvEEEED2Ev
FNDA:414,_ZN9__gnu_cxx13new_allocatorIN14rcl_interfaces3msg19FloatingPointRange_ISaIvEEEED2Ev
FN:89,_ZN9__gnu_cxx13new_allocatorIN16rclcpp_lifecycle13LifecycleNodeEED2Ev
FNDA:48,_ZN9__gnu_cxx13new_allocatorIN16rclcpp_lifecycle13LifecycleNodeEED2Ev
FN:89,_ZN9__gnu_cxx13new_allocatorIN7tf2_ros6BufferEED2Ev
FNDA:48,_ZN9__gnu_cxx13new_allocatorIN7tf2_ros6BufferEED2Ev
FN:89,_ZN9__gnu_cxx13new_allocatorIN13geometry_msgs3msg17TransformStamped_ISaIvEEEED2Ev
FNDA:14,_ZN9__gnu_cxx13new_allocatorIN13geometry_msgs3msg17TransformStamped_ISaIvEEEED2Ev
FN:89,_ZN9__gnu_cxx13new_allocatorIN15nav2_costmap_2d12Costmap2DROSEED2Ev
FNDA:48,_ZN9__gnu_cxx13new_allocatorIN15nav2_costmap_2d12Costmap2DROSEED2Ev
FN:89,_ZN9__gnu_cxx13new_allocatorIN13geometry_msgs3msg12PoseStamped_ISaIvEEEED2Ev
FNDA:63,_ZN9__gnu_cxx13new_allocatorIN13geometry_msgs3msg12PoseStamped_ISaIvEEEED2Ev
FN:89,_ZN9__gnu_cxx13new_allocatorI10ControllerED2Ev
FNDA:44,_ZN9__gnu_cxx13new_allocatorI10ControllerED2Ev
FN:89,_ZN9__gnu_cxx13new_allocatorIN14rcl_interfaces3msg20SetParametersResult_ISaIvEEEED2Ev
FNDA:7,_ZN9__gnu_cxx13new_allocatorIN14rcl_interfaces3msg20SetParametersResult_ISaIvEEEED2Ev
FN:89,_ZN9__gnu_cxx13new_allocatorIN6rclcpp13QosPolicyKindEED2Ev
FNDA:306,_ZN9__gnu_cxx13new_allocatorIN6rclcpp13QosPolicyKindEED2Ev
FN:89,_ZN9__gnu_cxx13new_allocatorISt10shared_ptrIN7testing8internal26ParameterizedTestSuiteInfoI29CircleSegmentIntersectionTestE8TestInfoEEED2Ev
FNDA:1,_ZN9__gnu_cxx13new_allocatorISt10shared_ptrIN7testing8internal26ParameterizedTestSuiteInfoI29CircleSegmentIntersectionTestE8TestInfoEEED2Ev
FN:89,_ZN9__gnu_cxx13new_allocatorIN7testing8internal26ParameterizedTestSuiteInfoI29CircleSegmentIntersectionTestE17InstantiationInfoEED2Ev
FNDA:1,_ZN9__gnu_cxx13new_allocatorIN7testing8internal26ParameterizedTestSuiteInfoI29CircleSegmentIntersectionTestE17InstantiationInfoEED2Ev
FN:89,_ZN9__gnu_cxx13new_allocatorIN6rclcpp9ParameterEED2Ev
FNDA:38,_ZN9__gnu_cxx13new_allocatorIN6rclcpp9ParameterEED2Ev
FN:89,_ZN9__gnu_cxx13new_allocatorISt5tupleIJSt4pairIddES3_dS3_EEED2Ev
FNDA:6,_ZN9__gnu_cxx13new_allocatorISt5tupleIJSt4pairIddES3_dS3_EEED2Ev
FN:89,_ZN9__gnu_cxx13new_allocatorIlED2Ev
FNDA:1505,_ZN9__gnu_cxx13new_allocatorIlED2Ev
FN:103,_ZN9__gnu_cxx13new_allocatorImE8allocateEmPKv
FNDA:0,_ZN9__gnu_cxx13new_allocatorImE8allocateEmPKv
FN:103,_ZN9__gnu_cxx13new_allocatorINSt7__cxx1112basic_stringIcSt11char_traitsIcESaIcEEEE8allocateEmPKv
FNDA:194,_ZN9__gnu_cxx13new_allocatorINSt7__cxx1112basic_stringIcSt11char_traitsIcESaIcEEEE8allocateEmPKv
FN:103,_ZN9__gnu_cxx13new_allocatorIN13geometry_msgs3msg12PoseStamped_ISaIvEEEE8allocateEmPKv
FNDA:59,_ZN9__gnu_cxx13new_allocatorIN13geometry_msgs3msg12PoseStamped_ISaIvEEEE8allocateEmPKv
FN:103,_ZN9__gnu_cxx13new_allocatorIlE8allocateEmPKv
FNDA:0,_ZN9__gnu_cxx13new_allocatorIlE8allocateEmPKv
FN:103,_ZN9__gnu_cxx13new_allocatorIN6rclcpp9ParameterEE8allocateEmPKv
FNDA:9,_ZN9__gnu_cxx13new_allocatorIN6rclcpp9ParameterEE8allocateEmPKv
FN:103,_ZN9__gnu_cxx13new_allocatorIhE8allocateEmPKv
FNDA:0,_ZN9__gnu_cxx13new_allocatorIhE8allocateEmPKv
FN:103,_ZN9__gnu_cxx13new_allocatorIdE8allocateEmPKv
FNDA:0,_ZN9__gnu_cxx13new_allocatorIdE8allocateEmPKv
FN:103,_ZN9__gnu_cxx13new_allocatorISt13_Rb_tree_nodeINSt7__cxx1112basic_stringIcSt11char_traitsIcESaIcEEEEE8allocateEmPKv
FNDA:12,_ZN9__gnu_cxx13new_allocatorISt13_Rb_tree_nodeINSt7__cxx1112basic_stringIcSt11char_traitsIcESaIcEEEEE8allocateEmPKv
FN:103,_ZN9__gnu_cxx13new_allocatorISt5tupleIJSt4pairIddES3_dS3_EEE8allocateEmPKv
FNDA:2,_ZN9__gnu_cxx13new_allocatorISt5tupleIJSt4pairIddES3_dS3_EEE8allocateEmPKv
FN:103,_ZN9__gnu_cxx13new_allocatorISt10shared_ptrIN7testing8internal26ParameterizedTestSuiteInfoI29CircleSegmentIntersectionTestE8TestInfoEEE8allocateEmPKv
FNDA:1,_ZN9__gnu_cxx13new_allocatorISt10shared_ptrIN7testing8internal26ParameterizedTestSuiteInfoI29CircleSegmentIntersectionTestE8TestInfoEEE8allocateEmPKv
FN:103,_ZN9__gnu_cxx13new_allocatorIN7testing8internal26ParameterizedTestSuiteInfoI29CircleSegmentIntersectionTestE17InstantiationInfoEE8allocateEmPKv
FNDA:1,_ZN9__gnu_cxx13new_allocatorIN7testing8internal26ParameterizedTestSuiteInfoI29CircleSegmentIntersectionTestE17InstantiationInfoEE8allocateEmPKv
FN:103,_ZN9__gnu_cxx13new_allocatorIPN7testing8internal30ParameterizedTestSuiteInfoBaseEE8allocateEmPKv
FNDA:1,_ZN9__gnu_cxx13new_allocatorIPN7testing8internal30ParameterizedTestSuiteInfoBaseEE8allocateEmPKv
FN:103,_ZN9__gnu_cxx13new_allocatorIN13geometry_msgs3msg17TransformStamped_ISaIvEEEE8allocateEmPKv
FNDA:7,_ZN9__gnu_cxx13new_allocatorIN13geometry_msgs3msg17TransformStamped_ISaIvEEEE8allocateEmPKv
FN:103,_ZN9__gnu_cxx13new_allocatorISt23_Sp_counted_ptr_inplaceIN6rclcpp21AsyncParametersClientESaIS3_ELNS_12_Lock_policyE2EEE8allocateEmPKv
FNDA:1,_ZN9__gnu_cxx13new_allocatorISt23_Sp_counted_ptr_inplaceIN6rclcpp21AsyncParametersClientESaIS3_ELNS_12_Lock_policyE2EEE8allocateEmPKv
FN:103,_ZN9__gnu_cxx13new_allocatorISt23_Sp_counted_ptr_inplaceIN16rclcpp_lifecycle13LifecycleNodeESaIS3_ELNS_12_Lock_policyE2EEE8allocateEmPKv
FNDA:12,_ZN9__gnu_cxx13new_allocatorISt23_Sp_counted_ptr_inplaceIN16rclcpp_lifecycle13LifecycleNodeESaIS3_ELNS_12_Lock_policyE2EEE8allocateEmPKv
FN:103,_ZN9__gnu_cxx13new_allocatorISt23_Sp_counted_ptr_inplaceIN15nav2_costmap_2d12Costmap2DROSESaIS3_ELNS_12_Lock_policyE2EEE8allocateEmPKv
FNDA:12,_ZN9__gnu_cxx13new_allocatorISt23_Sp_counted_ptr_inplaceIN15nav2_costmap_2d12Costmap2DROSESaIS3_ELNS_12_Lock_policyE2EEE8allocateEmPKv
FN:103,_ZN9__gnu_cxx13new_allocatorISt23_Sp_counted_ptr_inplaceI10ControllerSaIS2_ELNS_12_Lock_policyE2EEE8allocateEmPKv
FNDA:11,_ZN9__gnu_cxx13new_allocatorISt23_Sp_counted_ptr_inplaceI10ControllerSaIS2_ELNS_12_Lock_policyE2EEE8allocateEmPKv
FN:103,_ZN9__gnu_cxx13new_allocatorISt23_Sp_counted_ptr_inplaceIN7tf2_ros6BufferESaIS3_ELNS_12_Lock_policyE2EEE8allocateEmPKv
FNDA:12,_ZN9__gnu_cxx13new_allocatorISt23_Sp_counted_ptr_inplaceIN7tf2_ros6BufferESaIS3_ELNS_12_Lock_policyE2EEE8allocateEmPKv
FN:132,_ZN9__gnu_cxx13new_allocatorIN6rclcpp9ParameterEE10deallocateEPS2_m
FNDA:9,_ZN9__gnu_cxx13new_allocatorIN6rclcpp9ParameterEE10deallocateEPS2_m
FN:132,_ZN9__gnu_cxx13new_allocatorImE10deallocateEPmm
FNDA:0,_ZN9__gnu_cxx13new_allocatorImE10deallocateEPmm
FN:132,_ZN9__gnu_cxx13new_allocatorISt13_Rb_tree_nodeINSt7__cxx1112basic_stringIcSt11char_traitsIcESaIcEEEEE10deallocateEPS8_m
FNDA:12,_ZN9__gnu_cxx13new_allocatorISt13_Rb_tree_nodeINSt7__cxx1112basic_stringIcSt11char_traitsIcESaIcEEEEE10deallocateEPS8_m
FN:132,_ZN9__gnu_cxx13new_allocatorIN13geometry_msgs3msg17TransformStamped_ISaIvEEEE10deallocateEPS5_m
FNDA:7,_ZN9__gnu_cxx13new_allocatorIN13geometry_msgs3msg17TransformStamped_ISaIvEEEE10deallocateEPS5_m
FN:132,_ZN9__gnu_cxx13new_allocatorISt23_Sp_counted_ptr_inplaceI10ControllerSaIS2_ELNS_12_Lock_policyE2EEE10deallocateEPS5_m
FNDA:11,_ZN9__gnu_cxx13new_allocatorISt23_Sp_counted_ptr_inplaceI10ControllerSaIS2_ELNS_12_Lock_policyE2EEE10deallocateEPS5_m
FN:132,_ZN9__gnu_cxx13new_allocatorIN13geometry_msgs3msg12PoseStamped_ISaIvEEEE10deallocateEPS5_m
FNDA:59,_ZN9__gnu_cxx13new_allocatorIN13geometry_msgs3msg12PoseStamped_ISaIvEEEE10deallocateEPS5_m
FN:132,_ZN9__gnu_cxx13new_allocatorIN14rcl_interfaces3msg20SetParametersResult_ISaIvEEEE10deallocateEPS5_m
FNDA:7,_ZN9__gnu_cxx13new_allocatorIN14rcl_interfaces3msg20SetParametersResult_ISaIvEEEE10deallocateEPS5_m
FN:132,_ZN9__gnu_cxx13new_allocatorIN6rclcpp13QosPolicyKindEE10deallocateEPS2_m
FNDA:0,_ZN9__gnu_cxx13new_allocatorIN6rclcpp13QosPolicyKindEE10deallocateEPS2_m
FN:132,_ZN9__gnu_cxx13new_allocatorISt23_Sp_counted_ptr_inplaceIN15nav2_costmap_2d12Costmap2DROSESaIS3_ELNS_12_Lock_policyE2EEE10deallocateEPS6_m
FNDA:12,_ZN9__gnu_cxx13new_allocatorISt23_Sp_counted_ptr_inplaceIN15nav2_costmap_2d12Costmap2DROSESaIS3_ELNS_12_Lock_policyE2EEE10deallocateEPS6_m
FN:132,_ZN9__gnu_cxx13new_allocatorIdE10deallocateEPdm
FNDA:0,_ZN9__gnu_cxx13new_allocatorIdE10deallocateEPdm
FN:132,_ZN9__gnu_cxx13new_allocatorIlE10deallocateEPlm
FNDA:0,_ZN9__gnu_cxx13new_allocatorIlE10deallocateEPlm
FN:132,_ZN9__gnu_cxx13new_allocatorIhE10deallocateEPhm
FNDA:0,_ZN9__gnu_cxx13new_allocatorIhE10deallocateEPhm
FN:132,_ZN9__gnu_cxx13new_allocatorINSt7__cxx1112basic_stringIcSt11char_traitsIcESaIcEEEE10deallocateEPS6_m
FNDA:194,_ZN9__gnu_cxx13new_allocatorINSt7__cxx1112basic_stringIcSt11char_traitsIcESaIcEEEE10deallocateEPS6_m
FN:132,_ZN9__gnu_cxx13new_allocatorIPN7testing8internal30ParameterizedTestSuiteInfoBaseEE10deallocateEPS4_m
FNDA:1,_ZN9__gnu_cxx13new_allocatorIPN7testing8internal30ParameterizedTestSuiteInfoBaseEE10deallocateEPS4_m
FN:132,_ZN9__gnu_cxx13new_allocatorISt23_Sp_counted_ptr_inplaceIN6rclcpp21AsyncParametersClientESaIS3_ELNS_12_Lock_policyE2EEE10deallocateEPS6_m
FNDA:1,_ZN9__gnu_cxx13new_allocatorISt23_Sp_counted_ptr_inplaceIN6rclcpp21AsyncParametersClientESaIS3_ELNS_12_Lock_policyE2EEE10deallocateEPS6_m
FN:132,_ZN9__gnu_cxx13new_allocatorISt23_Sp_counted_ptr_inplaceIN7tf2_ros6BufferESaIS3_ELNS_12_Lock_policyE2EEE10deallocateEPS6_m
FNDA:12,_ZN9__gnu_cxx13new_allocatorISt23_Sp_counted_ptr_inplaceIN7tf2_ros6BufferESaIS3_ELNS_12_Lock_policyE2EEE10deallocateEPS6_m
FN:132,_ZN9__gnu_cxx13new_allocatorISt23_Sp_counted_ptr_inplaceIN16rclcpp_lifecycle13LifecycleNodeESaIS3_ELNS_12_Lock_policyE2EEE10deallocateEPS6_m
FNDA:12,_ZN9__gnu_cxx13new_allocatorISt23_Sp_counted_ptr_inplaceIN16rclcpp_lifecycle13LifecycleNodeESaIS3_ELNS_12_Lock_policyE2EEE10deallocateEPS6_m
FN:132,_ZN9__gnu_cxx13new_allocatorISt10shared_ptrIN7testing8internal26ParameterizedTestSuiteInfoI29CircleSegmentIntersectionTestE8TestInfoEEE10deallocateEPS8_m
FNDA:1,_ZN9__gnu_cxx13new_allocatorISt10shared_ptrIN7testing8internal26ParameterizedTestSuiteInfoI29CircleSegmentIntersectionTestE8TestInfoEEE10deallocateEPS8_m
FN:132,_ZN9__gnu_cxx13new_allocatorISt5tupleIJSt4pairIddES3_dS3_EEE10deallocateEPS4_m
FNDA:2,_ZN9__gnu_cxx13new_allocatorISt5tupleIJSt4pairIddES3_dS3_EEE10deallocateEPS4_m
FN:132,_ZN9__gnu_cxx13new_allocatorIN7testing8internal26ParameterizedTestSuiteInfoI29CircleSegmentIntersectionTestE17InstantiationInfoEE10deallocateEPS6_m
FNDA:1,_ZN9__gnu_cxx13new_allocatorIN7testing8internal26ParameterizedTestSuiteInfoI29CircleSegmentIntersectionTestE17InstantiationInfoEE10deallocateEPS6_m
FN:132,_ZN9__gnu_cxx13new_allocatorIN14rcl_interfaces3msg13IntegerRange_ISaIvEEEE10deallocateEPS5_m
FNDA:0,_ZN9__gnu_cxx13new_allocatorIN14rcl_interfaces3msg13IntegerRange_ISaIvEEEE10deallocateEPS5_m
FN:132,_ZN9__gnu_cxx13new_allocatorIN14rcl_interfaces3msg19FloatingPointRange_ISaIvEEEE10deallocateEPS5_m
FNDA:0,_ZN9__gnu_cxx13new_allocatorIN14rcl_interfaces3msg19FloatingPointRange_ISaIvEEEE10deallocateEPS5_m
FN:154,_ZNK9__gnu_cxx13new_allocatorIN13geometry_msgs3msg17TransformStamped_ISaIvEEEE8max_sizeEv
FNDA:7,_ZNK9__gnu_cxx13new_allocatorIN13geometry_msgs3msg17TransformStamped_ISaIvEEEE8max_sizeEv
FN:154,_ZNK9__gnu_cxx13new_allocatorIN13geometry_msgs3msg12PoseStamped_ISaIvEEEE8max_sizeEv
FNDA:96,_ZNK9__gnu_cxx13new_allocatorIN13geometry_msgs3msg12PoseStamped_ISaIvEEEE8max_sizeEv
FN:154,_ZNK9__gnu_cxx13new_allocatorIN6rclcpp9ParameterEE8max_sizeEv
FNDA:8,_ZNK9__gnu_cxx13new_allocatorIN6rclcpp9ParameterEE8max_sizeEv
FN:154,_ZNK9__gnu_cxx13new_allocatorISt5tupleIJSt4pairIddES3_dS3_EEE8max_sizeEv
FNDA:2,_ZNK9__gnu_cxx13new_allocatorISt5tupleIJSt4pairIddES3_dS3_EEE8max_sizeEv
FN:154,_ZNK9__gnu_cxx13new_allocatorIPN7testing8internal30ParameterizedTestSuiteInfoBaseEE8max_sizeEv
FNDA:2,_ZNK9__gnu_cxx13new_allocatorIPN7testing8internal30ParameterizedTestSuiteInfoBaseEE8max_sizeEv
FN:154,_ZNK9__gnu_cxx13new_allocatorISt10shared_ptrIN7testing8internal26ParameterizedTestSuiteInfoI29CircleSegmentIntersectionTestE8TestInfoEEE8max_sizeEv
FNDA:2,_ZNK9__gnu_cxx13new_allocatorISt10shared_ptrIN7testing8internal26ParameterizedTestSuiteInfoI29CircleSegmentIntersectionTestE8TestInfoEEE8max_sizeEv
FN:154,_ZNK9__gnu_cxx13new_allocatorIN7testing8internal26ParameterizedTestSuiteInfoI29CircleSegmentIntersectionTestE17InstantiationInfoEE8max_sizeEv
FNDA:2,_ZNK9__gnu_cxx13new_allocatorIN7testing8internal26ParameterizedTestSuiteInfoI29CircleSegmentIntersectionTestE17InstantiationInfoEE8max_sizeEv
FN:160,_ZN9__gnu_cxx13new_allocatorI10ControllerE9constructIS1_JEEEvPT_DpOT0_
FNDA:11,_ZN9__gnu_cxx13new_allocatorI10ControllerE9constructIS1_JEEEvPT_DpOT0_
FN:160,_ZN9__gnu_cxx13new_allocatorISt13_Rb_tree_nodeINSt7__cxx1112basic_stringIcSt11char_traitsIcESaIcEEEEE9constructIS7_JRKS7_EEEvPT_DpOT0_
FNDA:12,_ZN9__gnu_cxx13new_allocatorISt13_Rb_tree_nodeINSt7__cxx1112basic_stringIcSt11char_traitsIcESaIcEEEEE9constructIS7_JRKS7_EEEvPT_DpOT0_
FN:160,_ZN9__gnu_cxx13new_allocatorIN6rclcpp21AsyncParametersClientEE9constructIS2_JSt10shared_ptrINS1_15node_interfaces17NodeBaseInterfaceEES5_INS6_19NodeTopicsInterfaceEES5_INS6_18NodeGraphInterfaceEES5_INS6_21NodeServicesInterfaceEEEEEvPT_DpOT0_
FNDA:1,_ZN9__gnu_cxx13new_allocatorIN6rclcpp21AsyncParametersClientEE9constructIS2_JSt10shared_ptrINS1_15node_interfaces17NodeBaseInterfaceEES5_INS6_19NodeTopicsInterfaceEES5_INS6_18NodeGraphInterfaceEES5_INS6_21NodeServicesInterfaceEEEEEvPT_DpOT0_
FN:160,_ZN9__gnu_cxx13new_allocatorIN13geometry_msgs3msg12PoseStamped_ISaIvEEEE9constructIS5_JS5_EEEvPT_DpOT0_
FNDA:523,_ZN9__gnu_cxx13new_allocatorIN13geometry_msgs3msg12PoseStamped_ISaIvEEEE9constructIS5_JS5_EEEvPT_DpOT0_
FN:160,_ZN9__gnu_cxx13new_allocatorIN15nav2_costmap_2d12Costmap2DROSEE9constructIS2_JRA13_KcEEEvPT_DpOT0_
FNDA:11,_ZN9__gnu_cxx13new_allocatorIN15nav2_costmap_2d12Costmap2DROSEE9constructIS2_JRA13_KcEEEvPT_DpOT0_
FN:160,_ZN9__gnu_cxx13new_allocatorIN7tf2_ros6BufferEE9constructIS2_JSt10shared_ptrIN6rclcpp5ClockEEEEEvPT_DpOT0_
FNDA:12,_ZN9__gnu_cxx13new_allocatorIN7tf2_ros6BufferEE9constructIS2_JSt10shared_ptrIN6rclcpp5ClockEEEEEvPT_DpOT0_
FN:160,_ZN9__gnu_cxx13new_allocatorIN16rclcpp_lifecycle13LifecycleNodeEE9constructIS2_JRA7_KcEEEvPT_DpOT0_
FNDA:12,_ZN9__gnu_cxx13new_allocatorIN16rclcpp_lifecycle13LifecycleNodeEE9constructIS2_JRA7_KcEEEvPT_DpOT0_
FN:160,_ZN9__gnu_cxx13new_allocatorIN15nav2_costmap_2d12Costmap2DROSEE9constructIS2_JRA15_KcEEEvPT_DpOT0_
FNDA:1,_ZN9__gnu_cxx13new_allocatorIN15nav2_costmap_2d12Costmap2DROSEE9constructIS2_JRA15_KcEEEvPT_DpOT0_
FN:160,_ZN9__gnu_cxx13new_allocatorIN7testing8internal26ParameterizedTestSuiteInfoI29CircleSegmentIntersectionTestE17InstantiationInfoEE9constructIS6_JS6_EEEvPT_DpOT0_
FNDA:1,_ZN9__gnu_cxx13new_allocatorIN7testing8internal26ParameterizedTestSuiteInfoI29CircleSegmentIntersectionTestE17InstantiationInfoEE9constructIS6_JS6_EEEvPT_DpOT0_
FN:160,_ZN9__gnu_cxx13new_allocatorISt10shared_ptrIN7testing8internal26ParameterizedTestSuiteInfoI29CircleSegmentIntersectionTestE8TestInfoEEE9constructIS8_JS8_EEEvPT_DpOT0_
FNDA:1,_ZN9__gnu_cxx13new_allocatorISt10shared_ptrIN7testing8internal26ParameterizedTestSuiteInfoI29CircleSegmentIntersectionTestE8TestInfoEEE9constructIS8_JS8_EEEvPT_DpOT0_
FN:160,_ZN9__gnu_cxx13new_allocatorIPN7testing8internal30ParameterizedTestSuiteInfoBaseEE9constructIS4_JS4_EEEvPT_DpOT0_
FNDA:1,_ZN9__gnu_cxx13new_allocatorIPN7testing8internal30ParameterizedTestSuiteInfoBaseEE9constructIS4_JS4_EEEvPT_DpOT0_
FN:166,_ZN9__gnu_cxx13new_allocatorI10ControllerE7destroyIS1_EEvPT_
FNDA:11,_ZN9__gnu_cxx13new_allocatorI10ControllerE7destroyIS1_EEvPT_
FN:166,_ZN9__gnu_cxx13new_allocatorISt10shared_ptrIN7testing8internal26ParameterizedTestSuiteInfoI29CircleSegmentIntersectionTestE8TestInfoEEE7destroyIS8_EEvPT_
FNDA:0,_ZN9__gnu_cxx13new_allocatorISt10shared_ptrIN7testing8internal26ParameterizedTestSuiteInfoI29CircleSegmentIntersectionTestE8TestInfoEEE7destroyIS8_EEvPT_
FN:166,_ZN9__gnu_cxx13new_allocatorIN15nav2_costmap_2d12Costmap2DROSEE7destroyIS2_EEvPT_
FNDA:12,_ZN9__gnu_cxx13new_allocatorIN15nav2_costmap_2d12Costmap2DROSEE7destroyIS2_EEvPT_
FN:166,_ZN9__gnu_cxx13new_allocatorIN13geometry_msgs3msg12PoseStamped_ISaIvEEEE7destroyIS5_EEvPT_
FNDA:372,_ZN9__gnu_cxx13new_allocatorIN13geometry_msgs3msg12PoseStamped_ISaIvEEEE7destroyIS5_EEvPT_
FN:166,_ZN9__gnu_cxx13new_allocatorIN7testing8internal26ParameterizedTestSuiteInfoI29CircleSegmentIntersectionTestE17InstantiationInfoEE7destroyIS6_EEvPT_
FNDA:0,_ZN9__gnu_cxx13new_allocatorIN7testing8internal26ParameterizedTestSuiteInfoI29CircleSegmentIntersectionTestE17InstantiationInfoEE7destroyIS6_EEvPT_
FN:166,_ZN9__gnu_cxx13new_allocatorIN7tf2_ros6BufferEE7destroyIS2_EEvPT_
FNDA:12,_ZN9__gnu_cxx13new_allocatorIN7tf2_ros6BufferEE7destroyIS2_EEvPT_
FN:166,_ZN9__gnu_cxx13new_allocatorIN16rclcpp_lifecycle13LifecycleNodeEE7destroyIS2_EEvPT_
FNDA:12,_ZN9__gnu_cxx13new_allocatorIN16rclcpp_lifecycle13LifecycleNodeEE7destroyIS2_EEvPT_
FN:166,_ZN9__gnu_cxx13new_allocatorIN6rclcpp21AsyncParametersClientEE7destroyIS2_EEvPT_
FNDA:1,_ZN9__gnu_cxx13new_allocatorIN6rclcpp21AsyncParametersClientEE7destroyIS2_EEvPT_
FN:166,_ZN9__gnu_cxx13new_allocatorISt13_Rb_tree_nodeINSt7__cxx1112basic_stringIcSt11char_traitsIcESaIcEEEEE7destroyIS7_EEvPT_
FNDA:12,_ZN9__gnu_cxx13new_allocatorISt13_Rb_tree_nodeINSt7__cxx1112basic_stringIcSt11char_traitsIcESaIcEEEEE7destroyIS7_EEvPT_
FN:197,_ZNK9__gnu_cxx13new_allocatorIdE11_M_max_sizeEv
FNDA:0,_ZNK9__gnu_cxx13new_allocatorIdE11_M_max_sizeEv
FN:197,_ZNK9__gnu_cxx13new_allocatorISt13_Rb_tree_nodeINSt7__cxx1112basic_stringIcSt11char_traitsIcESaIcEEEEE11_M_max_sizeEv
FNDA:12,_ZNK9__gnu_cxx13new_allocatorISt13_Rb_tree_nodeINSt7__cxx1112basic_stringIcSt11char_traitsIcESaIcEEEEE11_M_max_sizeEv
FN:197,_ZNK9__gnu_cxx13new_allocatorISt23_Sp_counted_ptr_inplaceIN15nav2_costmap_2d12Costmap2DROSESaIS3_ELNS_12_Lock_policyE2EEE11_M_max_sizeEv
FNDA:12,_ZNK9__gnu_cxx13new_allocatorISt23_Sp_counted_ptr_inplaceIN15nav2_costmap_2d12Costmap2DROSESaIS3_ELNS_12_Lock_policyE2EEE11_M_max_sizeEv
FN:197,_ZNK9__gnu_cxx13new_allocatorIlE11_M_max_sizeEv
FNDA:0,_ZNK9__gnu_cxx13new_allocatorIlE11_M_max_sizeEv
FN:197,_ZNK9__gnu_cxx13new_allocatorISt23_Sp_counted_ptr_inplaceI10ControllerSaIS2_ELNS_12_Lock_policyE2EEE11_M_max_sizeEv
FNDA:11,_ZNK9__gnu_cxx13new_allocatorISt23_Sp_counted_ptr_inplaceI10ControllerSaIS2_ELNS_12_Lock_policyE2EEE11_M_max_sizeEv
FN:197,_ZNK9__gnu_cxx13new_allocatorIhE11_M_max_sizeEv
FNDA:0,_ZNK9__gnu_cxx13new_allocatorIhE11_M_max_sizeEv
FN:197,_ZNK9__gnu_cxx13new_allocatorISt5tupleIJSt4pairIddES3_dS3_EEE11_M_max_sizeEv
FNDA:4,_ZNK9__gnu_cxx13new_allocatorISt5tupleIJSt4pairIddES3_dS3_EEE11_M_max_sizeEv
FN:197,_ZNK9__gnu_cxx13new_allocatorIN6rclcpp9ParameterEE11_M_max_sizeEv
FNDA:17,_ZNK9__gnu_cxx13new_allocatorIN6rclcpp9ParameterEE11_M_max_sizeEv
FN:197,_ZNK9__gnu_cxx13new_allocatorISt23_Sp_counted_ptr_inplaceIN7tf2_ros6BufferESaIS3_ELNS_12_Lock_policyE2EEE11_M_max_sizeEv
FNDA:12,_ZNK9__gnu_cxx13new_allocatorISt23_Sp_counted_ptr_inplaceIN7tf2_ros6BufferESaIS3_ELNS_12_Lock_policyE2EEE11_M_max_sizeEv
FN:197,_ZNK9__gnu_cxx13new_allocatorISt23_Sp_counted_ptr_inplaceIN16rclcpp_lifecycle13LifecycleNodeESaIS3_ELNS_12_Lock_policyE2EEE11_M_max_sizeEv
FNDA:12,_ZNK9__gnu_cxx13new_allocatorISt23_Sp_counted_ptr_inplaceIN16rclcpp_lifecycle13LifecycleNodeESaIS3_ELNS_12_Lock_policyE2EEE11_M_max_sizeEv
FN:197,_ZNK9__gnu_cxx13new_allocatorISt23_Sp_counted_ptr_inplaceIN6rclcpp21AsyncParametersClientESaIS3_ELNS_12_Lock_policyE2EEE11_M_max_sizeEv
FNDA:1,_ZNK9__gnu_cxx13new_allocatorISt23_Sp_counted_ptr_inplaceIN6rclcpp21AsyncParametersClientESaIS3_ELNS_12_Lock_policyE2EEE11_M_max_sizeEv
FN:197,_ZNK9__gnu_cxx13new_allocatorIN13geometry_msgs3msg12PoseStamped_ISaIvEEEE11_M_max_sizeEv
FNDA:155,_ZNK9__gnu_cxx13new_allocatorIN13geometry_msgs3msg12PoseStamped_ISaIvEEEE11_M_max_sizeEv
FN:197,_ZNK9__gnu_cxx13new_allocatorIN13geometry_msgs3msg17TransformStamped_ISaIvEEEE11_M_max_sizeEv
FNDA:14,_ZNK9__gnu_cxx13new_allocatorIN13geometry_msgs3msg17TransformStamped_ISaIvEEEE11_M_max_sizeEv
FN:197,_ZNK9__gnu_cxx13new_allocatorINSt7__cxx1112basic_stringIcSt11char_traitsIcESaIcEEEE11_M_max_sizeEv
FNDA:389,_ZNK9__gnu_cxx13new_allocatorINSt7__cxx1112basic_stringIcSt11char_traitsIcESaIcEEEE11_M_max_sizeEv
FN:197,_ZNK9__gnu_cxx13new_allocatorImE11_M_max_sizeEv
FNDA:0,_ZNK9__gnu_cxx13new_allocatorImE11_M_max_sizeEv
FN:197,_ZNK9__gnu_cxx13new_allocatorIPN7testing8internal30ParameterizedTestSuiteInfoBaseEE11_M_max_sizeEv
FNDA:3,_ZNK9__gnu_cxx13new_allocatorIPN7testing8internal30ParameterizedTestSuiteInfoBaseEE11_M_max_sizeEv
FN:197,_ZNK9__gnu_cxx13new_allocatorIN7testing8internal26ParameterizedTestSuiteInfoI29CircleSegmentIntersectionTestE17InstantiationInfoEE11_M_max_sizeEv
FNDA:3,_ZNK9__gnu_cxx13new_allocatorIN7testing8internal26ParameterizedTestSuiteInfoI29CircleSegmentIntersectionTestE17InstantiationInfoEE11_M_max_sizeEv
FN:197,_ZNK9__gnu_cxx13new_allocatorISt10shared_ptrIN7testing8internal26ParameterizedTestSuiteInfoI29CircleSegmentIntersectionTestE8TestInfoEEE11_M_max_sizeEv
FNDA:3,_ZNK9__gnu_cxx13new_allocatorISt10shared_ptrIN7testing8internal26ParameterizedTestSuiteInfoI29CircleSegmentIntersectionTestE8TestInfoEEE11_M_max_sizeEv
DA:79,7
DA:79,0
DA:79,8
DA:79,80
DA:79,1
DA:79,80
DA:79,12
DA:79,12
DA:79,12
DA:79,11
DA:79,59
DA:79,1
DA:79,2
DA:79,414
DA:79,414
DA:79,1
DA:79,1
DA:79,2
DA:79,24
DA:79,24
DA:79,24
DA:79,22
DA:82,4
DA:82,33
DA:82,36
DA:82,36
DA:82,36
DA:82,3
DA:82,18
DA:82,0
DA:82,7
DA:82,4
DA:82,160
DA:82,160
DA:82,160
DA:82,160
DA:82,546
DA:89,80
DA:89,0
DA:89,2095
DA:89,1505
DA:89,1585
DA:89,1505
DA:89,1505
DA:89,38
DA:89,306
DA:89,7
DA:89,63
DA:89,14
DA:89,414
DA:89,414
DA:89,1
DA:89,4
DA:89,48
DA:89,48
DA:89,48
DA:89,44
DA:89,1
DA:89,1
DA:89,6
DA:89,2
DA:89,24
DA:89,24
DA:89,24
DA:89,22
DA:103,1
DA:111,1
DA:115,0
DA:116,0
DA:117,0
DA:127,1
DA:103,0
DA:111,0
DA:115,0
DA:116,0
DA:117,0
DA:127,0
DA:103,194
DA:111,194
DA:115,0
DA:116,0
DA:117,0
DA:127,194
DA:103,59
DA:111,59
DA:115,0
DA:116,0
DA:117,0
DA:127,59
DA:103,9
DA:111,9
DA:115,0
DA:116,0
DA:117,0
DA:127,9
DA:103,0
DA:111,0
DA:117,0
DA:127,0
DA:103,0
DA:111,0
DA:115,0
DA:116,0
DA:117,0
DA:127,0
DA:103,0
DA:111,0
DA:115,0
DA:116,0
DA:117,0
DA:127,0
DA:103,7
DA:111,7
DA:115,0
DA:116,0
DA:117,0
DA:127,7
DA:103,12
DA:111,12
DA:115,0
DA:116,0
DA:117,0
DA:127,12
DA:103,1
DA:111,1
DA:115,0
DA:116,0
DA:117,0
DA:127,1
DA:103,2
DA:111,2
DA:115,0
DA:116,0
DA:117,0
DA:127,2
DA:103,1
DA:111,1
DA:115,0
DA:116,0
DA:117,0
DA:127,1
DA:103,1
DA:111,1
DA:115,0
DA:116,0
DA:117,0
DA:127,1
DA:103,12
DA:111,12
DA:115,0
DA:116,0
DA:117,0
DA:127,12
DA:103,12
DA:111,12
DA:115,0
DA:116,0
DA:117,0
DA:127,12
DA:103,12
DA:111,12
DA:115,0
DA:116,0
DA:117,0
DA:127,12
DA:103,11
DA:111,11
DA:115,0
DA:116,0
DA:117,0
DA:127,11
DA:132,7
DA:145,7
DA:132,1
DA:145,1
DA:132,194
DA:145,194
DA:132,0
DA:145,0
DA:132,0
DA:145,0
DA:132,0
DA:145,0
DA:132,0
DA:145,0
DA:132,9
DA:145,9
DA:132,0
DA:145,0
DA:132,7
DA:145,7
DA:132,59
DA:145,59
DA:132,12
DA:145,12
DA:132,0
DA:145,0
DA:132,0
DA:145,0
DA:132,1
DA:145,1
DA:132,1
DA:145,1
DA:132,2
DA:145,2
DA:132,1
DA:145,1
DA:132,12
DA:145,12
DA:132,12
DA:145,12
DA:132,12
DA:145,12
DA:132,11
DA:145,11
DA:154,2
DA:155,2
DA:154,2
DA:155,2
DA:154,2
DA:155,2
DA:154,2
DA:155,2
DA:154,7
DA:155,7
DA:154,8
DA:155,8
DA:154,96
DA:155,96
DA:160,12
DA:162,12
DA:160,523
DA:162,523
DA:160,1
DA:162,1
DA:160,1
DA:162,1
DA:160,11
DA:162,22
DA:160,11
DA:162,11
DA:160,12
DA:162,12
DA:160,12
DA:162,12
DA:160,1
DA:162,1
DA:160,1
DA:162,1
DA:160,1
DA:162,1
DA:166,12
DA:168,12
DA:166,1
DA:168,1
DA:166,12
DA:168,12
DA:166,12
DA:168,12
DA:166,12
DA:168,12
DA:166,11
DA:168,11
DA:166,372
DA:168,372
DA:166,0
DA:168,0
DA:166,0
DA:168,0
DA:197,3
DA:200,3
DA:197,0
DA:200,0
DA:197,389
DA:200,389
DA:197,155
DA:200,155
DA:197,17
DA:200,17
DA:197,0
DA:200,0
DA:197,0
DA:200,0
DA:197,0
DA:200,0
DA:197,14
DA:200,14
DA:197,12
DA:200,12
DA:197,3
DA:200,3
DA:197,4
DA:200,4
DA:197,3
DA:200,3
DA:197,1
DA:200,1
DA:197,12
DA:200,12
DA:197,12
DA:200,12
DA:197,12
DA:200,12
DA:197,11
DA:200,11
end_of_record
SF:/usr/include/c++/11/bits/char_traits.h
FN:106,_ZN9__gnu_cxx11char_traitsIcE2eqERKcS3_
FNDA:0,_ZN9__gnu_cxx11char_traitsIcE2eqERKcS3_
FN:167,_ZN9__gnu_cxx11char_traitsIcE6lengthEPKc
FNDA:0,_ZN9__gnu_cxx11char_traitsIcE6lengthEPKc
FN:364,_ZNSt11char_traitsIcE2ltERKcS2_
FNDA:0,_ZNSt11char_traitsIcE2ltERKcS2_
FN:372,_ZNSt11char_traitsIcE7compareEPKcS2_m
FNDA:298,_ZNSt11char_traitsIcE7compareEPKcS2_m
FN:393,_ZNSt11char_traitsIcE6lengthEPKc
FNDA:2546,_ZNSt11char_traitsIcE6lengthEPKc
FN:429,_ZNSt11char_traitsIcE4copyEPcPKcm
FNDA:0,_ZNSt11char_traitsIcE4copyEPcPKcm
DA:106,0
DA:107,0
DA:167,0
DA:170,0
DA:171,0
DA:172,0
DA:173,0
DA:290,2546
DA:364,0
DA:367,0
DA:368,0
DA:372,298
DA:374,298
DA:375,0
DA:377,298
DA:379,298
DA:381,0
DA:382,0
DA:383,0
DA:384,0
DA:385,0
DA:386,0
DA:389,298
DA:393,2546
DA:396,2546
DA:397,0
DA:399,2546
DA:429,0
DA:431,0
DA:432,0
DA:437,0
end_of_record
SF:/opt/ros/humble/include/geometry_msgs/geometry_msgs/msg/detail/pose__struct.hpp
FN:42,_ZN13geometry_msgs3msg5Pose_ISaIvEEC2EN18rosidl_runtime_cpp21MessageInitializationE
FNDA:1103,_ZN13geometry_msgs3msg5Pose_ISaIvEEC2EN18rosidl_runtime_cpp21MessageInitializationE
DA:42,1103
DA:43,1103
DA:44,1103
DA:47,1103
end_of_record
SF:/opt/ros/humble/include/geometry_msgs/geometry_msgs/msg/detail/transform_stamped__struct.hpp
FN:42,_ZN13geometry_msgs3msg17TransformStamped_ISaIvEEC2EN18rosidl_runtime_cpp21MessageInitializationE
FNDA:14,_ZN13geometry_msgs3msg17TransformStamped_ISaIvEEC2EN18rosidl_runtime_cpp21MessageInitializationE
DA:42,14
DA:43,14
DA:44,14
DA:46,14
DA:49,14
DA:51,14
end_of_record
SF:/usr/include/c++/11/bits/shared_ptr_base.h
FN:126,_ZNSt16_Sp_counted_baseILN9__gnu_cxx12_Lock_policyE2EEC2Ev
FNDA:218,_ZNSt16_Sp_counted_baseILN9__gnu_cxx12_Lock_policyE2EEC2Ev
FN:130,_ZNSt16_Sp_counted_baseILN9__gnu_cxx12_Lock_policyE2EED0Ev
FNDA:0,_ZNSt16_Sp_counted_baseILN9__gnu_cxx12_Lock_policyE2EED0Ev
FN:130,_ZNSt16_Sp_counted_baseILN9__gnu_cxx12_Lock_policyE2EED2Ev
FNDA:218,_ZNSt16_Sp_counted_baseILN9__gnu_cxx12_Lock_policyE2EED2Ev
FN:140,_ZNSt16_Sp_counted_baseILN9__gnu_cxx12_Lock_policyE2EE10_M_destroyEv
FNDA:0,_ZNSt16_Sp_counted_baseILN9__gnu_cxx12_Lock_policyE2EE10_M_destroyEv
FN:147,_ZNSt16_Sp_counted_baseILN9__gnu_cxx12_Lock_policyE2EE15_M_add_ref_copyEv
FNDA:907,_ZNSt16_Sp_counted_baseILN9__gnu_cxx12_Lock_policyE2EE15_M_add_ref_copyEv
FN:161,_ZNSt16_Sp_counted_baseILN9__gnu_cxx12_Lock_policyE2EE10_M_releaseEv
FNDA:1317,_ZNSt16_Sp_counted_baseILN9__gnu_cxx12_Lock_policyE2EE10_M_releaseEv
FN:190,_ZNSt16_Sp_counted_baseILN9__gnu_cxx12_Lock_policyE2EE15_M_weak_add_refEv
FNDA:137,_ZNSt16_Sp_counted_baseILN9__gnu_cxx12_Lock_policyE2EE15_M_weak_add_refEv
FN:194,_ZNSt16_Sp_counted_baseILN9__gnu_cxx12_Lock_policyE2EE15_M_weak_releaseEv
FNDA:71,_ZNSt16_Sp_counted_baseILN9__gnu_cxx12_Lock_policyE2EE15_M_weak_releaseEv
FN:212,_ZNKSt16_Sp_counted_baseILN9__gnu_cxx12_Lock_policyE2EE16_M_get_use_countEv
FNDA:34,_ZNKSt16_Sp_counted_baseILN9__gnu_cxx12_Lock_policyE2EE16_M_get_use_countEv
FN:343,_ZNSt15_Sp_counted_ptrIPN7testing8internal26ParameterizedTestSuiteInfoI29CircleSegmentIntersectionTestE8TestInfoELN9__gnu_cxx12_Lock_policyE2EEC2ES6_
FNDA:1,_ZNSt15_Sp_counted_ptrIPN7testing8internal26ParameterizedTestSuiteInfoI29CircleSegmentIntersectionTestE8TestInfoELN9__gnu_cxx12_Lock_policyE2EEC2ES6_
FN:343,_ZNSt15_Sp_counted_ptrIPN7testing8internal23ParamGeneratorInterfaceISt5tupleIJSt4pairIddES5_dS5_EEEELN9__gnu_cxx12_Lock_policyE2EEC2ES8_
FNDA:1,_ZNSt15_Sp_counted_ptrIPN7testing8internal23ParamGeneratorInterfaceISt5tupleIJSt4pairIddES5_dS5_EEEELN9__gnu_cxx12_Lock_policyE2EEC2ES8_
FN:347,_ZNSt15_Sp_counted_ptrIPN7testing8internal26ParameterizedTestSuiteInfoI29CircleSegmentIntersectionTestE8TestInfoELN9__gnu_cxx12_Lock_policyE2EE10_M_disposeEv
FNDA:1,_ZNSt15_Sp_counted_ptrIPN7testing8internal26ParameterizedTestSuiteInfoI29CircleSegmentIntersectionTestE8TestInfoELN9__gnu_cxx12_Lock_policyE2EE10_M_disposeEv
FN:347,_ZNSt15_Sp_counted_ptrIPN7testing8internal23ParamGeneratorInterfaceISt5tupleIJSt4pairIddES5_dS5_EEEELN9__gnu_cxx12_Lock_policyE2EE10_M_disposeEv
FNDA:1,_ZNSt15_Sp_counted_ptrIPN7testing8internal23ParamGeneratorInterfaceISt5tupleIJSt4pairIddES5_dS5_EEEELN9__gnu_cxx12_Lock_policyE2EE10_M_disposeEv
FN:351,_ZNSt15_Sp_counted_ptrIPN7testing8internal26ParameterizedTestSuiteInfoI29CircleSegmentIntersectionTestE8TestInfoELN9__gnu_cxx12_Lock_policyE2EE10_M_destroyEv
FNDA:1,_ZNSt15_Sp_counted_ptrIPN7testing8internal26ParameterizedTestSuiteInfoI29CircleSegmentIntersectionTestE8TestInfoELN9__gnu_cxx12_Lock_policyE2EE10_M_destroyEv
FN:351,_ZNSt15_Sp_counted_ptrIPN7testing8internal23ParamGeneratorInterfaceISt5tupleIJSt4pairIddES5_dS5_EEEELN9__gnu_cxx12_Lock_policyE2EE10_M_destroyEv
FNDA:1,_ZNSt15_Sp_counted_ptrIPN7testing8internal23ParamGeneratorInterfaceISt5tupleIJSt4pairIddES5_dS5_EEEELN9__gnu_cxx12_Lock_policyE2EE10_M_destroyEv
FN:355,_ZNSt15_Sp_counted_ptrIPN7testing8internal23ParamGeneratorInterfaceISt5tupleIJSt4pairIddES5_dS5_EEEELN9__gnu_cxx12_Lock_policyE2EE14_M_get_deleterERKSt9type_info
FNDA:0,_ZNSt15_Sp_counted_ptrIPN7testing8internal23ParamGeneratorInterfaceISt5tupleIJSt4pairIddES5_dS5_EEEELN9__gnu_cxx12_Lock_policyE2EE14_M_get_deleterERKSt9type_info
FN:355,_ZNSt15_Sp_counted_ptrIPN7testing8internal26ParameterizedTestSuiteInfoI29CircleSegmentIntersectionTestE8TestInfoELN9__gnu_cxx12_Lock_policyE2EE14_M_get_deleterERKSt9type_info
FNDA:0,_ZNSt15_Sp_counted_ptrIPN7testing8internal26ParameterizedTestSuiteInfoI29CircleSegmentIntersectionTestE8TestInfoELN9__gnu_cxx12_Lock_policyE2EE14_M_get_deleterERKSt9type_info
FN:385,_ZNSt14_Sp_ebo_helperILi0ESaIN15nav2_costmap_2d12Costmap2DROSEELb1EEC2ERKS2_
FNDA:12,_ZNSt14_Sp_ebo_helperILi0ESaIN15nav2_costmap_2d12Costmap2DROSEELb1EEC2ERKS2_
FN:385,_ZNSt14_Sp_ebo_helperILi0ESaI10ControllerELb1EEC2ERKS1_
FNDA:11,_ZNSt14_Sp_ebo_helperILi0ESaI10ControllerELb1EEC2ERKS1_
FN:385,_ZNSt14_Sp_ebo_helperILi0ESaIN7tf2_ros6BufferEELb1EEC2ERKS2_
FNDA:12,_ZNSt14_Sp_ebo_helperILi0ESaIN7tf2_ros6BufferEELb1EEC2ERKS2_
FN:385,_ZNSt14_Sp_ebo_helperILi0ESaIN16rclcpp_lifecycle13LifecycleNodeEELb1EEC2ERKS2_
FNDA:12,_ZNSt14_Sp_ebo_helperILi0ESaIN16rclcpp_lifecycle13LifecycleNodeEELb1EEC2ERKS2_
FN:385,_ZNSt14_Sp_ebo_helperILi0ESaIN6rclcpp21AsyncParametersClientEELb1EEC2ERKS2_
FNDA:1,_ZNSt14_Sp_ebo_helperILi0ESaIN6rclcpp21AsyncParametersClientEELb1EEC2ERKS2_
FN:389,_ZNSt14_Sp_ebo_helperILi0ESaI10ControllerELb1EE6_S_getERS2_
FNDA:22,_ZNSt14_Sp_ebo_helperILi0ESaI10ControllerELb1EE6_S_getERS2_
FN:389,_ZNSt14_Sp_ebo_helperILi0ESaIN15nav2_costmap_2d12Costmap2DROSEELb1EE6_S_getERS3_
FNDA:24,_ZNSt14_Sp_ebo_helperILi0ESaIN15nav2_costmap_2d12Costmap2DROSEELb1EE6_S_getERS3_
FN:389,_ZNSt14_Sp_ebo_helperILi0ESaIN7tf2_ros6BufferEELb1EE6_S_getERS3_
FNDA:24,_ZNSt14_Sp_ebo_helperILi0ESaIN7tf2_ros6BufferEELb1EE6_S_getERS3_
FN:389,_ZNSt14_Sp_ebo_helperILi0ESaIN16rclcpp_lifecycle13LifecycleNodeEELb1EE6_S_getERS3_
FNDA:24,_ZNSt14_Sp_ebo_helperILi0ESaIN16rclcpp_lifecycle13LifecycleNodeEELb1EE6_S_getERS3_
FN:389,_ZNSt14_Sp_ebo_helperILi0ESaIN6rclcpp21AsyncParametersClientEELb1EE6_S_getERS3_
FNDA:2,_ZNSt14_Sp_ebo_helperILi0ESaIN6rclcpp21AsyncParametersClientEELb1EE6_S_getERS3_
FN:479,_ZNSt19_Sp_make_shared_tag5_S_tiEv
FNDA:0,_ZNSt19_Sp_make_shared_tag5_S_tiEv
FN:502,_ZNSt23_Sp_counted_ptr_inplaceI10ControllerSaIS0_ELN9__gnu_cxx12_Lock_policyE2EE5_ImplC2ES1_
FNDA:11,_ZNSt23_Sp_counted_ptr_inplaceI10ControllerSaIS0_ELN9__gnu_cxx12_Lock_policyE2EE5_ImplC2ES1_
FN:502,_ZNSt23_Sp_counted_ptr_inplaceIN6rclcpp21AsyncParametersClientESaIS1_ELN9__gnu_cxx12_Lock_policyE2EE5_ImplC2ES2_
FNDA:1,_ZNSt23_Sp_counted_ptr_inplaceIN6rclcpp21AsyncParametersClientESaIS1_ELN9__gnu_cxx12_Lock_policyE2EE5_ImplC2ES2_
FN:502,_ZNSt23_Sp_counted_ptr_inplaceIN15nav2_costmap_2d12Costmap2DROSESaIS1_ELN9__gnu_cxx12_Lock_policyE2EE5_ImplC2ES2_
FNDA:12,_ZNSt23_Sp_counted_ptr_inplaceIN15nav2_costmap_2d12Costmap2DROSESaIS1_ELN9__gnu_cxx12_Lock_policyE2EE5_ImplC2ES2_
FN:502,_ZNSt23_Sp_counted_ptr_inplaceIN7tf2_ros6BufferESaIS1_ELN9__gnu_cxx12_Lock_policyE2EE5_ImplC2ES2_
FNDA:12,_ZNSt23_Sp_counted_ptr_inplaceIN7tf2_ros6BufferESaIS1_ELN9__gnu_cxx12_Lock_policyE2EE5_ImplC2ES2_
FN:502,_ZNSt23_Sp_counted_ptr_inplaceIN16rclcpp_lifecycle13LifecycleNodeESaIS1_ELN9__gnu_cxx12_Lock_policyE2EE5_ImplC2ES2_
FNDA:12,_ZNSt23_Sp_counted_ptr_inplaceIN16rclcpp_lifecycle13LifecycleNodeESaIS1_ELN9__gnu_cxx12_Lock_policyE2EE5_ImplC2ES2_
FN:504,_ZNSt23_Sp_counted_ptr_inplaceIN7tf2_ros6BufferESaIS1_ELN9__gnu_cxx12_Lock_policyE2EE5_Impl8_M_allocEv
FNDA:24,_ZNSt23_Sp_counted_ptr_inplaceIN7tf2_ros6BufferESaIS1_ELN9__gnu_cxx12_Lock_policyE2EE5_Impl8_M_allocEv
FN:504,_ZNSt23_Sp_counted_ptr_inplaceIN15nav2_costmap_2d12Costmap2DROSESaIS1_ELN9__gnu_cxx12_Lock_policyE2EE5_Impl8_M_allocEv
FNDA:24,_ZNSt23_Sp_counted_ptr_inplaceIN15nav2_costmap_2d12Costmap2DROSESaIS1_ELN9__gnu_cxx12_Lock_policyE2EE5_Impl8_M_allocEv
FN:504,_ZNSt23_Sp_counted_ptr_inplaceIN16rclcpp_lifecycle13LifecycleNodeESaIS1_ELN9__gnu_cxx12_Lock_policyE2EE5_Impl8_M_allocEv
FNDA:24,_ZNSt23_Sp_counted_ptr_inplaceIN16rclcpp_lifecycle13LifecycleNodeESaIS1_ELN9__gnu_cxx12_Lock_policyE2EE5_Impl8_M_allocEv
FN:504,_ZNSt23_Sp_counted_ptr_inplaceI10ControllerSaIS0_ELN9__gnu_cxx12_Lock_policyE2EE5_Impl8_M_allocEv
FNDA:22,_ZNSt23_Sp_counted_ptr_inplaceI10ControllerSaIS0_ELN9__gnu_cxx12_Lock_policyE2EE5_Impl8_M_allocEv
FN:504,_ZNSt23_Sp_counted_ptr_inplaceIN6rclcpp21AsyncParametersClientESaIS1_ELN9__gnu_cxx12_Lock_policyE2EE5_Impl8_M_allocEv
FNDA:2,_ZNSt23_Sp_counted_ptr_inplaceIN6rclcpp21AsyncParametersClientESaIS1_ELN9__gnu_cxx12_Lock_policyE2EE5_Impl8_M_allocEv
FN:514,_ZNSt23_Sp_counted_ptr_inplaceIN15nav2_costmap_2d12Costmap2DROSESaIS1_ELN9__gnu_cxx12_Lock_policyE2EEC2IJRA15_KcEEES2_DpOT_
FNDA:1,_ZNSt23_Sp_counted_ptr_inplaceIN15nav2_costmap_2d12Costmap2DROSESaIS1_ELN9__gnu_cxx12_Lock_policyE2EEC2IJRA15_KcEEES2_DpOT_
FN:514,_ZNSt23_Sp_counted_ptr_inplaceIN16rclcpp_lifecycle13LifecycleNodeESaIS1_ELN9__gnu_cxx12_Lock_policyE2EEC2IJRA7_KcEEES2_DpOT_
FNDA:12,_ZNSt23_Sp_counted_ptr_inplaceIN16rclcpp_lifecycle13LifecycleNodeESaIS1_ELN9__gnu_cxx12_Lock_policyE2EEC2IJRA7_KcEEES2_DpOT_
FN:514,_ZNSt23_Sp_counted_ptr_inplaceIN7tf2_ros6BufferESaIS1_ELN9__gnu_cxx12_Lock_policyE2EEC2IJSt10shared_ptrIN6rclcpp5ClockEEEEES2_DpOT_
FNDA:12,_ZNSt23_Sp_counted_ptr_inplaceIN7tf2_ros6BufferESaIS1_ELN9__gnu_cxx12_Lock_policyE2EEC2IJSt10shared_ptrIN6rclcpp5ClockEEEEES2_DpOT_
FN:514,_ZNSt23_Sp_counted_ptr_inplaceIN6rclcpp21AsyncParametersClientESaIS1_ELN9__gnu_cxx12_Lock_policyE2EEC2IJSt10shared_ptrINS0_15node_interfaces17NodeBaseInterfaceEES7_INS8_19NodeTopicsInterfaceEES7_INS8_18NodeGraphInterfaceEES7_INS8_21NodeServicesInterfaceEEEEES2_DpOT_
FNDA:1,_ZNSt23_Sp_counted_ptr_inplaceIN6rclcpp21AsyncParametersClientESaIS1_ELN9__gnu_cxx12_Lock_policyE2EEC2IJSt10shared_ptrINS0_15node_interfaces17NodeBaseInterfaceEES7_INS8_19NodeTopicsInterfaceEES7_INS8_18NodeGraphInterfaceEES7_INS8_21NodeServicesInterfaceEEEEES2_DpOT_
FN:514,_ZNSt23_Sp_counted_ptr_inplaceIN15nav2_costmap_2d12Costmap2DROSESaIS1_ELN9__gnu_cxx12_Lock_policyE2EEC2IJRA13_KcEEES2_DpOT_
FNDA:11,_ZNSt23_Sp_counted_ptr_inplaceIN15nav2_costmap_2d12Costmap2DROSESaIS1_ELN9__gnu_cxx12_Lock_policyE2EEC2IJRA13_KcEEES2_DpOT_
FN:514,_ZNSt23_Sp_counted_ptr_inplaceI10ControllerSaIS0_ELN9__gnu_cxx12_Lock_policyE2EEC2IJEEES1_DpOT_
FNDA:11,_ZNSt23_Sp_counted_ptr_inplaceI10ControllerSaIS0_ELN9__gnu_cxx12_Lock_policyE2EEC2IJEEES1_DpOT_
FN:523,_ZNSt23_Sp_counted_ptr_inplaceIN7tf2_ros6BufferESaIS1_ELN9__gnu_cxx12_Lock_policyE2EED0Ev
FNDA:0,_ZNSt23_Sp_counted_ptr_inplaceIN7tf2_ros6BufferESaIS1_ELN9__gnu_cxx12_Lock_policyE2EED0Ev
FN:523,_ZNSt23_Sp_counted_ptr_inplaceIN16rclcpp_lifecycle13LifecycleNodeESaIS1_ELN9__gnu_cxx12_Lock_policyE2EED0Ev
FNDA:0,_ZNSt23_Sp_counted_ptr_inplaceIN16rclcpp_lifecycle13LifecycleNodeESaIS1_ELN9__gnu_cxx12_Lock_policyE2EED0Ev
FN:523,_ZNSt23_Sp_counted_ptr_inplaceIN16rclcpp_lifecycle13LifecycleNodeESaIS1_ELN9__gnu_cxx12_Lock_policyE2EED2Ev
FNDA:12,_ZNSt23_Sp_counted_ptr_inplaceIN16rclcpp_lifecycle13LifecycleNodeESaIS1_ELN9__gnu_cxx12_Lock_policyE2EED2Ev
FN:523,_ZNSt23_Sp_counted_ptr_inplaceIN6rclcpp21AsyncParametersClientESaIS1_ELN9__gnu_cxx12_Lock_policyE2EED0Ev
FNDA:0,_ZNSt23_Sp_counted_ptr_inplaceIN6rclcpp21AsyncParametersClientESaIS1_ELN9__gnu_cxx12_Lock_policyE2EED0Ev
FN:523,_ZNSt23_Sp_counted_ptr_inplaceIN6rclcpp21AsyncParametersClientESaIS1_ELN9__gnu_cxx12_Lock_policyE2EED2Ev
FNDA:1,_ZNSt23_Sp_counted_ptr_inplaceIN6rclcpp21AsyncParametersClientESaIS1_ELN9__gnu_cxx12_Lock_policyE2EED2Ev
FN:523,_ZNSt23_Sp_counted_ptr_inplaceI10ControllerSaIS0_ELN9__gnu_cxx12_Lock_policyE2EED2Ev
FNDA:11,_ZNSt23_Sp_counted_ptr_inplaceI10ControllerSaIS0_ELN9__gnu_cxx12_Lock_policyE2EED2Ev
FN:523,_ZNSt23_Sp_counted_ptr_inplaceI10ControllerSaIS0_ELN9__gnu_cxx12_Lock_policyE2EED0Ev
FNDA:0,_ZNSt23_Sp_counted_ptr_inplaceI10ControllerSaIS0_ELN9__gnu_cxx12_Lock_policyE2EED0Ev
FN:523,_ZNSt23_Sp_counted_ptr_inplaceIN15nav2_costmap_2d12Costmap2DROSESaIS1_ELN9__gnu_cxx12_Lock_policyE2EED2Ev
FNDA:12,_ZNSt23_Sp_counted_ptr_inplaceIN15nav2_costmap_2d12Costmap2DROSESaIS1_ELN9__gnu_cxx12_Lock_policyE2EED2Ev
FN:523,_ZNSt23_Sp_counted_ptr_inplaceIN15nav2_costmap_2d12Costmap2DROSESaIS1_ELN9__gnu_cxx12_Lock_policyE2EED0Ev
FNDA:0,_ZNSt23_Sp_counted_ptr_inplaceIN15nav2_costmap_2d12Costmap2DROSESaIS1_ELN9__gnu_cxx12_Lock_policyE2EED0Ev
FN:523,_ZNSt23_Sp_counted_ptr_inplaceIN7tf2_ros6BufferESaIS1_ELN9__gnu_cxx12_Lock_policyE2EED2Ev
FNDA:12,_ZNSt23_Sp_counted_ptr_inplaceIN7tf2_ros6BufferESaIS1_ELN9__gnu_cxx12_Lock_policyE2EED2Ev
FN:526,_ZNSt23_Sp_counted_ptr_inplaceIN6rclcpp21AsyncParametersClientESaIS1_ELN9__gnu_cxx12_Lock_policyE2EE10_M_disposeEv
FNDA:1,_ZNSt23_Sp_counted_ptr_inplaceIN6rclcpp21AsyncParametersClientESaIS1_ELN9__gnu_cxx12_Lock_policyE2EE10_M_disposeEv
FN:526,_ZNSt23_Sp_counted_ptr_inplaceI10ControllerSaIS0_ELN9__gnu_cxx12_Lock_policyE2EE10_M_disposeEv
FNDA:11,_ZNSt23_Sp_counted_ptr_inplaceI10ControllerSaIS0_ELN9__gnu_cxx12_Lock_policyE2EE10_M_disposeEv
FN:526,_ZNSt23_Sp_counted_ptr_inplaceIN7tf2_ros6BufferESaIS1_ELN9__gnu_cxx12_Lock_policyE2EE10_M_disposeEv
FNDA:12,_ZNSt23_Sp_counted_ptr_inplaceIN7tf2_ros6BufferESaIS1_ELN9__gnu_cxx12_Lock_policyE2EE10_M_disposeEv
FN:526,_ZNSt23_Sp_counted_ptr_inplaceIN15nav2_costmap_2d12Costmap2DROSESaIS1_ELN9__gnu_cxx12_Lock_policyE2EE10_M_disposeEv
FNDA:12,_ZNSt23_Sp_counted_ptr_inplaceIN15nav2_costmap_2d12Costmap2DROSESaIS1_ELN9__gnu_cxx12_Lock_policyE2EE10_M_disposeEv
FN:526,_ZNSt23_Sp_counted_ptr_inplaceIN16rclcpp_lifecycle13LifecycleNodeESaIS1_ELN9__gnu_cxx12_Lock_policyE2EE10_M_disposeEv
FNDA:12,_ZNSt23_Sp_counted_ptr_inplaceIN16rclcpp_lifecycle13LifecycleNodeESaIS1_ELN9__gnu_cxx12_Lock_policyE2EE10_M_disposeEv
FN:533,_ZNSt23_Sp_counted_ptr_inplaceIN16rclcpp_lifecycle13LifecycleNodeESaIS1_ELN9__gnu_cxx12_Lock_policyE2EE10_M_destroyEv
FNDA:12,_ZNSt23_Sp_counted_ptr_inplaceIN16rclcpp_lifecycle13LifecycleNodeESaIS1_ELN9__gnu_cxx12_Lock_policyE2EE10_M_destroyEv
FN:533,_ZNSt23_Sp_counted_ptr_inplaceIN7tf2_ros6BufferESaIS1_ELN9__gnu_cxx12_Lock_policyE2EE10_M_destroyEv
FNDA:12,_ZNSt23_Sp_counted_ptr_inplaceIN7tf2_ros6BufferESaIS1_ELN9__gnu_cxx12_Lock_policyE2EE10_M_destroyEv
FN:533,_ZNSt23_Sp_counted_ptr_inplaceIN15nav2_costmap_2d12Costmap2DROSESaIS1_ELN9__gnu_cxx12_Lock_policyE2EE10_M_destroyEv
FNDA:12,_ZNSt23_Sp_counted_ptr_inplaceIN15nav2_costmap_2d12Costmap2DROSESaIS1_ELN9__gnu_cxx12_Lock_policyE2EE10_M_destroyEv
FN:533,_ZNSt23_Sp_counted_ptr_inplaceI10ControllerSaIS0_ELN9__gnu_cxx12_Lock_policyE2EE10_M_destroyEv
FNDA:11,_ZNSt23_Sp_counted_ptr_inplaceI10ControllerSaIS0_ELN9__gnu_cxx12_Lock_policyE2EE10_M_destroyEv
FN:533,_ZNSt23_Sp_counted_ptr_inplaceIN6rclcpp21AsyncParametersClientESaIS1_ELN9__gnu_cxx12_Lock_policyE2EE10_M_destroyEv
FNDA:1,_ZNSt23_Sp_counted_ptr_inplaceIN6rclcpp21AsyncParametersClientESaIS1_ELN9__gnu_cxx12_Lock_policyE2EE10_M_destroyEv
FN:546,_ZNSt23_Sp_counted_ptr_inplaceIN7tf2_ros6BufferESaIS1_ELN9__gnu_cxx12_Lock_policyE2EE14_M_get_deleterERKSt9type_info
FNDA:0,_ZNSt23_Sp_counted_ptr_inplaceIN7tf2_ros6BufferESaIS1_ELN9__gnu_cxx12_Lock_policyE2EE14_M_get_deleterERKSt9type_info
FN:546,_ZNSt23_Sp_counted_ptr_inplaceIN15nav2_costmap_2d12Costmap2DROSESaIS1_ELN9__gnu_cxx12_Lock_policyE2EE14_M_get_deleterERKSt9type_info
FNDA:0,_ZNSt23_Sp_counted_ptr_inplaceIN15nav2_costmap_2d12Costmap2DROSESaIS1_ELN9__gnu_cxx12_Lock_policyE2EE14_M_get_deleterERKSt9type_info
FN:546,_ZNSt23_Sp_counted_ptr_inplaceI10ControllerSaIS0_ELN9__gnu_cxx12_Lock_policyE2EE14_M_get_deleterERKSt9type_info
FNDA:0,_ZNSt23_Sp_counted_ptr_inplaceI10ControllerSaIS0_ELN9__gnu_cxx12_Lock_policyE2EE14_M_get_deleterERKSt9type_info
FN:546,_ZNSt23_Sp_counted_ptr_inplaceIN6rclcpp21AsyncParametersClientESaIS1_ELN9__gnu_cxx12_Lock_policyE2EE14_M_get_deleterERKSt9type_info
FNDA:0,_ZNSt23_Sp_counted_ptr_inplaceIN6rclcpp21AsyncParametersClientESaIS1_ELN9__gnu_cxx12_Lock_policyE2EE14_M_get_deleterERKSt9type_info
FN:546,_ZNSt23_Sp_counted_ptr_inplaceIN16rclcpp_lifecycle13LifecycleNodeESaIS1_ELN9__gnu_cxx12_Lock_policyE2EE14_M_get_deleterERKSt9type_info
FNDA:0,_ZNSt23_Sp_counted_ptr_inplaceIN16rclcpp_lifecycle13LifecycleNodeESaIS1_ELN9__gnu_cxx12_Lock_policyE2EE14_M_get_deleterERKSt9type_info
FN:565,_ZNSt23_Sp_counted_ptr_inplaceIN6rclcpp21AsyncParametersClientESaIS1_ELN9__gnu_cxx12_Lock_policyE2EE6_M_ptrEv
FNDA:3,_ZNSt23_Sp_counted_ptr_inplaceIN6rclcpp21AsyncParametersClientESaIS1_ELN9__gnu_cxx12_Lock_policyE2EE6_M_ptrEv
FN:565,_ZNSt23_Sp_counted_ptr_inplaceI10ControllerSaIS0_ELN9__gnu_cxx12_Lock_policyE2EE6_M_ptrEv
FNDA:33,_ZNSt23_Sp_counted_ptr_inplaceI10ControllerSaIS0_ELN9__gnu_cxx12_Lock_policyE2EE6_M_ptrEv
FN:565,_ZNSt23_Sp_counted_ptr_inplaceIN15nav2_costmap_2d12Costmap2DROSESaIS1_ELN9__gnu_cxx12_Lock_policyE2EE6_M_ptrEv
FNDA:36,_ZNSt23_Sp_counted_ptr_inplaceIN15nav2_costmap_2d12Costmap2DROSESaIS1_ELN9__gnu_cxx12_Lock_policyE2EE6_M_ptrEv
FN:565,_ZNSt23_Sp_counted_ptr_inplaceIN7tf2_ros6BufferESaIS1_ELN9__gnu_cxx12_Lock_policyE2EE6_M_ptrEv
FNDA:36,_ZNSt23_Sp_counted_ptr_inplaceIN7tf2_ros6BufferESaIS1_ELN9__gnu_cxx12_Lock_policyE2EE6_M_ptrEv
FN:565,_ZNSt23_Sp_counted_ptr_inplaceIN16rclcpp_lifecycle13LifecycleNodeESaIS1_ELN9__gnu_cxx12_Lock_policyE2EE6_M_ptrEv
FNDA:36,_ZNSt23_Sp_counted_ptr_inplaceIN16rclcpp_lifecycle13LifecycleNodeESaIS1_ELN9__gnu_cxx12_Lock_policyE2EE6_M_ptrEv
FN:587,_ZNSt14__shared_countILN9__gnu_cxx12_Lock_policyE2EEC2Ev
FNDA:613,_ZNSt14__shared_countILN9__gnu_cxx12_Lock_policyE2EEC2Ev
FN:592,_ZNSt14__shared_countILN9__gnu_cxx12_Lock_policyE2EEC2IPN7testing8internal26ParameterizedTestSuiteInfoI29CircleSegmentIntersectionTestE8TestInfoEEET_
FNDA:1,_ZNSt14__shared_countILN9__gnu_cxx12_Lock_policyE2EEC2IPN7testing8internal26ParameterizedTestSuiteInfoI29CircleSegmentIntersectionTestE8TestInfoEEET_
FN:592,_ZNSt14__shared_countILN9__gnu_cxx12_Lock_policyE2EEC2IPN7testing8internal23ParamGeneratorInterfaceISt5tupleIJSt4pairIddES9_dS9_EEEEEET_
FNDA:1,_ZNSt14__shared_countILN9__gnu_cxx12_Lock_policyE2EEC2IPN7testing8internal23ParamGeneratorInterfaceISt5tupleIJSt4pairIddES9_dS9_EEEEEET_
FN:606,_ZNSt14__shared_countILN9__gnu_cxx12_Lock_policyE2EEC2IPN7testing8internal26ParameterizedTestSuiteInfoI29CircleSegmentIntersectionTestE8TestInfoEEET_St17integral_constantIbLb0EE
FNDA:1,_ZNSt14__shared_countILN9__gnu_cxx12_Lock_policyE2EEC2IPN7testing8internal26ParameterizedTestSuiteInfoI29CircleSegmentIntersectionTestE8TestInfoEEET_St17integral_constantIbLb0EE
FN:606,_ZNSt14__shared_countILN9__gnu_cxx12_Lock_policyE2EEC2IPN7testing8internal23ParamGeneratorInterfaceISt5tupleIJSt4pairIddES9_dS9_EEEEEET_St17integral_constantIbLb0EE
FNDA:1,_ZNSt14__shared_countILN9__gnu_cxx12_Lock_policyE2EEC2IPN7testing8internal23ParamGeneratorInterfaceISt5tupleIJSt4pairIddES9_dS9_EEEEEET_St17integral_constantIbLb0EE
FN:643,_ZNSt14__shared_countILN9__gnu_cxx12_Lock_policyE2EEC2IN16rclcpp_lifecycle13LifecycleNodeESaIS5_EJRA7_KcEEERPT_St20_Sp_alloc_shared_tagIT0_EDpOT1_
FNDA:12,_ZNSt14__shared_countILN9__gnu_cxx12_Lock_policyE2EEC2IN16rclcpp_lifecycle13LifecycleNodeESaIS5_EJRA7_KcEEERPT_St20_Sp_alloc_shared_tagIT0_EDpOT1_
FN:643,_ZNSt14__shared_countILN9__gnu_cxx12_Lock_policyE2EEC2IN7tf2_ros6BufferESaIS5_EJSt10shared_ptrIN6rclcpp5ClockEEEEERPT_St20_Sp_alloc_shared_tagIT0_EDpOT1_
FNDA:12,_ZNSt14__shared_countILN9__gnu_cxx12_Lock_policyE2EEC2IN7tf2_ros6BufferESaIS5_EJSt10shared_ptrIN6rclcpp5ClockEEEEERPT_St20_Sp_alloc_shared_tagIT0_EDpOT1_
FN:643,_ZNSt14__shared_countILN9__gnu_cxx12_Lock_policyE2EEC2IN15nav2_costmap_2d12Costmap2DROSESaIS5_EJRA13_KcEEERPT_St20_Sp_alloc_shared_tagIT0_EDpOT1_
FNDA:11,_ZNSt14__shared_countILN9__gnu_cxx12_Lock_policyE2EEC2IN15nav2_costmap_2d12Costmap2DROSESaIS5_EJRA13_KcEEERPT_St20_Sp_alloc_shared_tagIT0_EDpOT1_
FN:643,_ZNSt14__shared_countILN9__gnu_cxx12_Lock_policyE2EEC2I10ControllerSaIS4_EJEEERPT_St20_Sp_alloc_shared_tagIT0_EDpOT1_
FNDA:11,_ZNSt14__shared_countILN9__gnu_cxx12_Lock_policyE2EEC2I10ControllerSaIS4_EJEEERPT_St20_Sp_alloc_shared_tagIT0_EDpOT1_
FN:643,_ZNSt14__shared_countILN9__gnu_cxx12_Lock_policyE2EEC2IN15nav2_costmap_2d12Costmap2DROSESaIS5_EJRA15_KcEEERPT_St20_Sp_alloc_shared_tagIT0_EDpOT1_
FNDA:1,_ZNSt14__shared_countILN9__gnu_cxx12_Lock_policyE2EEC2IN15nav2_costmap_2d12Costmap2DROSESaIS5_EJRA15_KcEEERPT_St20_Sp_alloc_shared_tagIT0_EDpOT1_
FN:643,_ZNSt14__shared_countILN9__gnu_cxx12_Lock_policyE2EEC2IN6rclcpp21AsyncParametersClientESaIS5_EJSt10shared_ptrINS4_15node_interfaces17NodeBaseInterfaceEES7_INS8_19NodeTopicsInterfaceEES7_INS8_18NodeGraphInterfaceEES7_INS8_21NodeServicesInterfaceEEEEERPT_St20_Sp_alloc_shared_tagIT0_EDpOT1_
FNDA:1,_ZNSt14__shared_countILN9__gnu_cxx12_Lock_policyE2EEC2IN6rclcpp21AsyncParametersClientESaIS5_EJSt10shared_ptrINS4_15node_interfaces17NodeBaseInterfaceEES7_INS8_19NodeTopicsInterfaceEES7_INS8_18NodeGraphInterfaceEES7_INS8_21NodeServicesInterfaceEEEEERPT_St20_Sp_alloc_shared_tagIT0_EDpOT1_
FN:702,_ZNSt14__shared_countILN9__gnu_cxx12_Lock_policyE2EED2Ev
FNDA:2463,_ZNSt14__shared_countILN9__gnu_cxx12_Lock_policyE2EED2Ev
FN:708,_ZNSt14__shared_countILN9__gnu_cxx12_Lock_policyE2EEC2ERKS2_
FNDA:1459,_ZNSt14__shared_countILN9__gnu_cxx12_Lock_policyE2EEC2ERKS2_
FN:731,_ZNSt14__shared_countILN9__gnu_cxx12_Lock_policyE2EE7_M_swapERS2_
FNDA:448,_ZNSt14__shared_countILN9__gnu_cxx12_Lock_policyE2EE7_M_swapERS2_
FN:774,_ZNSt12__weak_countILN9__gnu_cxx12_Lock_policyE2EEC2Ev
FNDA:12,_ZNSt12__weak_countILN9__gnu_cxx12_Lock_policyE2EEC2Ev
FN:777,_ZNSt12__weak_countILN9__gnu_cxx12_Lock_policyE2EEC2ERKSt14__shared_countILS1_2EE
FNDA:57,_ZNSt12__weak_countILN9__gnu_cxx12_Lock_policyE2EEC2ERKSt14__shared_countILS1_2EE
FN:795,_ZNSt12__weak_countILN9__gnu_cxx12_Lock_policyE2EED2Ev
FNDA:69,_ZNSt12__weak_countILN9__gnu_cxx12_Lock_policyE2EED2Ev
FN:802,_ZNSt12__weak_countILN9__gnu_cxx12_Lock_policyE2EEaSERKSt14__shared_countILS1_2EE
FNDA:66,_ZNSt12__weak_countILN9__gnu_cxx12_Lock_policyE2EEaSERKSt14__shared_countILS1_2EE
FN:844,_ZNKSt12__weak_countILN9__gnu_cxx12_Lock_policyE2EE16_M_get_use_countEv
FNDA:66,_ZNKSt12__weak_countILN9__gnu_cxx12_Lock_policyE2EE16_M_get_use_countEv
FN:984,_ZNKSt19__shared_ptr_accessIN7testing8internal26ParameterizedTestSuiteInfoI29CircleSegmentIntersectionTestE8TestInfoELN9__gnu_cxx12_Lock_policyE2ELb0ELb0EEptEv
FNDA:37,_ZNKSt19__shared_ptr_accessIN7testing8internal26ParameterizedTestSuiteInfoI29CircleSegmentIntersectionTestE8TestInfoELN9__gnu_cxx12_Lock_policyE2ELb0ELb0EEptEv
FN:984,_ZNKSt19__shared_ptr_accessINSt13__future_base13_State_baseV2ELN9__gnu_cxx12_Lock_policyE2ELb0ELb0EEptEv
FNDA:5,_ZNKSt19__shared_ptr_accessINSt13__future_base13_State_baseV2ELN9__gnu_cxx12_Lock_policyE2ELb0ELb0EEptEv
FN:984,_ZNKSt19__shared_ptr_accessIKN7testing8internal23ParamGeneratorInterfaceISt5tupleIJSt4pairIddES5_dS5_EEEELN9__gnu_cxx12_Lock_policyE2ELb0ELb0EEptEv
FNDA:14,_ZNKSt19__shared_ptr_accessIKN7testing8internal23ParamGeneratorInterfaceISt5tupleIJSt4pairIddES5_dS5_EEEELN9__gnu_cxx12_Lock_policyE2ELb0ELb0EEptEv
FN:984,_ZNKSt19__shared_ptr_accessIN15nav2_costmap_2d12Costmap2DROSELN9__gnu_cxx12_Lock_policyE2ELb0ELb0EEptEv
FNDA:198,_ZNKSt19__shared_ptr_accessIN15nav2_costmap_2d12Costmap2DROSELN9__gnu_cxx12_Lock_policyE2ELb0ELb0EEptEv
FN:984,_ZNKSt19__shared_ptr_accessIN7tf2_ros6BufferELN9__gnu_cxx12_Lock_policyE2ELb0ELb0EEptEv
FNDA:179,_ZNKSt19__shared_ptr_accessIN7tf2_ros6BufferELN9__gnu_cxx12_Lock_policyE2ELb0ELb0EEptEv
FN:984,_ZNKSt19__shared_ptr_accessIN16rclcpp_lifecycle13LifecycleNodeELN9__gnu_cxx12_Lock_policyE2ELb0ELb0EEptEv
FNDA:1270,_ZNKSt19__shared_ptr_accessIN16rclcpp_lifecycle13LifecycleNodeELN9__gnu_cxx12_Lock_policyE2ELb0ELb0EEptEv
FN:984,_ZNKSt19__shared_ptr_accessI10ControllerLN9__gnu_cxx12_Lock_policyE2ELb0ELb0EEptEv
FNDA:71,_ZNKSt19__shared_ptr_accessI10ControllerLN9__gnu_cxx12_Lock_policyE2ELb0ELb0EEptEv
FN:984,_ZNKSt19__shared_ptr_accessIN6rclcpp21AsyncParametersClientELN9__gnu_cxx12_Lock_policyE2ELb0ELb0EEptEv
FNDA:1,_ZNKSt19__shared_ptr_accessIN6rclcpp21AsyncParametersClientELN9__gnu_cxx12_Lock_policyE2ELb0ELb0EEptEv
FN:984,_ZNKSt19__shared_ptr_accessIN6rclcpp5ClockELN9__gnu_cxx12_Lock_policyE2ELb0ELb0EEptEv
FNDA:7,_ZNKSt19__shared_ptr_accessIN6rclcpp5ClockELN9__gnu_cxx12_Lock_policyE2ELb0ELb0EEptEv
FN:992,_ZNKSt19__shared_ptr_accessIKN7testing8internal23ParamGeneratorInterfaceISt5tupleIJSt4pairIddES5_dS5_EEEELN9__gnu_cxx12_Lock_policyE2ELb0ELb0EE6_M_getEv
FNDA:14,_ZNKSt19__shared_ptr_accessIKN7testing8internal23ParamGeneratorInterfaceISt5tupleIJSt4pairIddES5_dS5_EEEELN9__gnu_cxx12_Lock_policyE2ELb0ELb0EE6_M_getEv
FN:992,_ZNKSt19__shared_ptr_accessIN7tf2_ros6BufferELN9__gnu_cxx12_Lock_policyE2ELb0ELb0EE6_M_getEv
FNDA:179,_ZNKSt19__shared_ptr_accessIN7tf2_ros6BufferELN9__gnu_cxx12_Lock_policyE2ELb0ELb0EE6_M_getEv
FN:992,_ZNKSt19__shared_ptr_accessIN6rclcpp5ClockELN9__gnu_cxx12_Lock_policyE2ELb0ELb0EE6_M_getEv
FNDA:7,_ZNKSt19__shared_ptr_accessIN6rclcpp5ClockELN9__gnu_cxx12_Lock_policyE2ELb0ELb0EE6_M_getEv
FN:992,_ZNKSt19__shared_ptr_accessI10ControllerLN9__gnu_cxx12_Lock_policyE2ELb0ELb0EE6_M_getEv
FNDA:71,_ZNKSt19__shared_ptr_accessI10ControllerLN9__gnu_cxx12_Lock_policyE2ELb0ELb0EE6_M_getEv
FN:992,_ZNKSt19__shared_ptr_accessIN15nav2_costmap_2d12Costmap2DROSELN9__gnu_cxx12_Lock_policyE2ELb0ELb0EE6_M_getEv
FNDA:198,_ZNKSt19__shared_ptr_accessIN15nav2_costmap_2d12Costmap2DROSELN9__gnu_cxx12_Lock_policyE2ELb0ELb0EE6_M_getEv
FN:992,_ZNKSt19__shared_ptr_accessIN16rclcpp_lifecycle13LifecycleNodeELN9__gnu_cxx12_Lock_policyE2ELb0ELb0EE6_M_getEv
FNDA:1270,_ZNKSt19__shared_ptr_accessIN16rclcpp_lifecycle13LifecycleNodeELN9__gnu_cxx12_Lock_policyE2ELb0ELb0EE6_M_getEv
FN:992,_ZNKSt19__shared_ptr_accessINSt13__future_base13_State_baseV2ELN9__gnu_cxx12_Lock_policyE2ELb0ELb0EE6_M_getEv
FNDA:5,_ZNKSt19__shared_ptr_accessINSt13__future_base13_State_baseV2ELN9__gnu_cxx12_Lock_policyE2ELb0ELb0EE6_M_getEv
FN:992,_ZNKSt19__shared_ptr_accessIN6rclcpp21AsyncParametersClientELN9__gnu_cxx12_Lock_policyE2ELb0ELb0EE6_M_getEv
FNDA:1,_ZNKSt19__shared_ptr_accessIN6rclcpp21AsyncParametersClientELN9__gnu_cxx12_Lock_policyE2ELb0ELb0EE6_M_getEv
FN:992,_ZNKSt19__shared_ptr_accessIN7testing8internal26ParameterizedTestSuiteInfoI29CircleSegmentIntersectionTestE8TestInfoELN9__gnu_cxx12_Lock_policyE2ELb0ELb0EE6_M_getEv
FNDA:37,_ZNKSt19__shared_ptr_accessIN7testing8internal26ParameterizedTestSuiteInfoI29CircleSegmentIntersectionTestE8TestInfoELN9__gnu_cxx12_Lock_policyE2ELb0ELb0EE6_M_getEv
FN:1092,_ZNSt12__shared_ptrIN16rclcpp_lifecycle13LifecycleNodeELN9__gnu_cxx12_Lock_policyE2EEC2Ev
FNDA:7,_ZNSt12__shared_ptrIN16rclcpp_lifecycle13LifecycleNodeELN9__gnu_cxx12_Lock_policyE2EEC2Ev
FN:1092,_ZNSt12__shared_ptrI10ControllerLN9__gnu_cxx12_Lock_policyE2EEC2Ev
FNDA:7,_ZNSt12__shared_ptrI10ControllerLN9__gnu_cxx12_Lock_policyE2EEC2Ev
FN:1092,_ZNSt12__shared_ptrIN6rclcpp13CallbackGroupELN9__gnu_cxx12_Lock_policyE2EEC2Ev
FNDA:43,_ZNSt12__shared_ptrIN6rclcpp13CallbackGroupELN9__gnu_cxx12_Lock_policyE2EEC2Ev
FN:1092,_ZNSt12__shared_ptrIN6rclcpp4NodeELN9__gnu_cxx12_Lock_policyE2EEC2Ev
FNDA:12,_ZNSt12__shared_ptrIN6rclcpp4NodeELN9__gnu_cxx12_Lock_policyE2EEC2Ev
FN:1092,_ZNSt12__shared_ptrIN6rclcpp7ContextELN9__gnu_cxx12_Lock_policyE2EEC2Ev
FNDA:1,_ZNSt12__shared_ptrIN6rclcpp7ContextELN9__gnu_cxx12_Lock_policyE2EEC2Ev
FN:1092,_ZNSt12__shared_ptrIN7tf2_ros6BufferELN9__gnu_cxx12_Lock_policyE2EEC2Ev
FNDA:19,_ZNSt12__shared_ptrIN7tf2_ros6BufferELN9__gnu_cxx12_Lock_policyE2EEC2Ev
FN:1092,_ZNSt12__shared_ptrIN15nav2_costmap_2d12Costmap2DROSELN9__gnu_cxx12_Lock_policyE2EEC2Ev
FNDA:19,_ZNSt12__shared_ptrIN15nav2_costmap_2d12Costmap2DROSELN9__gnu_cxx12_Lock_policyE2EEC2Ev
FN:1092,_ZNSt12__shared_ptrIN6rclcpp5ClockELN9__gnu_cxx12_Lock_policyE2EEC2Ev
FNDA:12,_ZNSt12__shared_ptrIN6rclcpp5ClockELN9__gnu_cxx12_Lock_policyE2EEC2Ev
FN:1092,_ZNSt12__shared_ptrIN16rclcpp_lifecycle18LifecyclePublisherIN8nav_msgs3msg5Path_ISaIvEEES5_EELN9__gnu_cxx12_Lock_policyE2EEC2Ev
FNDA:26,_ZNSt12__shared_ptrIN16rclcpp_lifecycle18LifecyclePublisherIN8nav_msgs3msg5Path_ISaIvEEES5_EELN9__gnu_cxx12_Lock_policyE2EEC2Ev
FN:1092,_ZNSt12__shared_ptrIN16rclcpp_lifecycle18LifecyclePublisherIN13geometry_msgs3msg12PoseStamped_ISaIvEEES5_EELN9__gnu_cxx12_Lock_policyE2EEC2Ev
FNDA:13,_ZNSt12__shared_ptrIN16rclcpp_lifecycle18LifecyclePublisherIN13geometry_msgs3msg12PoseStamped_ISaIvEEES5_EELN9__gnu_cxx12_Lock_policyE2EEC2Ev
FN:1092,_ZNSt12__shared_ptrIN6rclcpp15node_interfaces29OnSetParametersCallbackHandleELN9__gnu_cxx12_Lock_policyE2EEC2Ev
FNDA:13,_ZNSt12__shared_ptrIN6rclcpp15node_interfaces29OnSetParametersCallbackHandleELN9__gnu_cxx12_Lock_policyE2EEC2Ev
FN:1098,_ZNSt12__shared_ptrIKN7testing8internal23ParamGeneratorInterfaceISt5tupleIJSt4pairIddES5_dS5_EEEELN9__gnu_cxx12_Lock_policyE2EEC2IS7_vEEPT_
FNDA:1,_ZNSt12__shared_ptrIKN7testing8internal23ParamGeneratorInterfaceISt5tupleIJSt4pairIddES5_dS5_EEEELN9__gnu_cxx12_Lock_policyE2EEC2IS7_vEEPT_
FN:1098,_ZNSt12__shared_ptrIN7testing8internal26ParameterizedTestSuiteInfoI29CircleSegmentIntersectionTestE8TestInfoELN9__gnu_cxx12_Lock_policyE2EEC2IS5_vEEPT_
FNDA:1,_ZNSt12__shared_ptrIN7testing8internal26ParameterizedTestSuiteInfoI29CircleSegmentIntersectionTestE8TestInfoELN9__gnu_cxx12_Lock_policyE2EEC2IS5_vEEPT_
FN:1152,_ZNSt12__shared_ptrIN6rclcpp7ContextELN9__gnu_cxx12_Lock_policyE2EEC2ERKS4_
FNDA:4,_ZNSt12__shared_ptrIN6rclcpp7ContextELN9__gnu_cxx12_Lock_policyE2EEC2ERKS4_
FN:1152,_ZNSt12__shared_ptrIN7tf2_ros6BufferELN9__gnu_cxx12_Lock_policyE2EEC2ERKS4_
FNDA:14,_ZNSt12__shared_ptrIN7tf2_ros6BufferELN9__gnu_cxx12_Lock_policyE2EEC2ERKS4_
FN:1152,_ZNSt12__shared_ptrIN6rclcpp15node_interfaces17NodeBaseInterfaceELN9__gnu_cxx12_Lock_policyE2EEC2ERKS5_
FNDA:3,_ZNSt12__shared_ptrIN6rclcpp15node_interfaces17NodeBaseInterfaceELN9__gnu_cxx12_Lock_policyE2EEC2ERKS5_
FN:1152,_ZNSt12__shared_ptrIN7testing8internal26ParameterizedTestSuiteInfoI29CircleSegmentIntersectionTestE8TestInfoELN9__gnu_cxx12_Lock_policyE2EEC2ERKS8_
FNDA:1,_ZNSt12__shared_ptrIN7testing8internal26ParameterizedTestSuiteInfoI29CircleSegmentIntersectionTestE8TestInfoELN9__gnu_cxx12_Lock_policyE2EEC2ERKS8_
FN:1152,_ZNSt12__shared_ptrIN16rclcpp_lifecycle13LifecycleNodeELN9__gnu_cxx12_Lock_policyE2EEC2ERKS4_
FNDA:414,_ZNSt12__shared_ptrIN16rclcpp_lifecycle13LifecycleNodeELN9__gnu_cxx12_Lock_policyE2EEC2ERKS4_
FN:1152,_ZNSt12__shared_ptrIN15nav2_costmap_2d12Costmap2DROSELN9__gnu_cxx12_Lock_policyE2EEC2ERKS4_
FNDA:15,_ZNSt12__shared_ptrIN15nav2_costmap_2d12Costmap2DROSELN9__gnu_cxx12_Lock_policyE2EEC2ERKS4_
FN:1154,_ZNSt12__shared_ptrIN6rclcpp8contexts14DefaultContextELN9__gnu_cxx12_Lock_policyE2EED2Ev
FNDA:1,_ZNSt12__shared_ptrIN6rclcpp8contexts14DefaultContextELN9__gnu_cxx12_Lock_policyE2EED2Ev
FN:1154,_ZNSt12__shared_ptrIN6rclcpp21AsyncParametersClientELN9__gnu_cxx12_Lock_policyE2EED2Ev
FNDA:1,_ZNSt12__shared_ptrIN6rclcpp21AsyncParametersClientELN9__gnu_cxx12_Lock_policyE2EED2Ev
FN:1154,_ZNSt12__shared_ptrIN16rclcpp_lifecycle13LifecycleNodeELN9__gnu_cxx12_Lock_policyE2EED2Ev
FNDA:457,_ZNSt12__shared_ptrIN16rclcpp_lifecycle13LifecycleNodeELN9__gnu_cxx12_Lock_policyE2EED2Ev
FN:1154,_ZNSt12__shared_ptrIN6rclcpp4NodeELN9__gnu_cxx12_Lock_policyE2EED2Ev
FNDA:12,_ZNSt12__shared_ptrIN6rclcpp4NodeELN9__gnu_cxx12_Lock_policyE2EED2Ev
FN:1154,_ZNSt12__shared_ptrIN7testing8internal26ParameterizedTestSuiteInfoI29CircleSegmentIntersectionTestE8TestInfoELN9__gnu_cxx12_Lock_policyE2EED2Ev
FNDA:3,_ZNSt12__shared_ptrIN7testing8internal26ParameterizedTestSuiteInfoI29CircleSegmentIntersectionTestE8TestInfoELN9__gnu_cxx12_Lock_policyE2EED2Ev
FN:1154,_ZNSt12__shared_ptrIN6rclcpp6ClientIN14rcl_interfaces3srv13GetParametersEEELN9__gnu_cxx12_Lock_policyE2EED2Ev
FNDA:1,_ZNSt12__shared_ptrIN6rclcpp6ClientIN14rcl_interfaces3srv13GetParametersEEELN9__gnu_cxx12_Lock_policyE2EED2Ev
FN:1154,_ZNSt12__shared_ptrIN6rclcpp6ClientIN14rcl_interfaces3srv17GetParameterTypesEEELN9__gnu_cxx12_Lock_policyE2EED2Ev
FNDA:1,_ZNSt12__shared_ptrIN6rclcpp6ClientIN14rcl_interfaces3srv17GetParameterTypesEEELN9__gnu_cxx12_Lock_policyE2EED2Ev
FN:1154,_ZNSt12__shared_ptrIN6rclcpp5ClockELN9__gnu_cxx12_Lock_policyE2EED2Ev
FNDA:71,_ZNSt12__shared_ptrIN6rclcpp5ClockELN9__gnu_cxx12_Lock_policyE2EED2Ev
FN:1154,_ZNSt12__shared_ptrIN6rclcpp6ClientIN14rcl_interfaces3srv13SetParametersEEELN9__gnu_cxx12_Lock_policyE2EED2Ev
FNDA:1,_ZNSt12__shared_ptrIN6rclcpp6ClientIN14rcl_interfaces3srv13SetParametersEEELN9__gnu_cxx12_Lock_policyE2EED2Ev
FN:1154,_ZNSt12__shared_ptrIN6rclcpp6ClientIN14rcl_interfaces3srv23SetParametersAtomicallyEEELN9__gnu_cxx12_Lock_policyE2EED2Ev
FNDA:1,_ZNSt12__shared_ptrIN6rclcpp6ClientIN14rcl_interfaces3srv23SetParametersAtomicallyEEELN9__gnu_cxx12_Lock_policyE2EED2Ev
FN:1154,_ZNSt12__shared_ptrIN6rclcpp6ClientIN14rcl_interfaces3srv14ListParametersEEELN9__gnu_cxx12_Lock_policyE2EED2Ev
FNDA:1,_ZNSt12__shared_ptrIN6rclcpp6ClientIN14rcl_interfaces3srv14ListParametersEEELN9__gnu_cxx12_Lock_policyE2EED2Ev
FN:1154,_ZNSt12__shared_ptrIN6rclcpp6ClientIN14rcl_interfaces3srv18DescribeParametersEEELN9__gnu_cxx12_Lock_policyE2EED2Ev
FNDA:1,_ZNSt12__shared_ptrIN6rclcpp6ClientIN14rcl_interfaces3srv18DescribeParametersEEELN9__gnu_cxx12_Lock_policyE2EED2Ev
FN:1154,_ZNSt12__shared_ptrIN6rclcpp7ContextELN9__gnu_cxx12_Lock_policyE2EED2Ev
FNDA:18,_ZNSt12__shared_ptrIN6rclcpp7ContextELN9__gnu_cxx12_Lock_policyE2EED2Ev
FN:1154,_ZNSt12__shared_ptrIN6rclcpp15node_interfaces21NodeServicesInterfaceELN9__gnu_cxx12_Lock_policyE2EED2Ev
FNDA:2,_ZNSt12__shared_ptrIN6rclcpp15node_interfaces21NodeServicesInterfaceELN9__gnu_cxx12_Lock_policyE2EED2Ev
FN:1154,_ZNSt12__shared_ptrIN6rclcpp15node_interfaces18NodeGraphInterfaceELN9__gnu_cxx12_Lock_policyE2EED2Ev
FNDA:2,_ZNSt12__shared_ptrIN6rclcpp15node_interfaces18NodeGraphInterfaceELN9__gnu_cxx12_Lock_policyE2EED2Ev
FN:1154,_ZNSt12__shared_ptrINSt13__future_base13_State_baseV2ELN9__gnu_cxx12_Lock_policyE2EED2Ev
FNDA:1,_ZNSt12__shared_ptrINSt13__future_base13_State_baseV2ELN9__gnu_cxx12_Lock_policyE2EED2Ev
FN:1154,_ZNSt12__shared_ptrIKN7testing8internal23ParamGeneratorInterfaceISt5tupleIJSt4pairIddES5_dS5_EEEELN9__gnu_cxx12_Lock_policyE2EED2Ev
FNDA:1,_ZNSt12__shared_ptrIKN7testing8internal23ParamGeneratorInterfaceISt5tupleIJSt4pairIddES5_dS5_EEEELN9__gnu_cxx12_Lock_policyE2EED2Ev
FN:1154,_ZNSt12__shared_ptrI10ControllerLN9__gnu_cxx12_Lock_policyE2EED2Ev
FNDA:25,_ZNSt12__shared_ptrI10ControllerLN9__gnu_cxx12_Lock_policyE2EED2Ev
FN:1154,_ZNSt12__shared_ptrIN6rclcpp15node_interfaces29OnSetParametersCallbackHandleELN9__gnu_cxx12_Lock_policyE2EED2Ev
FNDA:20,_ZNSt12__shared_ptrIN6rclcpp15node_interfaces29OnSetParametersCallbackHandleELN9__gnu_cxx12_Lock_policyE2EED2Ev
FN:1154,_ZNSt12__shared_ptrIN16rclcpp_lifecycle18LifecyclePublisherIN13geometry_msgs3msg12PoseStamped_ISaIvEEES5_EELN9__gnu_cxx12_Lock_policyE2EED2Ev
FNDA:55,_ZNSt12__shared_ptrIN16rclcpp_lifecycle18LifecyclePublisherIN13geometry_msgs3msg12PoseStamped_ISaIvEEES5_EELN9__gnu_cxx12_Lock_policyE2EED2Ev
FN:1154,_ZNSt12__shared_ptrIN16rclcpp_lifecycle18LifecyclePublisherIN8nav_msgs3msg5Path_ISaIvEEES5_EELN9__gnu_cxx12_Lock_policyE2EED2Ev
FNDA:110,_ZNSt12__shared_ptrIN16rclcpp_lifecycle18LifecyclePublisherIN8nav_msgs3msg5Path_ISaIvEEES5_EELN9__gnu_cxx12_Lock_policyE2EED2Ev
FN:1154,_ZNSt12__shared_ptrIN15nav2_costmap_2d12Costmap2DROSELN9__gnu_cxx12_Lock_policyE2EED2Ev
FNDA:53,_ZNSt12__shared_ptrIN15nav2_costmap_2d12Costmap2DROSELN9__gnu_cxx12_Lock_policyE2EED2Ev
FN:1154,_ZNSt12__shared_ptrIN7tf2_ros6BufferELN9__gnu_cxx12_Lock_policyE2EED2Ev
FNDA:52,_ZNSt12__shared_ptrIN7tf2_ros6BufferELN9__gnu_cxx12_Lock_policyE2EED2Ev
FN:1154,_ZNSt12__shared_ptrIN6rclcpp15memory_strategy14MemoryStrategyELN9__gnu_cxx12_Lock_policyE2EED2Ev
FNDA:1,_ZNSt12__shared_ptrIN6rclcpp15memory_strategy14MemoryStrategyELN9__gnu_cxx12_Lock_policyE2EED2Ev
FN:1154,_ZNSt12__shared_ptrIN6rclcpp15node_interfaces19NodeTopicsInterfaceELN9__gnu_cxx12_Lock_policyE2EED2Ev
FNDA:45,_ZNSt12__shared_ptrIN6rclcpp15node_interfaces19NodeTopicsInterfaceELN9__gnu_cxx12_Lock_policyE2EED2Ev
FN:1154,_ZNSt12__shared_ptrIKNSt7__cxx1112basic_stringIcSt11char_traitsIcESaIcEEELN9__gnu_cxx12_Lock_policyE2EED2Ev
FNDA:68,_ZNSt12__shared_ptrIKNSt7__cxx1112basic_stringIcSt11char_traitsIcESaIcEEELN9__gnu_cxx12_Lock_policyE2EED2Ev
FN:1154,_ZNSt12__shared_ptrIN6rclcpp15node_interfaces17NodeBaseInterfaceELN9__gnu_cxx12_Lock_policyE2EED2Ev
FNDA:6,_ZNSt12__shared_ptrIN6rclcpp15node_interfaces17NodeBaseInterfaceELN9__gnu_cxx12_Lock_policyE2EED2Ev
FN:1154,_ZNSt12__shared_ptrIN6rclcpp6detail41RMWImplementationSpecificPublisherPayloadELN9__gnu_cxx12_Lock_policyE2EED2Ev
FNDA:180,_ZNSt12__shared_ptrIN6rclcpp6detail41RMWImplementationSpecificPublisherPayloadELN9__gnu_cxx12_Lock_policyE2EED2Ev
FN:1154,_ZNSt12__shared_ptrIN6rclcpp13CallbackGroupELN9__gnu_cxx12_Lock_policyE2EED2Ev
FNDA:223,_ZNSt12__shared_ptrIN6rclcpp13CallbackGroupELN9__gnu_cxx12_Lock_policyE2EED2Ev
FN:1161,_ZNSt12__shared_ptrIN7tf2_ros6BufferELN9__gnu_cxx12_Lock_policyE2EEC2EOS4_
FNDA:7,_ZNSt12__shared_ptrIN7tf2_ros6BufferELN9__gnu_cxx12_Lock_policyE2EEC2EOS4_
FN:1161,_ZNSt12__shared_ptrI10ControllerLN9__gnu_cxx12_Lock_policyE2EEC2EOS3_
FNDA:7,_ZNSt12__shared_ptrI10ControllerLN9__gnu_cxx12_Lock_policyE2EEC2EOS3_
FN:1161,_ZNSt12__shared_ptrIN16rclcpp_lifecycle13LifecycleNodeELN9__gnu_cxx12_Lock_policyE2EEC2EOS4_
FNDA:7,_ZNSt12__shared_ptrIN16rclcpp_lifecycle13LifecycleNodeELN9__gnu_cxx12_Lock_policyE2EEC2EOS4_
FN:1161,_ZNSt12__shared_ptrIN6rclcpp15node_interfaces21NodeServicesInterfaceELN9__gnu_cxx12_Lock_policyE2EEC2EOS5_
FNDA:1,_ZNSt12__shared_ptrIN6rclcpp15node_interfaces21NodeServicesInterfaceELN9__gnu_cxx12_Lock_policyE2EEC2EOS5_
FN:1161,_ZNSt12__shared_ptrIN6rclcpp15node_interfaces18NodeGraphInterfaceELN9__gnu_cxx12_Lock_policyE2EEC2EOS5_
FNDA:1,_ZNSt12__shared_ptrIN6rclcpp15node_interfaces18NodeGraphInterfaceELN9__gnu_cxx12_Lock_policyE2EEC2EOS5_
FN:1161,_ZNSt12__shared_ptrIN6rclcpp15node_interfaces19NodeTopicsInterfaceELN9__gnu_cxx12_Lock_policyE2EEC2EOS5_
FNDA:1,_ZNSt12__shared_ptrIN6rclcpp15node_interfaces19NodeTopicsInterfaceELN9__gnu_cxx12_Lock_policyE2EEC2EOS5_
FN:1161,_ZNSt12__shared_ptrIN6rclcpp15node_interfaces17NodeBaseInterfaceELN9__gnu_cxx12_Lock_policyE2EEC2EOS5_
FNDA:1,_ZNSt12__shared_ptrIN6rclcpp15node_interfaces17NodeBaseInterfaceELN9__gnu_cxx12_Lock_policyE2EEC2EOS5_
FN:1161,_ZNSt12__shared_ptrIN6rclcpp5ClockELN9__gnu_cxx12_Lock_policyE2EEC2EOS4_
FNDA:26,_ZNSt12__shared_ptrIN6rclcpp5ClockELN9__gnu_cxx12_Lock_policyE2EEC2EOS4_
FN:1161,_ZNSt12__shared_ptrIN15nav2_costmap_2d12Costmap2DROSELN9__gnu_cxx12_Lock_policyE2EEC2EOS4_
FNDA:7,_ZNSt12__shared_ptrIN15nav2_costmap_2d12Costmap2DROSELN9__gnu_cxx12_Lock_policyE2EEC2EOS4_
FN:1161,_ZNSt12__shared_ptrIN7testing8internal26ParameterizedTestSuiteInfoI29CircleSegmentIntersectionTestE8TestInfoELN9__gnu_cxx12_Lock_policyE2EEC2EOS8_
FNDA:1,_ZNSt12__shared_ptrIN7testing8internal26ParameterizedTestSuiteInfoI29CircleSegmentIntersectionTestE8TestInfoELN9__gnu_cxx12_Lock_policyE2EEC2EOS8_
FN:1169,_ZNSt12__shared_ptrIN6rclcpp7ContextELN9__gnu_cxx12_Lock_policyE2EEC2INS0_8contexts14DefaultContextEvEEOS_IT_LS3_2EE
FNDA:1,_ZNSt12__shared_ptrIN6rclcpp7ContextELN9__gnu_cxx12_Lock_policyE2EEC2INS0_8contexts14DefaultContextEvEEOS_IT_LS3_2EE
FN:1248,_ZNSt12__shared_ptrIN15nav2_costmap_2d12Costmap2DROSELN9__gnu_cxx12_Lock_policyE2EEaSEOS4_
FNDA:7,_ZNSt12__shared_ptrIN15nav2_costmap_2d12Costmap2DROSELN9__gnu_cxx12_Lock_policyE2EEaSEOS4_
FN:1248,_ZNSt12__shared_ptrIN7tf2_ros6BufferELN9__gnu_cxx12_Lock_policyE2EEaSEOS4_
FNDA:7,_ZNSt12__shared_ptrIN7tf2_ros6BufferELN9__gnu_cxx12_Lock_policyE2EEaSEOS4_
FN:1248,_ZNSt12__shared_ptrIN16rclcpp_lifecycle13LifecycleNodeELN9__gnu_cxx12_Lock_policyE2EEaSEOS4_
FNDA:7,_ZNSt12__shared_ptrIN16rclcpp_lifecycle13LifecycleNodeELN9__gnu_cxx12_Lock_policyE2EEaSEOS4_
FN:1248,_ZNSt12__shared_ptrI10ControllerLN9__gnu_cxx12_Lock_policyE2EEaSEOS3_
FNDA:7,_ZNSt12__shared_ptrI10ControllerLN9__gnu_cxx12_Lock_policyE2EEaSEOS3_
FN:1295,_ZNKSt12__shared_ptrIN16rclcpp_lifecycle13LifecycleNodeELN9__gnu_cxx12_Lock_policyE2EE3getEv
FNDA:1270,_ZNKSt12__shared_ptrIN16rclcpp_lifecycle13LifecycleNodeELN9__gnu_cxx12_Lock_policyE2EE3getEv
FN:1295,_ZNKSt12__shared_ptrIN6rclcpp21AsyncParametersClientELN9__gnu_cxx12_Lock_policyE2EE3getEv
FNDA:1,_ZNKSt12__shared_ptrIN6rclcpp21AsyncParametersClientELN9__gnu_cxx12_Lock_policyE2EE3getEv
FN:1295,_ZNKSt12__shared_ptrIKN7testing8internal23ParamGeneratorInterfaceISt5tupleIJSt4pairIddES5_dS5_EEEELN9__gnu_cxx12_Lock_policyE2EE3getEv
FNDA:14,_ZNKSt12__shared_ptrIKN7testing8internal23ParamGeneratorInterfaceISt5tupleIJSt4pairIddES5_dS5_EEEELN9__gnu_cxx12_Lock_policyE2EE3getEv
FN:1295,_ZNKSt12__shared_ptrINSt13__future_base13_State_baseV2ELN9__gnu_cxx12_Lock_policyE2EE3getEv
FNDA:5,_ZNKSt12__shared_ptrINSt13__future_base13_State_baseV2ELN9__gnu_cxx12_Lock_policyE2EE3getEv
FN:1295,_ZNKSt12__shared_ptrIN7testing8internal26ParameterizedTestSuiteInfoI29CircleSegmentIntersectionTestE8TestInfoELN9__gnu_cxx12_Lock_policyE2EE3getEv
FNDA:37,_ZNKSt12__shared_ptrIN7testing8internal26ParameterizedTestSuiteInfoI29CircleSegmentIntersectionTestE8TestInfoELN9__gnu_cxx12_Lock_policyE2EE3getEv
FN:1295,_ZNKSt12__shared_ptrIN15nav2_costmap_2d12Costmap2DROSELN9__gnu_cxx12_Lock_policyE2EE3getEv
FNDA:198,_ZNKSt12__shared_ptrIN15nav2_costmap_2d12Costmap2DROSELN9__gnu_cxx12_Lock_policyE2EE3getEv
FN:1295,_ZNKSt12__shared_ptrI10ControllerLN9__gnu_cxx12_Lock_policyE2EE3getEv
FNDA:71,_ZNKSt12__shared_ptrI10ControllerLN9__gnu_cxx12_Lock_policyE2EE3getEv
FN:1295,_ZNKSt12__shared_ptrIN7tf2_ros6BufferELN9__gnu_cxx12_Lock_policyE2EE3getEv
FNDA:179,_ZNKSt12__shared_ptrIN7tf2_ros6BufferELN9__gnu_cxx12_Lock_policyE2EE3getEv
FN:1295,_ZNKSt12__shared_ptrIN6rclcpp5ClockELN9__gnu_cxx12_Lock_policyE2EE3getEv
FNDA:7,_ZNKSt12__shared_ptrIN6rclcpp5ClockELN9__gnu_cxx12_Lock_policyE2EE3getEv
FN:1299,_ZNKSt12__shared_ptrINSt13__future_base13_State_baseV2ELN9__gnu_cxx12_Lock_policyE2EEcvbEv
FNDA:5,_ZNKSt12__shared_ptrINSt13__future_base13_State_baseV2ELN9__gnu_cxx12_Lock_policyE2EEcvbEv
FN:1314,_ZNSt12__shared_ptrI10ControllerLN9__gnu_cxx12_Lock_policyE2EE4swapERS3_
FNDA:7,_ZNSt12__shared_ptrI10ControllerLN9__gnu_cxx12_Lock_policyE2EE4swapERS3_
FN:1314,_ZNSt12__shared_ptrIN16rclcpp_lifecycle13LifecycleNodeELN9__gnu_cxx12_Lock_policyE2EE4swapERS4_
FNDA:7,_ZNSt12__shared_ptrIN16rclcpp_lifecycle13LifecycleNodeELN9__gnu_cxx12_Lock_policyE2EE4swapERS4_
FN:1314,_ZNSt12__shared_ptrIN7tf2_ros6BufferELN9__gnu_cxx12_Lock_policyE2EE4swapERS4_
FNDA:7,_ZNSt12__shared_ptrIN7tf2_ros6BufferELN9__gnu_cxx12_Lock_policyE2EE4swapERS4_
FN:1314,_ZNSt12__shared_ptrIN15nav2_costmap_2d12Costmap2DROSELN9__gnu_cxx12_Lock_policyE2EE4swapERS4_
FNDA:7,_ZNSt12__shared_ptrIN15nav2_costmap_2d12Costmap2DROSELN9__gnu_cxx12_Lock_policyE2EE4swapERS4_
FN:1341,_ZNSt12__shared_ptrIN7tf2_ros6BufferELN9__gnu_cxx12_Lock_policyE2EEC2ISaIS1_EJSt10shared_ptrIN6rclcpp5ClockEEEEESt20_Sp_alloc_shared_tagIT_EDpOT0_
FNDA:12,_ZNSt12__shared_ptrIN7tf2_ros6BufferELN9__gnu_cxx12_Lock_policyE2EEC2ISaIS1_EJSt10shared_ptrIN6rclcpp5ClockEEEEESt20_Sp_alloc_shared_tagIT_EDpOT0_
FN:1341,_ZNSt12__shared_ptrIN16rclcpp_lifecycle13LifecycleNodeELN9__gnu_cxx12_Lock_policyE2EEC2ISaIS1_EJRA7_KcEEESt20_Sp_alloc_shared_tagIT_EDpOT0_
FNDA:12,_ZNSt12__shared_ptrIN16rclcpp_lifecycle13LifecycleNodeELN9__gnu_cxx12_Lock_policyE2EEC2ISaIS1_EJRA7_KcEEESt20_Sp_alloc_shared_tagIT_EDpOT0_
FN:1341,_ZNSt12__shared_ptrIN15nav2_costmap_2d12Costmap2DROSELN9__gnu_cxx12_Lock_policyE2EEC2ISaIS1_EJRA13_KcEEESt20_Sp_alloc_shared_tagIT_EDpOT0_
FNDA:11,_ZNSt12__shared_ptrIN15nav2_costmap_2d12Costmap2DROSELN9__gnu_cxx12_Lock_policyE2EEC2ISaIS1_EJRA13_KcEEESt20_Sp_alloc_shared_tagIT_EDpOT0_
FN:1341,_ZNSt12__shared_ptrI10ControllerLN9__gnu_cxx12_Lock_policyE2EEC2ISaIS0_EJEEESt20_Sp_alloc_shared_tagIT_EDpOT0_
FNDA:11,_ZNSt12__shared_ptrI10ControllerLN9__gnu_cxx12_Lock_policyE2EEC2ISaIS0_EJEEESt20_Sp_alloc_shared_tagIT_EDpOT0_
FN:1341,_ZNSt12__shared_ptrIN6rclcpp21AsyncParametersClientELN9__gnu_cxx12_Lock_policyE2EEC2ISaIS1_EJSt10shared_ptrINS0_15node_interfaces17NodeBaseInterfaceEES7_INS8_19NodeTopicsInterfaceEES7_INS8_18NodeGraphInterfaceEES7_INS8_21NodeServicesInterfaceEEEEESt20_Sp_alloc_shared_tagIT_EDpOT0_
FNDA:1,_ZNSt12__shared_ptrIN6rclcpp21AsyncParametersClientELN9__gnu_cxx12_Lock_policyE2EEC2ISaIS1_EJSt10shared_ptrINS0_15node_interfaces17NodeBaseInterfaceEES7_INS8_19NodeTopicsInterfaceEES7_INS8_18NodeGraphInterfaceEES7_INS8_21NodeServicesInterfaceEEEEESt20_Sp_alloc_shared_tagIT_EDpOT0_
FN:1341,_ZNSt12__shared_ptrIN15nav2_costmap_2d12Costmap2DROSELN9__gnu_cxx12_Lock_policyE2EEC2ISaIS1_EJRA15_KcEEESt20_Sp_alloc_shared_tagIT_EDpOT0_
FNDA:1,_ZNSt12__shared_ptrIN15nav2_costmap_2d12Costmap2DROSELN9__gnu_cxx12_Lock_policyE2EEC2ISaIS1_EJRA15_KcEEESt20_Sp_alloc_shared_tagIT_EDpOT0_
FN:1378,_ZNSt12__shared_ptrIN15nav2_costmap_2d12Costmap2DROSELN9__gnu_cxx12_Lock_policyE2EE31_M_enable_shared_from_this_withIS1_S1_EENSt9enable_ifIXsrNS4_15__has_esft_baseIT0_vEE5valueEvE4typeEPT_
FNDA:12,_ZNSt12__shared_ptrIN15nav2_costmap_2d12Costmap2DROSELN9__gnu_cxx12_Lock_policyE2EE31_M_enable_shared_from_this_withIS1_S1_EENSt9enable_ifIXsrNS4_15__has_esft_baseIT0_vEE5valueEvE4typeEPT_
FN:1378,_ZNSt12__shared_ptrIN16rclcpp_lifecycle13LifecycleNodeELN9__gnu_cxx12_Lock_policyE2EE31_M_enable_shared_from_this_withIS1_S1_EENSt9enable_ifIXsrNS4_15__has_esft_baseIT0_vEE5valueEvE4typeEPT_
FNDA:12,_ZNSt12__shared_ptrIN16rclcpp_lifecycle13LifecycleNodeELN9__gnu_cxx12_Lock_policyE2EE31_M_enable_shared_from_this_withIS1_S1_EENSt9enable_ifIXsrNS4_15__has_esft_baseIT0_vEE5valueEvE4typeEPT_
FN:1386,_ZNSt12__shared_ptrIKN7testing8internal23ParamGeneratorInterfaceISt5tupleIJSt4pairIddES5_dS5_EEEELN9__gnu_cxx12_Lock_policyE2EE31_M_enable_shared_from_this_withIS7_S7_EENSt9enable_ifIXntsrNSB_15__has_esft_baseIT0_vEE5valueEvE4typeEPT_
FNDA:1,_ZNSt12__shared_ptrIKN7testing8internal23ParamGeneratorInterfaceISt5tupleIJSt4pairIddES5_dS5_EEEELN9__gnu_cxx12_Lock_policyE2EE31_M_enable_shared_from_this_withIS7_S7_EENSt9enable_ifIXntsrNSB_15__has_esft_baseIT0_vEE5valueEvE4typeEPT_
FN:1386,_ZNSt12__shared_ptrI10ControllerLN9__gnu_cxx12_Lock_policyE2EE31_M_enable_shared_from_this_withIS0_S0_EENSt9enable_ifIXntsrNS3_15__has_esft_baseIT0_vEE5valueEvE4typeEPT_
FNDA:11,_ZNSt12__shared_ptrI10ControllerLN9__gnu_cxx12_Lock_policyE2EE31_M_enable_shared_from_this_withIS0_S0_EENSt9enable_ifIXntsrNS3_15__has_esft_baseIT0_vEE5valueEvE4typeEPT_
FN:1386,_ZNSt12__shared_ptrIN7tf2_ros6BufferELN9__gnu_cxx12_Lock_policyE2EE31_M_enable_shared_from_this_withIS1_S1_EENSt9enable_ifIXntsrNS4_15__has_esft_baseIT0_vEE5valueEvE4typeEPT_
FNDA:12,_ZNSt12__shared_ptrIN7tf2_ros6BufferELN9__gnu_cxx12_Lock_policyE2EE31_M_enable_shared_from_this_withIS1_S1_EENSt9enable_ifIXntsrNS4_15__has_esft_baseIT0_vEE5valueEvE4typeEPT_
FN:1386,_ZNSt12__shared_ptrIN6rclcpp21AsyncParametersClientELN9__gnu_cxx12_Lock_policyE2EE31_M_enable_shared_from_this_withIS1_S1_EENSt9enable_ifIXntsrNS4_15__has_esft_baseIT0_vEE5valueEvE4typeEPT_
FNDA:1,_ZNSt12__shared_ptrIN6rclcpp21AsyncParametersClientELN9__gnu_cxx12_Lock_policyE2EE31_M_enable_shared_from_this_withIS1_S1_EENSt9enable_ifIXntsrNS4_15__has_esft_baseIT0_vEE5valueEvE4typeEPT_
FN:1386,_ZNSt12__shared_ptrIN7testing8internal26ParameterizedTestSuiteInfoI29CircleSegmentIntersectionTestE8TestInfoELN9__gnu_cxx12_Lock_policyE2EE31_M_enable_shared_from_this_withIS5_S5_EENSt9enable_ifIXntsrNS8_15__has_esft_baseIT0_vEE5valueEvE4typeEPT_
FNDA:1,_ZNSt12__shared_ptrIN7testing8internal26ParameterizedTestSuiteInfoI29CircleSegmentIntersectionTestE8TestInfoELN9__gnu_cxx12_Lock_policyE2EE31_M_enable_shared_from_this_withIS5_S5_EENSt9enable_ifIXntsrNS8_15__has_esft_baseIT0_vEE5valueEvE4typeEPT_
FN:1604,_ZNSt10__weak_ptrIN16rclcpp_lifecycle13LifecycleNodeELN9__gnu_cxx12_Lock_policyE2EEC2Ev
FNDA:12,_ZNSt10__weak_ptrIN16rclcpp_lifecycle13LifecycleNodeELN9__gnu_cxx12_Lock_policyE2EEC2Ev
FN:1610,_ZNSt10__weak_ptrIN16rclcpp_lifecycle13LifecycleNodeELN9__gnu_cxx12_Lock_policyE2EED2Ev
FNDA:27,_ZNSt10__weak_ptrIN16rclcpp_lifecycle13LifecycleNodeELN9__gnu_cxx12_Lock_policyE2EED2Ev
FN:1632,_ZNSt10__weak_ptrIN16rclcpp_lifecycle13LifecycleNodeELN9__gnu_cxx12_Lock_policyE2EEC2IS1_vEERKSt12__shared_ptrIT_LS3_2EE
FNDA:15,_ZNSt10__weak_ptrIN16rclcpp_lifecycle13LifecycleNodeELN9__gnu_cxx12_Lock_policyE2EEC2IS1_vEERKSt12__shared_ptrIT_LS3_2EE
FN:1688,_ZNKSt10__weak_ptrIN16rclcpp_lifecycle13LifecycleNodeELN9__gnu_cxx12_Lock_policyE2EE9use_countEv
FNDA:24,_ZNKSt10__weak_ptrIN16rclcpp_lifecycle13LifecycleNodeELN9__gnu_cxx12_Lock_policyE2EE9use_countEv
FN:1719,_ZNSt10__weak_ptrIN16rclcpp_lifecycle13LifecycleNodeELN9__gnu_cxx12_Lock_policyE2EE9_M_assignEPS1_RKSt14__shared_countILS3_2EE
FNDA:24,_ZNSt10__weak_ptrIN16rclcpp_lifecycle13LifecycleNodeELN9__gnu_cxx12_Lock_policyE2EE9_M_assignEPS1_RKSt14__shared_countILS3_2EE
DA:126,218
DA:127,218
DA:130,0
DA:131,0
DA:130,218
DA:131,218
DA:140,0
DA:141,0
DA:147,907
DA:148,907
DA:161,1317
DA:165,2634
DA:168,251
DA:180,251
DA:181,251
DA:184,220
DA:187,1317
DA:190,137
DA:191,137
DA:194,71
DA:198,142
DA:207,10
DA:209,71
DA:212,34
DA:216,34
DA:343,1
DA:344,1
DA:343,1
DA:344,1
DA:347,1
DA:348,1
DA:347,1
DA:348,1
DA:351,1
DA:352,1
DA:351,1
DA:352,1
DA:355,0
DA:356,0
DA:355,0
DA:356,0
DA:385,11
DA:385,12
DA:385,12
DA:385,12
DA:385,1
DA:389,2
DA:389,24
DA:389,24
DA:389,24
DA:389,22
DA:479,0
DA:482,0
DA:502,11
DA:502,12
DA:502,12
DA:502,12
DA:502,1
DA:504,2
DA:504,24
DA:504,24
DA:504,24
DA:504,22
DA:514,1
DA:515,1
DA:519,1
DA:521,1
DA:514,1
DA:515,1
DA:519,1
DA:521,1
DA:514,11
DA:515,11
DA:519,11
DA:521,11
DA:514,11
DA:515,11
DA:519,11
DA:521,11
DA:514,12
DA:515,12
DA:519,12
DA:521,12
DA:514,12
DA:515,12
DA:519,12
DA:521,12
DA:523,0
DA:523,1
DA:523,0
DA:523,12
DA:523,0
DA:523,12
DA:523,0
DA:523,12
DA:523,0
DA:523,11
DA:526,1
DA:528,1
DA:529,1
DA:526,12
DA:528,12
DA:529,12
DA:526,12
DA:528,12
DA:529,12
DA:526,12
DA:528,12
DA:529,12
DA:526,11
DA:528,11
DA:529,11
DA:533,1
DA:535,1
DA:536,1
DA:537,1
DA:538,1
DA:533,12
DA:535,12
DA:536,12
DA:537,12
DA:538,12
DA:533,12
DA:535,12
DA:536,12
DA:537,12
DA:538,12
DA:533,12
DA:535,12
DA:536,12
DA:537,12
DA:538,12
DA:533,11
DA:535,11
DA:536,11
DA:537,11
DA:538,11
DA:546,0
DA:548,0
DA:553,0
DA:554,0
DA:556,0
DA:561,0
DA:562,0
DA:546,0
DA:548,0
DA:553,0
DA:554,0
DA:556,0
DA:561,0
DA:562,0
DA:546,0
DA:548,0
DA:553,0
DA:554,0
DA:556,0
DA:561,0
DA:562,0
DA:546,0
DA:548,0
DA:553,0
DA:554,0
DA:556,0
DA:561,0
DA:562,0
DA:546,0
DA:548,0
DA:553,0
DA:554,0
DA:556,0
DA:561,0
DA:562,0
DA:565,33
DA:565,36
DA:565,36
DA:565,36
DA:565,3
DA:587,613
DA:588,613
DA:592,1
DA:596,1
DA:598,0
DA:600,0
DA:601,0
DA:603,1
DA:592,1
DA:596,1
DA:598,0
DA:600,0
DA:601,0
DA:603,1
DA:606,1
DA:607,1
DA:608,1
DA:606,1
DA:607,1
DA:608,1
DA:643,1
DA:647,1
DA:648,1
DA:649,1
DA:650,2
DA:651,1
DA:652,1
DA:653,1
DA:654,1
DA:655,1
DA:643,1
DA:647,1
DA:648,1
DA:649,1
DA:650,2
DA:651,1
DA:652,1
DA:653,1
DA:654,1
DA:655,1
DA:643,11
DA:647,11
DA:648,11
DA:649,11
DA:650,11
DA:652,11
DA:653,11
DA:654,11
DA:655,11
DA:643,11
DA:647,11
DA:648,11
DA:649,11
DA:650,22
DA:651,11
DA:652,11
DA:653,11
DA:654,11
DA:655,11
DA:643,12
DA:647,12
DA:648,12
DA:649,12
DA:650,24
DA:651,12
DA:652,12
DA:653,12
DA:654,12
DA:655,12
DA:643,12
DA:647,12
DA:648,12
DA:649,12
DA:650,24
DA:651,12
DA:652,12
DA:653,12
DA:654,12
DA:655,12
DA:702,2463
DA:704,2463
DA:705,1305
DA:706,2463
DA:708,1459
DA:709,1459
DA:711,1459
DA:712,871
DA:713,1459
DA:731,448
DA:733,448
DA:734,448
DA:735,448
DA:736,448
DA:774,12
DA:775,12
DA:777,57
DA:778,57
DA:780,57
DA:781,57
DA:782,57
DA:795,69
DA:797,69
DA:798,69
DA:799,69
DA:802,66
DA:804,66
DA:805,66
DA:806,66
DA:807,66
DA:808,0
DA:809,66
DA:810,66
DA:844,66
DA:845,66
DA:984,14
DA:987,14
DA:984,37
DA:987,37
DA:984,179
DA:987,179
DA:984,7
DA:987,7
DA:984,71
DA:987,71
DA:984,198
DA:987,198
DA:984,1270
DA:987,1270
DA:984,1
DA:987,1
DA:984,5
DA:987,5
DA:992,14
DA:993,14
DA:992,37
DA:993,37
DA:992,179
DA:993,179
DA:992,7
DA:993,7
DA:992,71
DA:993,71
DA:992,198
DA:993,198
DA:992,1270
DA:993,1270
DA:992,1
DA:993,1
DA:992,5
DA:993,5
DA:1092,7
DA:1093,7
DA:1094,7
DA:1092,7
DA:1093,7
DA:1094,7
DA:1092,13
DA:1093,13
DA:1094,13
DA:1092,13
DA:1093,13
DA:1094,13
DA:1092,26
DA:1093,26
DA:1094,26
DA:1092,12
DA:1093,12
DA:1094,12
DA:1092,19
DA:1093,19
DA:1094,19
DA:1092,19
DA:1093,19
DA:1094,19
DA:1092,1
DA:1093,1
DA:1094,1
DA:1092,12
DA:1093,12
DA:1094,12
DA:1092,43
DA:1093,43
DA:1094,43
DA:1098,1
DA:1099,1
DA:1103,1
DA:1104,1
DA:1098,1
DA:1099,1
DA:1103,1
DA:1104,1
DA:1152,1
DA:1152,414
DA:1152,15
DA:1152,14
DA:1152,3
DA:1152,4
DA:1154,53
DA:1154,1
DA:1154,1
DA:1154,68
DA:1154,18
DA:1154,223
DA:1154,180
DA:1154,1
DA:1154,45
DA:1154,6
DA:1154,1
DA:1154,457
DA:1154,12
DA:1154,71
DA:1154,52
DA:1154,1
DA:1154,110
DA:1154,55
DA:1154,20
DA:1154,25
DA:1154,1
DA:1154,2
DA:1154,2
DA:1154,3
DA:1154,1
DA:1154,1
DA:1154,1
DA:1154,1
DA:1154,1
DA:1161,1
DA:1162,1
DA:1164,1
DA:1165,1
DA:1166,1
DA:1161,1
DA:1162,1
DA:1164,1
DA:1165,1
DA:1166,1
DA:1161,1
DA:1162,1
DA:1164,1
DA:1165,1
DA:1166,1
DA:1161,1
DA:1162,1
DA:1164,1
DA:1165,1
DA:1166,1
DA:1161,26
DA:1162,26
DA:1164,26
DA:1165,26
DA:1166,26
DA:1161,1
DA:1162,1
DA:1164,1
DA:1165,1
DA:1166,1
DA:1161,7
DA:1162,7
DA:1164,7
DA:1165,7
DA:1166,7
DA:1161,7
DA:1162,7
DA:1164,7
DA:1165,7
DA:1166,7
DA:1161,7
DA:1162,7
DA:1164,7
DA:1165,7
DA:1166,7
DA:1161,7
DA:1162,7
DA:1164,7
DA:1165,7
DA:1166,7
DA:1169,1
DA:1170,1
DA:1172,1
DA:1173,1
DA:1174,1
DA:1248,7
DA:1250,7
DA:1251,7
DA:1248,7
DA:1250,7
DA:1251,7
DA:1248,7
DA:1250,7
DA:1251,7
DA:1248,7
DA:1250,7
DA:1251,7
DA:1295,14
DA:1296,14
DA:1295,37
DA:1296,37
DA:1295,179
DA:1296,179
DA:1295,7
DA:1296,7
DA:1295,71
DA:1296,71
DA:1295,198
DA:1296,198
DA:1295,1
DA:1296,1
DA:1295,5
DA:1296,5
DA:1295,1270
DA:1296,1270
DA:1299,5
DA:1300,5
DA:1314,7
DA:1316,7
DA:1317,7
DA:1318,7
DA:1314,7
DA:1316,7
DA:1317,7
DA:1318,7
DA:1314,7
DA:1316,7
DA:1317,7
DA:1318,7
DA:1314,7
DA:1316,7
DA:1317,7
DA:1318,7
DA:1341,1
DA:1342,1
DA:1343,1
DA:1341,1
DA:1342,1
DA:1343,1
DA:1341,11
DA:1342,11
DA:1343,11
DA:1341,11
DA:1342,11
DA:1343,11
DA:1341,12
DA:1342,12
DA:1343,12
DA:1341,12
DA:1342,12
DA:1343,12
DA:1378,12
DA:1380,12
DA:1381,12
DA:1382,12
DA:1378,12
DA:1380,12
DA:1381,12
DA:1382,12
DA:1386,1
DA:1387,1
DA:1386,11
DA:1387,11
DA:1386,12
DA:1387,12
DA:1386,1
DA:1387,1
DA:1386,1
DA:1387,1
DA:1604,12
DA:1605,12
DA:1606,12
DA:1610,27
DA:1632,15
DA:1633,15
DA:1634,15
DA:1688,24
DA:1689,24
DA:1719,24
DA:1721,24
DA:1723,24
DA:1724,24
DA:1726,24
end_of_record
SF:/opt/ros/humble/include/nav2_core/controller.hpp
FN:69,_ZN9nav2_core10ControllerD0Ev
FNDA:0,_ZN9nav2_core10ControllerD0Ev
FN:69,_ZN9nav2_core10ControllerD2Ev
FNDA:12,_ZN9nav2_core10ControllerD2Ev
DA:69,0
DA:69,12
end_of_record
SF:/opt/ros/humble/include/rclcpp/rclcpp/parameter_client.hpp
end_of_record
SF:/usr/include/c++/11/bits/stl_iterator_base_types.h
FN:238,_ZSt19__iterator_categoryIN9__gnu_cxx17__normal_iteratorIPKSt5tupleIJSt4pairIddES4_dS4_EESt6vectorIS5_SaIS5_EEEEENSt15iterator_traitsIT_E17iterator_categoryERKSD_
FNDA:2,_ZSt19__iterator_categoryIN9__gnu_cxx17__normal_iteratorIPKSt5tupleIJSt4pairIddES4_dS4_EESt6vectorIS5_SaIS5_EEEEENSt15iterator_traitsIT_E17iterator_categoryERKSD_
FN:238,_ZSt19__iterator_categoryIPKSt5tupleIJSt4pairIddES2_dS2_EEENSt15iterator_traitsIT_E17iterator_categoryERKS7_
FNDA:1,_ZSt19__iterator_categoryIPKSt5tupleIJSt4pairIddES2_dS2_EEENSt15iterator_traitsIT_E17iterator_categoryERKS7_
FN:238,_ZSt19__iterator_categoryIPcENSt15iterator_traitsIT_E17iterator_categoryERKS2_
FNDA:0,_ZSt19__iterator_categoryIPcENSt15iterator_traitsIT_E17iterator_categoryERKS2_
FN:238,_ZSt19__iterator_categoryIPKN13geometry_msgs3msg17TransformStamped_ISaIvEEEENSt15iterator_traitsIT_E17iterator_categoryERKS8_
FNDA:7,_ZSt19__iterator_categoryIPKN13geometry_msgs3msg17TransformStamped_ISaIvEEEENSt15iterator_traitsIT_E17iterator_categoryERKS8_
FN:238,_ZSt19__iterator_categoryIPKN6rclcpp9ParameterEENSt15iterator_traitsIT_E17iterator_categoryERKS5_
FNDA:8,_ZSt19__iterator_categoryIPKN6rclcpp9ParameterEENSt15iterator_traitsIT_E17iterator_categoryERKS5_
FN:238,_ZSt19__iterator_categoryIPKcENSt15iterator_traitsIT_E17iterator_categoryERKS3_
FNDA:2549,_ZSt19__iterator_categoryIPKcENSt15iterator_traitsIT_E17iterator_categoryERKS3_
DA:238,2
DA:239,2
DA:238,1
DA:239,1
DA:238,0
DA:239,0
DA:238,7
DA:239,7
DA:238,8
DA:239,8
DA:238,2549
DA:239,2549
end_of_record
SF:/root/ros2_ws/src/vector_pursuit_controller/include/vector_pursuit_controller/vector_pursuit_controller.hpp
FN:49,_ZN25vector_pursuit_controller23VectorPursuitControllerC2Ev
FNDA:12,_ZN25vector_pursuit_controller23VectorPursuitControllerC2Ev
FN:54,_ZN25vector_pursuit_controller23VectorPursuitControllerD0Ev
FNDA:1,_ZN25vector_pursuit_controller23VectorPursuitControllerD0Ev
FN:54,_ZN25vector_pursuit_controller23VectorPursuitControllerD2Ev
FNDA:12,_ZN25vector_pursuit_controller23VectorPursuitControllerD2Ev
DA:49,12
DA:54,1
DA:54,12
end_of_record
SF:/opt/ros/humble/include/rclcpp/rclcpp/qos_event.hpp
end_of_record
SF:/usr/include/c++/11/bits/basic_string.tcc
FN:206,_ZNSt7__cxx1112basic_stringIcSt11char_traitsIcESaIcEE12_M_constructIPcEEvT_S7_St20forward_iterator_tag
FNDA:0,_ZNSt7__cxx1112basic_stringIcSt11char_traitsIcESaIcEE12_M_constructIPcEEvT_S7_St20forward_iterator_tag
FN:206,_ZNSt7__cxx1112basic_stringIcSt11char_traitsIcESaIcEE12_M_constructIPKcEEvT_S8_St20forward_iterator_tag
FNDA:2549,_ZNSt7__cxx1112basic_stringIcSt11char_traitsIcESaIcEE12_M_constructIPKcEEvT_S8_St20forward_iterator_tag
DA:206,0
DA:211,0
DA:212,0
DA:215,0
DA:217,0
DA:219,0
DA:220,0
DA:225,0
DA:226,0
DA:228,0
DA:229,0
DA:232,0
DA:233,0
DA:206,2549
DA:211,2549
DA:212,0
DA:215,2549
DA:217,2549
DA:219,330
DA:220,330
DA:225,2549
DA:226,0
DA:228,0
DA:229,0
DA:232,2549
DA:233,2549
end_of_record
SF:/opt/ros/humble/include/nav2_core/goal_checker.hpp
FN:66,_ZN9nav2_core11GoalCheckerD0Ev
FNDA:0,_ZN9nav2_core11GoalCheckerD0Ev
FN:66,_ZN9nav2_core11GoalCheckerD2Ev
FNDA:1,_ZN9nav2_core11GoalCheckerD2Ev
DA:66,0
DA:66,1
end_of_record
SF:/root/ros2_ws/src/vector_pursuit_controller/test/path_utils/path_utils.hpp
FN:36,_ZN10path_utils11PathSegmentD0Ev
FNDA:0,_ZN10path_utils11PathSegmentD0Ev
FN:36,_ZN10path_utils11PathSegmentD2Ev
FNDA:10,_ZN10path_utils11PathSegmentD2Ev
FN:42,_ZN10path_utils3ArcC2Edd
FNDA:5,_ZN10path_utils3ArcC2Edd
FN:54,_ZN10path_utils8StraightC2Ed
FNDA:5,_ZN10path_utils8StraightC2Ed
FN:79,_ZN10path_utils14LeftTurnAroundC2Ed
FNDA:1,_ZN10path_utils14LeftTurnAroundC2Ed
FN:93,_ZN10path_utils10LeftCircleC2Ed
FNDA:4,_ZN10path_utils10LeftCircleC2Ed
DA:36,0
DA:36,10
DA:42,5
DA:43,5
DA:54,5
DA:55,5
DA:79,1
DA:80,1
DA:93,4
DA:94,4
end_of_record
SF:/usr/include/c++/11/typeinfo
FN:120,_ZNKSt9type_infoeqERKS_
FNDA:14,_ZNKSt9type_infoeqERKS_
DA:120,14
DA:122,14
DA:123,14
DA:124,14
end_of_record
SF:/opt/ros/humble/include/tf2_msgs/tf2_msgs/msg/detail/tf_message__struct.hpp
FN:40,_ZN8tf2_msgs3msg10TFMessage_ISaIvEEC2EN18rosidl_runtime_cpp21MessageInitializationE
FNDA:7,_ZN8tf2_msgs3msg10TFMessage_ISaIvEEC2EN18rosidl_runtime_cpp21MessageInitializationE
DA:40,7
DA:41,7
DA:43,7
end_of_record
SF:/usr/include/c++/11/bits/stl_tree.h
FN:146,_ZNSt20_Rb_tree_key_compareISt4lessINSt7__cxx1112basic_stringIcSt11char_traitsIcESaIcEEEEEC2Ev
FNDA:1,_ZNSt20_Rb_tree_key_compareISt4lessINSt7__cxx1112basic_stringIcSt11char_traitsIcESaIcEEEEEC2Ev
FN:173,_ZNSt15_Rb_tree_headerC2Ev
FNDA:1,_ZNSt15_Rb_tree_headerC2Ev
FN:206,_ZNSt15_Rb_tree_header8_M_resetEv
FNDA:1,_ZNSt15_Rb_tree_header8_M_resetEv
FN:234,_ZNSt13_Rb_tree_nodeINSt7__cxx1112basic_stringIcSt11char_traitsIcESaIcEEEE9_M_valptrEv
FNDA:24,_ZNSt13_Rb_tree_nodeINSt7__cxx1112basic_stringIcSt11char_traitsIcESaIcEEEE9_M_valptrEv
FN:238,_ZNKSt13_Rb_tree_nodeINSt7__cxx1112basic_stringIcSt11char_traitsIcESaIcEEEE9_M_valptrEv
FNDA:92,_ZNKSt13_Rb_tree_nodeINSt7__cxx1112basic_stringIcSt11char_traitsIcESaIcEEEE9_M_valptrEv
FN:273,_ZNSt17_Rb_tree_iteratorINSt7__cxx1112basic_stringIcSt11char_traitsIcESaIcEEEEC2EPSt18_Rb_tree_node_base
FNDA:26,_ZNSt17_Rb_tree_iteratorINSt7__cxx1112basic_stringIcSt11char_traitsIcESaIcEEEEC2EPSt18_Rb_tree_node_base
FN:300,_ZNSt17_Rb_tree_iteratorINSt7__cxx1112basic_stringIcSt11char_traitsIcESaIcEEEEmmEv
FNDA:1,_ZNSt17_Rb_tree_iteratorINSt7__cxx1112basic_stringIcSt11char_traitsIcESaIcEEEEmmEv
FN:315,_ZSteqRKSt17_Rb_tree_iteratorINSt7__cxx1112basic_stringIcSt11char_traitsIcESaIcEEEES8_
FNDA:2,_ZSteqRKSt17_Rb_tree_iteratorINSt7__cxx1112basic_stringIcSt11char_traitsIcESaIcEEEES8_
FN:347,_ZNSt23_Rb_tree_const_iteratorINSt7__cxx1112basic_stringIcSt11char_traitsIcESaIcEEEEC2EPKSt18_Rb_tree_node_base
FNDA:48,_ZNSt23_Rb_tree_const_iteratorINSt7__cxx1112basic_stringIcSt11char_traitsIcESaIcEEEEC2EPKSt18_Rb_tree_node_base
FN:350,_ZNSt23_Rb_tree_const_iteratorINSt7__cxx1112basic_stringIcSt11char_traitsIcESaIcEEEEC2ERKSt17_Rb_tree_iteratorIS5_E
FNDA:12,_ZNSt23_Rb_tree_const_iteratorINSt7__cxx1112basic_stringIcSt11char_traitsIcESaIcEEEEC2ERKSt17_Rb_tree_iteratorIS5_E
FN:396,_ZSteqRKSt23_Rb_tree_const_iteratorINSt7__cxx1112basic_stringIcSt11char_traitsIcESaIcEEEES8_
FNDA:24,_ZSteqRKSt23_Rb_tree_const_iteratorINSt7__cxx1112basic_stringIcSt11char_traitsIcESaIcEEEES8_
FN:523,_ZNSt8_Rb_treeINSt7__cxx1112basic_stringIcSt11char_traitsIcESaIcEEES5_St9_IdentityIS5_ESt4lessIS5_ESaIS5_EE11_Alloc_nodeC2ERSB_
FNDA:12,_ZNSt8_Rb_treeINSt7__cxx1112basic_stringIcSt11char_traitsIcESaIcEEES5_St9_IdentityIS5_ESt4lessIS5_ESaIS5_EE11_Alloc_nodeC2ERSB_
FN:528,_ZNKSt8_Rb_treeINSt7__cxx1112basic_stringIcSt11char_traitsIcESaIcEEES5_St9_IdentityIS5_ESt4lessIS5_ESaIS5_EE11_Alloc_nodeclIRKS5_EEPSt13_Rb_tree_nodeIS5_EOT_
FNDA:12,_ZNKSt8_Rb_treeINSt7__cxx1112basic_stringIcSt11char_traitsIcESaIcEEES5_St9_IdentityIS5_ESt4lessIS5_ESaIS5_EE11_Alloc_nodeclIRKS5_EEPSt13_Rb_tree_nodeIS5_EOT_
FN:547,_ZNSt8_Rb_treeINSt7__cxx1112basic_stringIcSt11char_traitsIcESaIcEEES5_St9_IdentityIS5_ESt4lessIS5_ESaIS5_EE21_M_get_Node_allocatorEv
FNDA:48,_ZNSt8_Rb_treeINSt7__cxx1112basic_stringIcSt11char_traitsIcESaIcEEES5_St9_IdentityIS5_ESt4lessIS5_ESaIS5_EE21_M_get_Node_allocatorEv
FN:560,_ZNSt8_Rb_treeINSt7__cxx1112basic_stringIcSt11char_traitsIcESaIcEEES5_St9_IdentityIS5_ESt4lessIS5_ESaIS5_EE11_M_get_nodeEv
FNDA:12,_ZNSt8_Rb_treeINSt7__cxx1112basic_stringIcSt11char_traitsIcESaIcEEES5_St9_IdentityIS5_ESt4lessIS5_ESaIS5_EE11_M_get_nodeEv
FN:564,_ZNSt8_Rb_treeINSt7__cxx1112basic_stringIcSt11char_traitsIcESaIcEEES5_St9_IdentityIS5_ESt4lessIS5_ESaIS5_EE11_M_put_nodeEPSt13_Rb_tree_nodeIS5_E
FNDA:12,_ZNSt8_Rb_treeINSt7__cxx1112basic_stringIcSt11char_traitsIcESaIcEEES5_St9_IdentityIS5_ESt4lessIS5_ESaIS5_EE11_M_put_nodeEPSt13_Rb_tree_nodeIS5_E
FN:590,_ZNSt8_Rb_treeINSt7__cxx1112basic_stringIcSt11char_traitsIcESaIcEEES5_St9_IdentityIS5_ESt4lessIS5_ESaIS5_EE17_M_construct_nodeIJRKS5_EEEvPSt13_Rb_tree_nodeIS5_EDpOT_
FNDA:12,_ZNSt8_Rb_treeINSt7__cxx1112basic_stringIcSt11char_traitsIcESaIcEEES5_St9_IdentityIS5_ESt4lessIS5_ESaIS5_EE17_M_construct_nodeIJRKS5_EEEvPSt13_Rb_tree_nodeIS5_EDpOT_
FN:609,_ZNSt8_Rb_treeINSt7__cxx1112basic_stringIcSt11char_traitsIcESaIcEEES5_St9_IdentityIS5_ESt4lessIS5_ESaIS5_EE14_M_create_nodeIJRKS5_EEEPSt13_Rb_tree_nodeIS5_EDpOT_
FNDA:12,_ZNSt8_Rb_treeINSt7__cxx1112basic_stringIcSt11char_traitsIcESaIcEEES5_St9_IdentityIS5_ESt4lessIS5_ESaIS5_EE14_M_create_nodeIJRKS5_EEEPSt13_Rb_tree_nodeIS5_EDpOT_
FN:618,_ZNSt8_Rb_treeINSt7__cxx1112basic_stringIcSt11char_traitsIcESaIcEEES5_St9_IdentityIS5_ESt4lessIS5_ESaIS5_EE15_M_destroy_nodeEPSt13_Rb_tree_nodeIS5_E
FNDA:12,_ZNSt8_Rb_treeINSt7__cxx1112basic_stringIcSt11char_traitsIcESaIcEEES5_St9_IdentityIS5_ESt4lessIS5_ESaIS5_EE15_M_destroy_nodeEPSt13_Rb_tree_nodeIS5_E
FN:629,_ZNSt8_Rb_treeINSt7__cxx1112basic_stringIcSt11char_traitsIcESaIcEEES5_St9_IdentityIS5_ESt4lessIS5_ESaIS5_EE12_M_drop_nodeEPSt13_Rb_tree_nodeIS5_E
FNDA:12,_ZNSt8_Rb_treeINSt7__cxx1112basic_stringIcSt11char_traitsIcESaIcEEES5_St9_IdentityIS5_ESt4lessIS5_ESaIS5_EE12_M_drop_nodeEPSt13_Rb_tree_nodeIS5_E
FN:667,_ZNSt8_Rb_treeINSt7__cxx1112basic_stringIcSt11char_traitsIcESaIcEEES5_St9_IdentityIS5_ESt4lessIS5_ESaIS5_EE13_Rb_tree_implIS9_Lb1EEC2Ev
FNDA:1,_ZNSt8_Rb_treeINSt7__cxx1112basic_stringIcSt11char_traitsIcESaIcEEES5_St9_IdentityIS5_ESt4lessIS5_ESaIS5_EE13_Rb_tree_implIS9_Lb1EEC2Ev
FN:734,_ZNKSt8_Rb_treeINSt7__cxx1112basic_stringIcSt11char_traitsIcESaIcEEES5_St9_IdentityIS5_ESt4lessIS5_ESaIS5_EE9_M_mbeginEv
FNDA:13,_ZNKSt8_Rb_treeINSt7__cxx1112basic_stringIcSt11char_traitsIcESaIcEEES5_St9_IdentityIS5_ESt4lessIS5_ESaIS5_EE9_M_mbeginEv
FN:738,_ZNSt8_Rb_treeINSt7__cxx1112basic_stringIcSt11char_traitsIcESaIcEEES5_St9_IdentityIS5_ESt4lessIS5_ESaIS5_EE8_M_beginEv
FNDA:13,_ZNSt8_Rb_treeINSt7__cxx1112basic_stringIcSt11char_traitsIcESaIcEEES5_St9_IdentityIS5_ESt4lessIS5_ESaIS5_EE8_M_beginEv
FN:742,_ZNKSt8_Rb_treeINSt7__cxx1112basic_stringIcSt11char_traitsIcESaIcEEES5_St9_IdentityIS5_ESt4lessIS5_ESaIS5_EE8_M_beginEv
FNDA:12,_ZNKSt8_Rb_treeINSt7__cxx1112basic_stringIcSt11char_traitsIcESaIcEEES5_St9_IdentityIS5_ESt4lessIS5_ESaIS5_EE8_M_beginEv
FN:749,_ZNSt8_Rb_treeINSt7__cxx1112basic_stringIcSt11char_traitsIcESaIcEEES5_St9_IdentityIS5_ESt4lessIS5_ESaIS5_EE6_M_endEv
FNDA:24,_ZNSt8_Rb_treeINSt7__cxx1112basic_stringIcSt11char_traitsIcESaIcEEES5_St9_IdentityIS5_ESt4lessIS5_ESaIS5_EE6_M_endEv
FN:753,_ZNKSt8_Rb_treeINSt7__cxx1112basic_stringIcSt11char_traitsIcESaIcEEES5_St9_IdentityIS5_ESt4lessIS5_ESaIS5_EE6_M_endEv
FNDA:12,_ZNKSt8_Rb_treeINSt7__cxx1112basic_stringIcSt11char_traitsIcESaIcEEES5_St9_IdentityIS5_ESt4lessIS5_ESaIS5_EE6_M_endEv
FN:757,_ZNSt8_Rb_treeINSt7__cxx1112basic_stringIcSt11char_traitsIcESaIcEEES5_St9_IdentityIS5_ESt4lessIS5_ESaIS5_EE6_S_keyEPKSt13_Rb_tree_nodeIS5_E
FNDA:92,_ZNSt8_Rb_treeINSt7__cxx1112basic_stringIcSt11char_traitsIcESaIcEEES5_St9_IdentityIS5_ESt4lessIS5_ESaIS5_EE6_S_keyEPKSt13_Rb_tree_nodeIS5_E
FN:779,_ZNSt8_Rb_treeINSt7__cxx1112basic_stringIcSt11char_traitsIcESaIcEEES5_St9_IdentityIS5_ESt4lessIS5_ESaIS5_EE7_S_leftEPSt18_Rb_tree_node_base
FNDA:16,_ZNSt8_Rb_treeINSt7__cxx1112basic_stringIcSt11char_traitsIcESaIcEEES5_St9_IdentityIS5_ESt4lessIS5_ESaIS5_EE7_S_leftEPSt18_Rb_tree_node_base
FN:783,_ZNSt8_Rb_treeINSt7__cxx1112basic_stringIcSt11char_traitsIcESaIcEEES5_St9_IdentityIS5_ESt4lessIS5_ESaIS5_EE7_S_leftEPKSt18_Rb_tree_node_base
FNDA:4,_ZNSt8_Rb_treeINSt7__cxx1112basic_stringIcSt11char_traitsIcESaIcEEES5_St9_IdentityIS5_ESt4lessIS5_ESaIS5_EE7_S_leftEPKSt18_Rb_tree_node_base
FN:787,_ZNSt8_Rb_treeINSt7__cxx1112basic_stringIcSt11char_traitsIcESaIcEEES5_St9_IdentityIS5_ESt4lessIS5_ESaIS5_EE8_S_rightEPSt18_Rb_tree_node_base
FNDA:42,_ZNSt8_Rb_treeINSt7__cxx1112basic_stringIcSt11char_traitsIcESaIcEEES5_St9_IdentityIS5_ESt4lessIS5_ESaIS5_EE8_S_rightEPSt18_Rb_tree_node_base
FN:791,_ZNSt8_Rb_treeINSt7__cxx1112basic_stringIcSt11char_traitsIcESaIcEEES5_St9_IdentityIS5_ESt4lessIS5_ESaIS5_EE8_S_rightEPKSt18_Rb_tree_node_base
FNDA:30,_ZNSt8_Rb_treeINSt7__cxx1112basic_stringIcSt11char_traitsIcESaIcEEES5_St9_IdentityIS5_ESt4lessIS5_ESaIS5_EE8_S_rightEPKSt18_Rb_tree_node_base
FN:795,_ZNSt8_Rb_treeINSt7__cxx1112basic_stringIcSt11char_traitsIcESaIcEEES5_St9_IdentityIS5_ESt4lessIS5_ESaIS5_EE6_S_keyEPKSt18_Rb_tree_node_base
FNDA:24,_ZNSt8_Rb_treeINSt7__cxx1112basic_stringIcSt11char_traitsIcESaIcEEES5_St9_IdentityIS5_ESt4lessIS5_ESaIS5_EE6_S_keyEPKSt18_Rb_tree_node_base
FN:928,_ZNSt8_Rb_treeINSt7__cxx1112basic_stringIcSt11char_traitsIcESaIcEEES5_St9_IdentityIS5_ESt4lessIS5_ESaIS5_EEC2Ev
FNDA:1,_ZNSt8_Rb_treeINSt7__cxx1112basic_stringIcSt11char_traitsIcESaIcEEES5_St9_IdentityIS5_ESt4lessIS5_ESaIS5_EEC2Ev
FN:983,_ZNSt8_Rb_treeINSt7__cxx1112basic_stringIcSt11char_traitsIcESaIcEEES5_St9_IdentityIS5_ESt4lessIS5_ESaIS5_EED2Ev
FNDA:1,_ZNSt8_Rb_treeINSt7__cxx1112basic_stringIcSt11char_traitsIcESaIcEEES5_St9_IdentityIS5_ESt4lessIS5_ESaIS5_EED2Ev
FN:995,_ZNSt8_Rb_treeINSt7__cxx1112basic_stringIcSt11char_traitsIcESaIcEEES5_St9_IdentityIS5_ESt4lessIS5_ESaIS5_EE5beginEv
FNDA:2,_ZNSt8_Rb_treeINSt7__cxx1112basic_stringIcSt11char_traitsIcESaIcEEES5_St9_IdentityIS5_ESt4lessIS5_ESaIS5_EE5beginEv
FN:1007,_ZNKSt8_Rb_treeINSt7__cxx1112basic_stringIcSt11char_traitsIcESaIcEEES5_St9_IdentityIS5_ESt4lessIS5_ESaIS5_EE3endEv
FNDA:36,_ZNKSt8_Rb_treeINSt7__cxx1112basic_stringIcSt11char_traitsIcESaIcEEES5_St9_IdentityIS5_ESt4lessIS5_ESaIS5_EE3endEv
FN:1771,_ZNSt8_Rb_treeINSt7__cxx1112basic_stringIcSt11char_traitsIcESaIcEEES5_St9_IdentityIS5_ESt4lessIS5_ESaIS5_EE10_M_insert_IRKS5_NSB_11_Alloc_nodeEEESt17_Rb_tree_iteratorIS5_EPSt18_Rb_tree_node_baseSJ_OT_RT0_
FNDA:12,_ZNSt8_Rb_treeINSt7__cxx1112basic_stringIcSt11char_traitsIcESaIcEEES5_St9_IdentityIS5_ESt4lessIS5_ESaIS5_EE10_M_insert_IRKS5_NSB_11_Alloc_nodeEEESt17_Rb_tree_iteratorIS5_EPSt18_Rb_tree_node_baseSJ_OT_RT0_
FN:1883,_ZNSt8_Rb_treeINSt7__cxx1112basic_stringIcSt11char_traitsIcESaIcEEES5_St9_IdentityIS5_ESt4lessIS5_ESaIS5_EE8_M_eraseEPSt13_Rb_tree_nodeIS5_E
FNDA:13,_ZNSt8_Rb_treeINSt7__cxx1112basic_stringIcSt11char_traitsIcESaIcEEES5_St9_IdentityIS5_ESt4lessIS5_ESaIS5_EE8_M_eraseEPSt13_Rb_tree_nodeIS5_E
FN:1916,_ZNKSt8_Rb_treeINSt7__cxx1112basic_stringIcSt11char_traitsIcESaIcEEES5_St9_IdentityIS5_ESt4lessIS5_ESaIS5_EE14_M_lower_boundEPKSt13_Rb_tree_nodeIS5_EPKSt18_Rb_tree_node_baseRKS5_
FNDA:12,_ZNKSt8_Rb_treeINSt7__cxx1112basic_stringIcSt11char_traitsIcESaIcEEES5_St9_IdentityIS5_ESt4lessIS5_ESaIS5_EE14_M_lower_boundEPKSt13_Rb_tree_nodeIS5_EPKSt18_Rb_tree_node_baseRKS5_
FN:2061,_ZNSt8_Rb_treeINSt7__cxx1112basic_stringIcSt11char_traitsIcESaIcEEES5_St9_IdentityIS5_ESt4lessIS5_ESaIS5_EE24_M_get_insert_unique_posERKS5_
FNDA:12,_ZNSt8_Rb_treeINSt7__cxx1112basic_stringIcSt11char_traitsIcESaIcEEES5_St9_IdentityIS5_ESt4lessIS5_ESaIS5_EE24_M_get_insert_unique_posERKS5_
FN:2115,_ZNSt8_Rb_treeINSt7__cxx1112basic_stringIcSt11char_traitsIcESaIcEEES5_St9_IdentityIS5_ESt4lessIS5_ESaIS5_EE16_M_insert_uniqueIRKS5_EESt4pairISt17_Rb_tree_iteratorIS5_EbEOT_
FNDA:12,_ZNSt8_Rb_treeINSt7__cxx1112basic_stringIcSt11char_traitsIcESaIcEEES5_St9_IdentityIS5_ESt4lessIS5_ESaIS5_EE16_M_insert_uniqueIRKS5_EESt4pairISt17_Rb_tree_iteratorIS5_EbEOT_
FN:2533,_ZNKSt8_Rb_treeINSt7__cxx1112basic_stringIcSt11char_traitsIcESaIcEEES5_St9_IdentityIS5_ESt4lessIS5_ESaIS5_EE4findERKS5_
FNDA:12,_ZNKSt8_Rb_treeINSt7__cxx1112basic_stringIcSt11char_traitsIcESaIcEEES5_St9_IdentityIS5_ESt4lessIS5_ESaIS5_EE4findERKS5_
DA:146,1
DA:150,1
DA:173,1
DA:174,1
DA:175,1
DA:176,1
DA:177,1
DA:206,1
DA:208,1
DA:209,1
DA:210,1
DA:211,1
DA:212,1
DA:234,24
DA:235,24
DA:238,92
DA:239,92
DA:273,26
DA:274,26
DA:300,1
DA:302,1
DA:303,1
DA:315,2
DA:316,2
DA:347,48
DA:348,48
DA:350,12
DA:351,12
DA:396,24
DA:397,24
DA:523,12
DA:524,12
DA:528,12
DA:529,12
DA:547,48
DA:548,48
DA:560,12
DA:561,12
DA:564,12
DA:565,12
DA:590,12
DA:594,12
DA:595,12
DA:599,0
DA:601,0
DA:602,0
DA:603,0
DA:605,12
DA:609,12
DA:611,12
DA:612,12
DA:613,12
DA:618,12
DA:623,12
DA:624,12
DA:626,12
DA:629,12
DA:631,12
DA:632,12
DA:633,12
DA:667,1
DA:671,1
DA:672,1
DA:734,13
DA:735,13
DA:738,13
DA:739,13
DA:742,12
DA:745,12
DA:749,24
DA:750,24
DA:753,12
DA:754,12
DA:757,92
DA:775,92
DA:779,16
DA:780,16
DA:783,4
DA:784,4
DA:787,42
DA:788,42
DA:791,30
DA:792,30
DA:795,24
DA:796,24
DA:928,1
DA:983,1
DA:984,1
DA:995,2
DA:996,2
DA:1007,36
DA:1008,36
DA:1771,12
DA:1780,12
DA:1781,24
DA:1784,12
DA:1786,12
DA:1787,12
DA:1788,12
DA:1789,12
DA:1883,13
DA:1887,25
DA:1889,12
DA:1890,12
DA:1891,12
DA:1892,12
DA:1894,13
DA:1916,12
DA:1920,46
DA:1921,34
DA:1922,4
DA:1924,30
DA:1925,12
DA:2061,12
DA:2065,12
DA:2066,12
DA:2067,12
DA:2068,46
DA:2070,34
DA:2071,34
DA:2072,34
DA:2074,12
DA:2075,12
DA:2077,2
DA:2078,1
DA:2080,1
DA:2082,11
DA:2083,11
DA:2084,0
DA:2115,12
DA:2124,12
DA:2126,12
DA:2128,12
DA:2129,12
DA:2131,12
DA:2134,0
DA:2533,12
DA:2536,12
DA:2537,24
DA:2538,2
DA:2539,26
end_of_record
SF:/opt/ros/humble/include/rclcpp/rclcpp/executors.hpp
FN:71,_ZN6rclcpp9executors31spin_node_until_future_completeISt13shared_futureIN14rcl_interfaces3msg20SetParametersResult_ISaIvEEEElSt5ratioILl1ELl1000EEEENS_16FutureReturnCodeERNS_8ExecutorESt10shared_ptrINS_15node_interfaces17NodeBaseInterfaceEERKT_NSt6chrono8durationIT0_T1_EE
FNDA:1,_ZN6rclcpp9executors31spin_node_until_future_completeISt13shared_futureIN14rcl_interfaces3msg20SetParametersResult_ISaIvEEEElSt5ratioILl1ELl1000EEEENS_16FutureReturnCodeERNS_8ExecutorESt10shared_ptrINS_15node_interfaces17NodeBaseInterfaceEERKT_NSt6chrono8durationIT0_T1_EE
FN:105,_ZN6rclcpp26spin_until_future_completeISt13shared_futureIN14rcl_interfaces3msg20SetParametersResult_ISaIvEEEElSt5ratioILl1ELl1000EEEENS_16FutureReturnCodeESt10shared_ptrINS_15node_interfaces17NodeBaseInterfaceEERKT_NSt6chrono8durationIT0_T1_EE
FNDA:1,_ZN6rclcpp26spin_until_future_completeISt13shared_futureIN14rcl_interfaces3msg20SetParametersResult_ISaIvEEEElSt5ratioILl1ELl1000EEEENS_16FutureReturnCodeESt10shared_ptrINS_15node_interfaces17NodeBaseInterfaceEERKT_NSt6chrono8durationIT0_T1_EE
DA:71,1
DA:79,1
DA:80,1
DA:81,1
DA:82,1
DA:105,1
DA:108,1
DA:110,1
DA:111,2
DA:112,1
end_of_record
SF:/opt/ros/humble/include/rcl_interfaces/rcl_interfaces/msg/detail/parameter_value__struct.hpp
end_of_record
SF:/usr/include/c++/11/bits/stl_vector.h
FN:97,_ZNSt12_Vector_baseIN7testing8internal26ParameterizedTestSuiteInfoI29CircleSegmentIntersectionTestE17InstantiationInfoESaIS5_EE17_Vector_impl_dataC2Ev
FNDA:1,_ZNSt12_Vector_baseIN7testing8internal26ParameterizedTestSuiteInfoI29CircleSegmentIntersectionTestE17InstantiationInfoESaIS5_EE17_Vector_impl_dataC2Ev
FN:97,_ZNSt12_Vector_baseIN6rclcpp9ParameterESaIS1_EE17_Vector_impl_dataC2Ev
FNDA:9,_ZNSt12_Vector_baseIN6rclcpp9ParameterESaIS1_EE17_Vector_impl_dataC2Ev
FN:97,_ZNSt12_Vector_baseIN14rcl_interfaces3msg19FloatingPointRange_ISaIvEEESaIS4_EE17_Vector_impl_dataC2Ev
FNDA:414,_ZNSt12_Vector_baseIN14rcl_interfaces3msg19FloatingPointRange_ISaIvEEESaIS4_EE17_Vector_impl_dataC2Ev
FN:97,_ZNSt12_Vector_baseIN14rcl_interfaces3msg13IntegerRange_ISaIvEEESaIS4_EE17_Vector_impl_dataC2Ev
FNDA:414,_ZNSt12_Vector_baseIN14rcl_interfaces3msg13IntegerRange_ISaIvEEESaIS4_EE17_Vector_impl_dataC2Ev
FN:97,_ZNSt12_Vector_baseIN13geometry_msgs3msg17TransformStamped_ISaIvEEESaIS4_EE17_Vector_impl_dataC2Ev
FNDA:7,_ZNSt12_Vector_baseIN13geometry_msgs3msg17TransformStamped_ISaIvEEESaIS4_EE17_Vector_impl_dataC2Ev
FN:97,_ZNSt12_Vector_baseIN13geometry_msgs3msg12PoseStamped_ISaIvEEESaIS4_EE17_Vector_impl_dataC2Ev
FNDA:33,_ZNSt12_Vector_baseIN13geometry_msgs3msg12PoseStamped_ISaIvEEESaIS4_EE17_Vector_impl_dataC2Ev
FN:97,_ZNSt12_Vector_baseINSt7__cxx1112basic_stringIcSt11char_traitsIcESaIcEEESaIS5_EE17_Vector_impl_dataC2Ev
FNDA:274,_ZNSt12_Vector_baseINSt7__cxx1112basic_stringIcSt11char_traitsIcESaIcEEESaIS5_EE17_Vector_impl_dataC2Ev
FN:97,_ZNSt12_Vector_baseISt5tupleIJSt4pairIddES2_dS2_EESaIS3_EE17_Vector_impl_dataC2Ev
FNDA:2,_ZNSt12_Vector_baseISt5tupleIJSt4pairIddES2_dS2_EESaIS3_EE17_Vector_impl_dataC2Ev
FN:97,_ZNSt12_Vector_baseIdSaIdEE17_Vector_impl_dataC2Ev
FNDA:80,_ZNSt12_Vector_baseIdSaIdEE17_Vector_impl_dataC2Ev
FN:97,_ZNSt12_Vector_baseIlSaIlEE17_Vector_impl_dataC2Ev
FNDA:80,_ZNSt12_Vector_baseIlSaIlEE17_Vector_impl_dataC2Ev
FN:97,_ZNSt12_Vector_baseISt10shared_ptrIN7testing8internal26ParameterizedTestSuiteInfoI29CircleSegmentIntersectionTestE8TestInfoEESaIS7_EE17_Vector_impl_dataC2Ev
FNDA:1,_ZNSt12_Vector_baseISt10shared_ptrIN7testing8internal26ParameterizedTestSuiteInfoI29CircleSegmentIntersectionTestE8TestInfoEESaIS7_EE17_Vector_impl_dataC2Ev
FN:97,_ZNSt12_Vector_baseIhSaIhEE17_Vector_impl_dataC2Ev
FNDA:80,_ZNSt12_Vector_baseIhSaIhEE17_Vector_impl_dataC2Ev
FN:131,_ZNSt12_Vector_baseIN14rcl_interfaces3msg13IntegerRange_ISaIvEEESaIS4_EE12_Vector_implC2Ev
FNDA:414,_ZNSt12_Vector_baseIN14rcl_interfaces3msg13IntegerRange_ISaIvEEESaIS4_EE12_Vector_implC2Ev
FN:131,_ZNSt12_Vector_baseIN13geometry_msgs3msg17TransformStamped_ISaIvEEESaIS4_EE12_Vector_implC2Ev
FNDA:7,_ZNSt12_Vector_baseIN13geometry_msgs3msg17TransformStamped_ISaIvEEESaIS4_EE12_Vector_implC2Ev
FN:131,_ZNSt12_Vector_baseIN13geometry_msgs3msg12PoseStamped_ISaIvEEESaIS4_EE12_Vector_implC2Ev
FNDA:31,_ZNSt12_Vector_baseIN13geometry_msgs3msg12PoseStamped_ISaIvEEESaIS4_EE12_Vector_implC2Ev
FN:131,_ZNSt12_Vector_baseIN14rcl_interfaces3msg19FloatingPointRange_ISaIvEEESaIS4_EE12_Vector_implC2Ev
FNDA:414,_ZNSt12_Vector_baseIN14rcl_interfaces3msg19FloatingPointRange_ISaIvEEESaIS4_EE12_Vector_implC2Ev
FN:131,_ZNSt12_Vector_baseISt10shared_ptrIN7testing8internal26ParameterizedTestSuiteInfoI29CircleSegmentIntersectionTestE8TestInfoEESaIS7_EE12_Vector_implC2Ev
FNDA:1,_ZNSt12_Vector_baseISt10shared_ptrIN7testing8internal26ParameterizedTestSuiteInfoI29CircleSegmentIntersectionTestE8TestInfoEESaIS7_EE12_Vector_implC2Ev
FN:131,_ZNSt12_Vector_baseIN7testing8internal26ParameterizedTestSuiteInfoI29CircleSegmentIntersectionTestE17InstantiationInfoESaIS5_EE12_Vector_implC2Ev
FNDA:1,_ZNSt12_Vector_baseIN7testing8internal26ParameterizedTestSuiteInfoI29CircleSegmentIntersectionTestE17InstantiationInfoESaIS5_EE12_Vector_implC2Ev
FN:136,_ZNSt12_Vector_baseIN13geometry_msgs3msg12PoseStamped_ISaIvEEESaIS4_EE12_Vector_implC2ERKS5_
FNDA:2,_ZNSt12_Vector_baseIN13geometry_msgs3msg12PoseStamped_ISaIvEEESaIS4_EE12_Vector_implC2ERKS5_
FN:136,_ZNSt12_Vector_baseIdSaIdEE12_Vector_implC2ERKS0_
FNDA:80,_ZNSt12_Vector_baseIdSaIdEE12_Vector_implC2ERKS0_
FN:136,_ZNSt12_Vector_baseIlSaIlEE12_Vector_implC2ERKS0_
FNDA:80,_ZNSt12_Vector_baseIlSaIlEE12_Vector_implC2ERKS0_
FN:136,_ZNSt12_Vector_baseIhSaIhEE12_Vector_implC2ERKS0_
FNDA:80,_ZNSt12_Vector_baseIhSaIhEE12_Vector_implC2ERKS0_
FN:136,_ZNSt12_Vector_baseIN6rclcpp9ParameterESaIS1_EE12_Vector_implC2ERKS2_
FNDA:9,_ZNSt12_Vector_baseIN6rclcpp9ParameterESaIS1_EE12_Vector_implC2ERKS2_
FN:136,_ZNSt12_Vector_baseISt5tupleIJSt4pairIddES2_dS2_EESaIS3_EE12_Vector_implC2ERKS4_
FNDA:2,_ZNSt12_Vector_baseISt5tupleIJSt4pairIddES2_dS2_EESaIS3_EE12_Vector_implC2ERKS4_
FN:136,_ZNSt12_Vector_baseINSt7__cxx1112basic_stringIcSt11char_traitsIcESaIcEEESaIS5_EE12_Vector_implC2ERKS6_
FNDA:273,_ZNSt12_Vector_baseINSt7__cxx1112basic_stringIcSt11char_traitsIcESaIcEEESaIS5_EE12_Vector_implC2ERKS6_
FN:276,_ZNSt12_Vector_baseIN14rcl_interfaces3msg13IntegerRange_ISaIvEEESaIS4_EE19_M_get_Tp_allocatorEv
FNDA:414,_ZNSt12_Vector_baseIN14rcl_interfaces3msg13IntegerRange_ISaIvEEESaIS4_EE19_M_get_Tp_allocatorEv
FN:276,_ZNSt12_Vector_baseIN14rcl_interfaces3msg19FloatingPointRange_ISaIvEEESaIS4_EE19_M_get_Tp_allocatorEv
FNDA:414,_ZNSt12_Vector_baseIN14rcl_interfaces3msg19FloatingPointRange_ISaIvEEESaIS4_EE19_M_get_Tp_allocatorEv
FN:276,_ZNSt12_Vector_baseISt10shared_ptrIN7testing8internal26ParameterizedTestSuiteInfoI29CircleSegmentIntersectionTestE8TestInfoEESaIS7_EE19_M_get_Tp_allocatorEv
FNDA:3,_ZNSt12_Vector_baseISt10shared_ptrIN7testing8internal26ParameterizedTestSuiteInfoI29CircleSegmentIntersectionTestE8TestInfoEESaIS7_EE19_M_get_Tp_allocatorEv
FN:276,_ZNSt12_Vector_baseIN7testing8internal26ParameterizedTestSuiteInfoI29CircleSegmentIntersectionTestE17InstantiationInfoESaIS5_EE19_M_get_Tp_allocatorEv
FNDA:3,_ZNSt12_Vector_baseIN7testing8internal26ParameterizedTestSuiteInfoI29CircleSegmentIntersectionTestE17InstantiationInfoESaIS5_EE19_M_get_Tp_allocatorEv
FN:276,_ZNSt12_Vector_baseIN6rclcpp9ParameterESaIS1_EE19_M_get_Tp_allocatorEv
FNDA:38,_ZNSt12_Vector_baseIN6rclcpp9ParameterESaIS1_EE19_M_get_Tp_allocatorEv
FN:276,_ZNSt12_Vector_baseIPN7testing8internal30ParameterizedTestSuiteInfoBaseESaIS3_EE19_M_get_Tp_allocatorEv
FNDA:3,_ZNSt12_Vector_baseIPN7testing8internal30ParameterizedTestSuiteInfoBaseESaIS3_EE19_M_get_Tp_allocatorEv
FN:276,_ZNSt12_Vector_baseISt5tupleIJSt4pairIddES2_dS2_EESaIS3_EE19_M_get_Tp_allocatorEv
FNDA:6,_ZNSt12_Vector_baseISt5tupleIJSt4pairIddES2_dS2_EESaIS3_EE19_M_get_Tp_allocatorEv
FN:276,_ZNSt12_Vector_baseINSt7__cxx1112basic_stringIcSt11char_traitsIcESaIcEEESaIS5_EE19_M_get_Tp_allocatorEv
FNDA:2099,_ZNSt12_Vector_baseINSt7__cxx1112basic_stringIcSt11char_traitsIcESaIcEEESaIS5_EE19_M_get_Tp_allocatorEv
FN:276,_ZNSt12_Vector_baseIN13geometry_msgs3msg17TransformStamped_ISaIvEEESaIS4_EE19_M_get_Tp_allocatorEv
FNDA:28,_ZNSt12_Vector_baseIN13geometry_msgs3msg17TransformStamped_ISaIvEEESaIS4_EE19_M_get_Tp_allocatorEv
FN:276,_ZNSt12_Vector_baseIhSaIhEE19_M_get_Tp_allocatorEv
FNDA:1505,_ZNSt12_Vector_baseIhSaIhEE19_M_get_Tp_allocatorEv
FN:276,_ZNSt12_Vector_baseIN13geometry_msgs3msg12PoseStamped_ISaIvEEESaIS4_EE19_M_get_Tp_allocatorEv
FNDA:143,_ZNSt12_Vector_baseIN13geometry_msgs3msg12PoseStamped_ISaIvEEESaIS4_EE19_M_get_Tp_allocatorEv
FN:276,_ZNSt12_Vector_baseIlSaIlEE19_M_get_Tp_allocatorEv
FNDA:1505,_ZNSt12_Vector_baseIlSaIlEE19_M_get_Tp_allocatorEv
FN:276,_ZNSt12_Vector_baseIdSaIdEE19_M_get_Tp_allocatorEv
FNDA:1505,_ZNSt12_Vector_baseIdSaIdEE19_M_get_Tp_allocatorEv
FN:276,_ZNSt12_Vector_baseIN14rcl_interfaces3msg20SetParametersResult_ISaIvEEESaIS4_EE19_M_get_Tp_allocatorEv
FNDA:7,_ZNSt12_Vector_baseIN14rcl_interfaces3msg20SetParametersResult_ISaIvEEESaIS4_EE19_M_get_Tp_allocatorEv
FN:276,_ZNSt12_Vector_baseIN6rclcpp13QosPolicyKindESaIS1_EE19_M_get_Tp_allocatorEv
FNDA:306,_ZNSt12_Vector_baseIN6rclcpp13QosPolicyKindESaIS1_EE19_M_get_Tp_allocatorEv
FN:280,_ZNKSt12_Vector_baseIdSaIdEE19_M_get_Tp_allocatorEv
FNDA:80,_ZNKSt12_Vector_baseIdSaIdEE19_M_get_Tp_allocatorEv
FN:280,_ZNKSt12_Vector_baseIN7testing8internal26ParameterizedTestSuiteInfoI29CircleSegmentIntersectionTestE17InstantiationInfoESaIS5_EE19_M_get_Tp_allocatorEv
FNDA:2,_ZNKSt12_Vector_baseIN7testing8internal26ParameterizedTestSuiteInfoI29CircleSegmentIntersectionTestE17InstantiationInfoESaIS5_EE19_M_get_Tp_allocatorEv
FN:280,_ZNKSt12_Vector_baseISt10shared_ptrIN7testing8internal26ParameterizedTestSuiteInfoI29CircleSegmentIntersectionTestE8TestInfoEESaIS7_EE19_M_get_Tp_allocatorEv
FNDA:2,_ZNKSt12_Vector_baseISt10shared_ptrIN7testing8internal26ParameterizedTestSuiteInfoI29CircleSegmentIntersectionTestE8TestInfoEESaIS7_EE19_M_get_Tp_allocatorEv
FN:280,_ZNKSt12_Vector_baseIPN7testing8internal30ParameterizedTestSuiteInfoBaseESaIS3_EE19_M_get_Tp_allocatorEv
FNDA:2,_ZNKSt12_Vector_baseIPN7testing8internal30ParameterizedTestSuiteInfoBaseESaIS3_EE19_M_get_Tp_allocatorEv
FN:280,_ZNKSt12_Vector_baseINSt7__cxx1112basic_stringIcSt11char_traitsIcESaIcEEESaIS5_EE19_M_get_Tp_allocatorEv
FNDA:86,_ZNKSt12_Vector_baseINSt7__cxx1112basic_stringIcSt11char_traitsIcESaIcEEESaIS5_EE19_M_get_Tp_allocatorEv
FN:280,_ZNKSt12_Vector_baseIhSaIhEE19_M_get_Tp_allocatorEv
FNDA:80,_ZNKSt12_Vector_baseIhSaIhEE19_M_get_Tp_allocatorEv
FN:280,_ZNKSt12_Vector_baseIlSaIlEE19_M_get_Tp_allocatorEv
FNDA:80,_ZNKSt12_Vector_baseIlSaIlEE19_M_get_Tp_allocatorEv
FN:280,_ZNKSt12_Vector_baseIN13geometry_msgs3msg12PoseStamped_ISaIvEEESaIS4_EE19_M_get_Tp_allocatorEv
FNDA:98,_ZNKSt12_Vector_baseIN13geometry_msgs3msg12PoseStamped_ISaIvEEESaIS4_EE19_M_get_Tp_allocatorEv
FN:288,_ZNSt12_Vector_baseIN7testing8internal26ParameterizedTestSuiteInfoI29CircleSegmentIntersectionTestE17InstantiationInfoESaIS5_EEC2Ev
FNDA:1,_ZNSt12_Vector_baseIN7testing8internal26ParameterizedTestSuiteInfoI29CircleSegmentIntersectionTestE17InstantiationInfoESaIS5_EEC2Ev
FN:288,_ZNSt12_Vector_baseIN14rcl_interfaces3msg19FloatingPointRange_ISaIvEEESaIS4_EEC2Ev
FNDA:414,_ZNSt12_Vector_baseIN14rcl_interfaces3msg19FloatingPointRange_ISaIvEEESaIS4_EEC2Ev
FN:288,_ZNSt12_Vector_baseIN13geometry_msgs3msg17TransformStamped_ISaIvEEESaIS4_EEC2Ev
FNDA:7,_ZNSt12_Vector_baseIN13geometry_msgs3msg17TransformStamped_ISaIvEEESaIS4_EEC2Ev
FN:288,_ZNSt12_Vector_baseISt10shared_ptrIN7testing8internal26ParameterizedTestSuiteInfoI29CircleSegmentIntersectionTestE8TestInfoEESaIS7_EEC2Ev
FNDA:1,_ZNSt12_Vector_baseISt10shared_ptrIN7testing8internal26ParameterizedTestSuiteInfoI29CircleSegmentIntersectionTestE8TestInfoEESaIS7_EEC2Ev
FN:288,_ZNSt12_Vector_baseIN13geometry_msgs3msg12PoseStamped_ISaIvEEESaIS4_EEC2Ev
FNDA:31,_ZNSt12_Vector_baseIN13geometry_msgs3msg12PoseStamped_ISaIvEEESaIS4_EEC2Ev
FN:288,_ZNSt12_Vector_baseIN14rcl_interfaces3msg13IntegerRange_ISaIvEEESaIS4_EEC2Ev
FNDA:414,_ZNSt12_Vector_baseIN14rcl_interfaces3msg13IntegerRange_ISaIvEEESaIS4_EEC2Ev
FN:293,_ZNSt12_Vector_baseIN6rclcpp9ParameterESaIS1_EEC2ERKS2_
FNDA:8,_ZNSt12_Vector_baseIN6rclcpp9ParameterESaIS1_EEC2ERKS2_
FN:293,_ZNSt12_Vector_baseISt5tupleIJSt4pairIddES2_dS2_EESaIS3_EEC2ERKS4_
FNDA:2,_ZNSt12_Vector_baseISt5tupleIJSt4pairIddES2_dS2_EESaIS3_EEC2ERKS4_
FN:303,_ZNSt12_Vector_baseIdSaIdEEC2EmRKS0_
FNDA:80,_ZNSt12_Vector_baseIdSaIdEEC2EmRKS0_
FN:303,_ZNSt12_Vector_baseIhSaIhEEC2EmRKS0_
FNDA:80,_ZNSt12_Vector_baseIhSaIhEEC2EmRKS0_
FN:303,_ZNSt12_Vector_baseIlSaIlEEC2EmRKS0_
FNDA:80,_ZNSt12_Vector_baseIlSaIlEEC2EmRKS0_
FN:303,_ZNSt12_Vector_baseIN13geometry_msgs3msg12PoseStamped_ISaIvEEESaIS4_EEC2EmRKS5_
FNDA:2,_ZNSt12_Vector_baseIN13geometry_msgs3msg12PoseStamped_ISaIvEEESaIS4_EEC2EmRKS5_
FN:303,_ZNSt12_Vector_baseINSt7__cxx1112basic_stringIcSt11char_traitsIcESaIcEEESaIS5_EEC2EmRKS6_
FNDA:82,_ZNSt12_Vector_baseINSt7__cxx1112basic_stringIcSt11char_traitsIcESaIcEEESaIS5_EEC2EmRKS6_
FN:333,_ZNSt12_Vector_baseISt10shared_ptrIN7testing8internal26ParameterizedTestSuiteInfoI29CircleSegmentIntersectionTestE8TestInfoEESaIS7_EED2Ev
FNDA:1,_ZNSt12_Vector_baseISt10shared_ptrIN7testing8internal26ParameterizedTestSuiteInfoI29CircleSegmentIntersectionTestE8TestInfoEESaIS7_EED2Ev
FN:333,_ZNSt12_Vector_baseIN14rcl_interfaces3msg13IntegerRange_ISaIvEEESaIS4_EED2Ev
FNDA:414,_ZNSt12_Vector_baseIN14rcl_interfaces3msg13IntegerRange_ISaIvEEESaIS4_EED2Ev
FN:333,_ZNSt12_Vector_baseIN7testing8internal26ParameterizedTestSuiteInfoI29CircleSegmentIntersectionTestE17InstantiationInfoESaIS5_EED2Ev
FNDA:1,_ZNSt12_Vector_baseIN7testing8internal26ParameterizedTestSuiteInfoI29CircleSegmentIntersectionTestE17InstantiationInfoESaIS5_EED2Ev
FN:333,_ZNSt12_Vector_baseISt5tupleIJSt4pairIddES2_dS2_EESaIS3_EED2Ev
FNDA:2,_ZNSt12_Vector_baseISt5tupleIJSt4pairIddES2_dS2_EESaIS3_EED2Ev
FN:333,_ZNSt12_Vector_baseIN14rcl_interfaces3msg19FloatingPointRange_ISaIvEEESaIS4_EED2Ev
FNDA:414,_ZNSt12_Vector_baseIN14rcl_interfaces3msg19FloatingPointRange_ISaIvEEESaIS4_EED2Ev
FN:333,_ZNSt12_Vector_baseIN14rcl_interfaces3msg20SetParametersResult_ISaIvEEESaIS4_EED2Ev
FNDA:7,_ZNSt12_Vector_baseIN14rcl_interfaces3msg20SetParametersResult_ISaIvEEESaIS4_EED2Ev
FN:333,_ZNSt12_Vector_baseIN13geometry_msgs3msg12PoseStamped_ISaIvEEESaIS4_EED2Ev
FNDA:33,_ZNSt12_Vector_baseIN13geometry_msgs3msg12PoseStamped_ISaIvEEESaIS4_EED2Ev
FN:333,_ZNSt12_Vector_baseIhSaIhEED2Ev
FNDA:1425,_ZNSt12_Vector_baseIhSaIhEED2Ev
FN:333,_ZNSt12_Vector_baseIN6rclcpp13QosPolicyKindESaIS1_EED2Ev
FNDA:180,_ZNSt12_Vector_baseIN6rclcpp13QosPolicyKindESaIS1_EED2Ev
FN:333,_ZNSt12_Vector_baseINSt7__cxx1112basic_stringIcSt11char_traitsIcESaIcEEESaIS5_EED2Ev
FNDA:1631,_ZNSt12_Vector_baseINSt7__cxx1112basic_stringIcSt11char_traitsIcESaIcEEESaIS5_EED2Ev
FN:333,_ZNSt12_Vector_baseIN6rclcpp9ParameterESaIS1_EED2Ev
FNDA:21,_ZNSt12_Vector_baseIN6rclcpp9ParameterESaIS1_EED2Ev
FN:333,_ZNSt12_Vector_baseIlSaIlEED2Ev
FNDA:1425,_ZNSt12_Vector_baseIlSaIlEED2Ev
FN:333,_ZNSt12_Vector_baseIN13geometry_msgs3msg17TransformStamped_ISaIvEEESaIS4_EED2Ev
FNDA:7,_ZNSt12_Vector_baseIN13geometry_msgs3msg17TransformStamped_ISaIvEEESaIS4_EED2Ev
FN:333,_ZNSt12_Vector_baseIdSaIdEED2Ev
FNDA:1425,_ZNSt12_Vector_baseIdSaIdEED2Ev
FN:343,_ZNSt12_Vector_baseIlSaIlEE11_M_allocateEm
FNDA:80,_ZNSt12_Vector_baseIlSaIlEE11_M_allocateEm
FN:343,_ZNSt12_Vector_baseIN13geometry_msgs3msg17TransformStamped_ISaIvEEESaIS4_EE11_M_allocateEm
FNDA:7,_ZNSt12_Vector_baseIN13geometry_msgs3msg17TransformStamped_ISaIvEEESaIS4_EE11_M_allocateEm
FN:343,_ZNSt12_Vector_baseIPN7testing8internal30ParameterizedTestSuiteInfoBaseESaIS3_EE11_M_allocateEm
FNDA:1,_ZNSt12_Vector_baseIPN7testing8internal30ParameterizedTestSuiteInfoBaseESaIS3_EE11_M_allocateEm
FN:343,_ZNSt12_Vector_baseISt10shared_ptrIN7testing8internal26ParameterizedTestSuiteInfoI29CircleSegmentIntersectionTestE8TestInfoEESaIS7_EE11_M_allocateEm
FNDA:1,_ZNSt12_Vector_baseISt10shared_ptrIN7testing8internal26ParameterizedTestSuiteInfoI29CircleSegmentIntersectionTestE8TestInfoEESaIS7_EE11_M_allocateEm
FN:343,_ZNSt12_Vector_baseISt5tupleIJSt4pairIddES2_dS2_EESaIS3_EE11_M_allocateEm
FNDA:2,_ZNSt12_Vector_baseISt5tupleIJSt4pairIddES2_dS2_EESaIS3_EE11_M_allocateEm
FN:343,_ZNSt12_Vector_baseIdSaIdEE11_M_allocateEm
FNDA:80,_ZNSt12_Vector_baseIdSaIdEE11_M_allocateEm
FN:343,_ZNSt12_Vector_baseINSt7__cxx1112basic_stringIcSt11char_traitsIcESaIcEEESaIS5_EE11_M_allocateEm
FNDA:275,_ZNSt12_Vector_baseINSt7__cxx1112basic_stringIcSt11char_traitsIcESaIcEEESaIS5_EE11_M_allocateEm
FN:343,_ZNSt12_Vector_baseIhSaIhEE11_M_allocateEm
FNDA:80,_ZNSt12_Vector_baseIhSaIhEE11_M_allocateEm
FN:343,_ZNSt12_Vector_baseIN13geometry_msgs3msg12PoseStamped_ISaIvEEESaIS4_EE11_M_allocateEm
FNDA:59,_ZNSt12_Vector_baseIN13geometry_msgs3msg12PoseStamped_ISaIvEEESaIS4_EE11_M_allocateEm
FN:343,_ZNSt12_Vector_baseIN7testing8internal26ParameterizedTestSuiteInfoI29CircleSegmentIntersectionTestE17InstantiationInfoESaIS5_EE11_M_allocateEm
FNDA:1,_ZNSt12_Vector_baseIN7testing8internal26ParameterizedTestSuiteInfoI29CircleSegmentIntersectionTestE17InstantiationInfoESaIS5_EE11_M_allocateEm
FN:343,_ZNSt12_Vector_baseIN6rclcpp9ParameterESaIS1_EE11_M_allocateEm
FNDA:9,_ZNSt12_Vector_baseIN6rclcpp9ParameterESaIS1_EE11_M_allocateEm
FN:350,_ZNSt12_Vector_baseIPN7testing8internal30ParameterizedTestSuiteInfoBaseESaIS3_EE13_M_deallocateEPS3_m
FNDA:2,_ZNSt12_Vector_baseIPN7testing8internal30ParameterizedTestSuiteInfoBaseESaIS3_EE13_M_deallocateEPS3_m
FN:350,_ZNSt12_Vector_baseIN14rcl_interfaces3msg20SetParametersResult_ISaIvEEESaIS4_EE13_M_deallocateEPS4_m
FNDA:7,_ZNSt12_Vector_baseIN14rcl_interfaces3msg20SetParametersResult_ISaIvEEESaIS4_EE13_M_deallocateEPS4_m
FN:350,_ZNSt12_Vector_baseIN13geometry_msgs3msg12PoseStamped_ISaIvEEESaIS4_EE13_M_deallocateEPS4_m
FNDA:90,_ZNSt12_Vector_baseIN13geometry_msgs3msg12PoseStamped_ISaIvEEESaIS4_EE13_M_deallocateEPS4_m
FN:350,_ZNSt12_Vector_baseIN6rclcpp13QosPolicyKindESaIS1_EE13_M_deallocateEPS1_m
FNDA:180,_ZNSt12_Vector_baseIN6rclcpp13QosPolicyKindESaIS1_EE13_M_deallocateEPS1_m
FN:350,_ZNSt12_Vector_baseIN13geometry_msgs3msg17TransformStamped_ISaIvEEESaIS4_EE13_M_deallocateEPS4_m
FNDA:14,_ZNSt12_Vector_baseIN13geometry_msgs3msg17TransformStamped_ISaIvEEESaIS4_EE13_M_deallocateEPS4_m
FN:350,_ZNSt12_Vector_baseIN6rclcpp9ParameterESaIS1_EE13_M_deallocateEPS1_m
FNDA:21,_ZNSt12_Vector_baseIN6rclcpp9ParameterESaIS1_EE13_M_deallocateEPS1_m
FN:350,_ZNSt12_Vector_baseINSt7__cxx1112basic_stringIcSt11char_traitsIcESaIcEEESaIS5_EE13_M_deallocateEPS5_m
FNDA:1633,_ZNSt12_Vector_baseINSt7__cxx1112basic_stringIcSt11char_traitsIcESaIcEEESaIS5_EE13_M_deallocateEPS5_m
FN:350,_ZNSt12_Vector_baseIdSaIdEE13_M_deallocateEPdm
FNDA:1425,_ZNSt12_Vector_baseIdSaIdEE13_M_deallocateEPdm
FN:350,_ZNSt12_Vector_baseIlSaIlEE13_M_deallocateEPlm
FNDA:1425,_ZNSt12_Vector_baseIlSaIlEE13_M_deallocateEPlm
FN:350,_ZNSt12_Vector_baseIhSaIhEE13_M_deallocateEPhm
FNDA:1425,_ZNSt12_Vector_baseIhSaIhEE13_M_deallocateEPhm
FN:350,_ZNSt12_Vector_baseIN14rcl_interfaces3msg19FloatingPointRange_ISaIvEEESaIS4_EE13_M_deallocateEPS4_m
FNDA:414,_ZNSt12_Vector_baseIN14rcl_interfaces3msg19FloatingPointRange_ISaIvEEESaIS4_EE13_M_deallocateEPS4_m
FN:350,_ZNSt12_Vector_baseIN14rcl_interfaces3msg13IntegerRange_ISaIvEEESaIS4_EE13_M_deallocateEPS4_m
FNDA:414,_ZNSt12_Vector_baseIN14rcl_interfaces3msg13IntegerRange_ISaIvEEESaIS4_EE13_M_deallocateEPS4_m
FN:350,_ZNSt12_Vector_baseISt5tupleIJSt4pairIddES2_dS2_EESaIS3_EE13_M_deallocateEPS3_m
FNDA:2,_ZNSt12_Vector_baseISt5tupleIJSt4pairIddES2_dS2_EESaIS3_EE13_M_deallocateEPS3_m
FN:350,_ZNSt12_Vector_baseISt10shared_ptrIN7testing8internal26ParameterizedTestSuiteInfoI29CircleSegmentIntersectionTestE8TestInfoEESaIS7_EE13_M_deallocateEPS7_m
FNDA:2,_ZNSt12_Vector_baseISt10shared_ptrIN7testing8internal26ParameterizedTestSuiteInfoI29CircleSegmentIntersectionTestE8TestInfoEESaIS7_EE13_M_deallocateEPS7_m
FN:350,_ZNSt12_Vector_baseIN7testing8internal26ParameterizedTestSuiteInfoI29CircleSegmentIntersectionTestE17InstantiationInfoESaIS5_EE13_M_deallocateEPS5_m
FNDA:2,_ZNSt12_Vector_baseIN7testing8internal26ParameterizedTestSuiteInfoI29CircleSegmentIntersectionTestE17InstantiationInfoESaIS5_EE13_M_deallocateEPS5_m
FN:359,_ZNSt12_Vector_baseINSt7__cxx1112basic_stringIcSt11char_traitsIcESaIcEEESaIS5_EE17_M_create_storageEm
FNDA:82,_ZNSt12_Vector_baseINSt7__cxx1112basic_stringIcSt11char_traitsIcESaIcEEESaIS5_EE17_M_create_storageEm
FN:359,_ZNSt12_Vector_baseIN13geometry_msgs3msg12PoseStamped_ISaIvEEESaIS4_EE17_M_create_storageEm
FNDA:2,_ZNSt12_Vector_baseIN13geometry_msgs3msg12PoseStamped_ISaIvEEESaIS4_EE17_M_create_storageEm
FN:359,_ZNSt12_Vector_baseIdSaIdEE17_M_create_storageEm
FNDA:80,_ZNSt12_Vector_baseIdSaIdEE17_M_create_storageEm
FN:359,_ZNSt12_Vector_baseIhSaIhEE17_M_create_storageEm
FNDA:80,_ZNSt12_Vector_baseIhSaIhEE17_M_create_storageEm
FN:359,_ZNSt12_Vector_baseIlSaIlEE17_M_create_storageEm
FNDA:80,_ZNSt12_Vector_baseIlSaIlEE17_M_create_storageEm
FN:453,_ZNSt6vectorIPN7testing8internal30ParameterizedTestSuiteInfoBaseESaIS3_EE14_S_do_relocateEPS3_S6_S6_RS4_St17integral_constantIbLb1EE
FNDA:2,_ZNSt6vectorIPN7testing8internal30ParameterizedTestSuiteInfoBaseESaIS3_EE14_S_do_relocateEPS3_S6_S6_RS4_St17integral_constantIbLb1EE
FN:453,_ZNSt6vectorIN7testing8internal26ParameterizedTestSuiteInfoI29CircleSegmentIntersectionTestE17InstantiationInfoESaIS5_EE14_S_do_relocateEPS5_S8_S8_RS6_St17integral_constantIbLb1EE
FNDA:2,_ZNSt6vectorIN7testing8internal26ParameterizedTestSuiteInfoI29CircleSegmentIntersectionTestE17InstantiationInfoESaIS5_EE14_S_do_relocateEPS5_S8_S8_RS6_St17integral_constantIbLb1EE
FN:453,_ZNSt6vectorIN13geometry_msgs3msg12PoseStamped_ISaIvEEESaIS4_EE14_S_do_relocateEPS4_S7_S7_RS5_St17integral_constantIbLb1EE
FNDA:86,_ZNSt6vectorIN13geometry_msgs3msg12PoseStamped_ISaIvEEESaIS4_EE14_S_do_relocateEPS4_S7_S7_RS5_St17integral_constantIbLb1EE
FN:453,_ZNSt6vectorISt10shared_ptrIN7testing8internal26ParameterizedTestSuiteInfoI29CircleSegmentIntersectionTestE8TestInfoEESaIS7_EE14_S_do_relocateEPS7_SA_SA_RS8_St17integral_constantIbLb1EE
FNDA:2,_ZNSt6vectorISt10shared_ptrIN7testing8internal26ParameterizedTestSuiteInfoI29CircleSegmentIntersectionTestE8TestInfoEESaIS7_EE14_S_do_relocateEPS7_SA_SA_RS8_St17integral_constantIbLb1EE
FN:465,_ZNSt6vectorIN7testing8internal26ParameterizedTestSuiteInfoI29CircleSegmentIntersectionTestE17InstantiationInfoESaIS5_EE11_S_relocateEPS5_S8_S8_RS6_
FNDA:2,_ZNSt6vectorIN7testing8internal26ParameterizedTestSuiteInfoI29CircleSegmentIntersectionTestE17InstantiationInfoESaIS5_EE11_S_relocateEPS5_S8_S8_RS6_
FN:465,_ZNSt6vectorIN13geometry_msgs3msg12PoseStamped_ISaIvEEESaIS4_EE11_S_relocateEPS4_S7_S7_RS5_
FNDA:86,_ZNSt6vectorIN13geometry_msgs3msg12PoseStamped_ISaIvEEESaIS4_EE11_S_relocateEPS4_S7_S7_RS5_
FN:465,_ZNSt6vectorISt10shared_ptrIN7testing8internal26ParameterizedTestSuiteInfoI29CircleSegmentIntersectionTestE8TestInfoEESaIS7_EE11_S_relocateEPS7_SA_SA_RS8_
FNDA:2,_ZNSt6vectorISt10shared_ptrIN7testing8internal26ParameterizedTestSuiteInfoI29CircleSegmentIntersectionTestE8TestInfoEESaIS7_EE11_S_relocateEPS7_SA_SA_RS8_
FN:465,_ZNSt6vectorIPN7testing8internal30ParameterizedTestSuiteInfoBaseESaIS3_EE11_S_relocateEPS3_S6_S6_RS4_
FNDA:2,_ZNSt6vectorIPN7testing8internal30ParameterizedTestSuiteInfoBaseESaIS3_EE11_S_relocateEPS3_S6_S6_RS4_
FN:487,_ZNSt6vectorISt10shared_ptrIN7testing8internal26ParameterizedTestSuiteInfoI29CircleSegmentIntersectionTestE8TestInfoEESaIS7_EEC2Ev
FNDA:1,_ZNSt6vectorISt10shared_ptrIN7testing8internal26ParameterizedTestSuiteInfoI29CircleSegmentIntersectionTestE8TestInfoEESaIS7_EEC2Ev
FN:487,_ZNSt6vectorIN14rcl_interfaces3msg19FloatingPointRange_ISaIvEEESaIS4_EEC2Ev
FNDA:414,_ZNSt6vectorIN14rcl_interfaces3msg19FloatingPointRange_ISaIvEEESaIS4_EEC2Ev
FN:487,_ZNSt6vectorIN14rcl_interfaces3msg13IntegerRange_ISaIvEEESaIS4_EEC2Ev
FNDA:414,_ZNSt6vectorIN14rcl_interfaces3msg13IntegerRange_ISaIvEEESaIS4_EEC2Ev
FN:487,_ZNSt6vectorIN13geometry_msgs3msg12PoseStamped_ISaIvEEESaIS4_EEC2Ev
FNDA:31,_ZNSt6vectorIN13geometry_msgs3msg12PoseStamped_ISaIvEEESaIS4_EEC2Ev
FN:487,_ZNSt6vectorIN7testing8internal26ParameterizedTestSuiteInfoI29CircleSegmentIntersectionTestE17InstantiationInfoESaIS5_EEC2Ev
FNDA:1,_ZNSt6vectorIN7testing8internal26ParameterizedTestSuiteInfoI29CircleSegmentIntersectionTestE17InstantiationInfoESaIS5_EEC2Ev
FN:487,_ZNSt6vectorIN13geometry_msgs3msg17TransformStamped_ISaIvEEESaIS4_EEC2Ev
FNDA:7,_ZNSt6vectorIN13geometry_msgs3msg17TransformStamped_ISaIvEEESaIS4_EEC2Ev
FN:553,_ZNSt6vectorIhSaIhEEC2ERKS1_
FNDA:80,_ZNSt6vectorIhSaIhEEC2ERKS1_
FN:553,_ZNSt6vectorIlSaIlEEC2ERKS1_
FNDA:80,_ZNSt6vectorIlSaIlEEC2ERKS1_
FN:553,_ZNSt6vectorINSt7__cxx1112basic_stringIcSt11char_traitsIcESaIcEEESaIS5_EEC2ERKS7_
FNDA:82,_ZNSt6vectorINSt7__cxx1112basic_stringIcSt11char_traitsIcESaIcEEESaIS5_EEC2ERKS7_
FN:553,_ZNSt6vectorIN13geometry_msgs3msg12PoseStamped_ISaIvEEESaIS4_EEC2ERKS6_
FNDA:2,_ZNSt6vectorIN13geometry_msgs3msg12PoseStamped_ISaIvEEESaIS4_EEC2ERKS6_
FN:553,_ZNSt6vectorIdSaIdEEC2ERKS1_
FNDA:80,_ZNSt6vectorIdSaIdEEC2ERKS1_
FN:625,_ZNSt6vectorISt5tupleIJSt4pairIddES2_dS2_EESaIS3_EEC2ESt16initializer_listIS3_ERKS4_
FNDA:1,_ZNSt6vectorISt5tupleIJSt4pairIddES2_dS2_EESaIS3_EEC2ESt16initializer_listIS3_ERKS4_
FN:625,_ZNSt6vectorIN6rclcpp9ParameterESaIS1_EEC2ESt16initializer_listIS1_ERKS2_
FNDA:8,_ZNSt6vectorIN6rclcpp9ParameterESaIS1_EEC2ESt16initializer_listIS1_ERKS2_
FN:653,_ZNSt6vectorISt5tupleIJSt4pairIddES2_dS2_EESaIS3_EEC2IN9__gnu_cxx17__normal_iteratorIPKS3_S5_EEvEET_SC_RKS4_
FNDA:1,_ZNSt6vectorISt5tupleIJSt4pairIddES2_dS2_EESaIS3_EEC2IN9__gnu_cxx17__normal_iteratorIPKS3_S5_EEvEET_SC_RKS4_
FN:678,_ZNSt6vectorINSt7__cxx1112basic_stringIcSt11char_traitsIcESaIcEEESaIS5_EED2Ev
FNDA:1631,_ZNSt6vectorINSt7__cxx1112basic_stringIcSt11char_traitsIcESaIcEEESaIS5_EED2Ev
FN:678,_ZNSt6vectorIlSaIlEED2Ev
FNDA:1425,_ZNSt6vectorIlSaIlEED2Ev
FN:678,_ZNSt6vectorIhSaIhEED2Ev
FNDA:1425,_ZNSt6vectorIhSaIhEED2Ev
FN:678,_ZNSt6vectorIdSaIdEED2Ev
FNDA:1425,_ZNSt6vectorIdSaIdEED2Ev
FN:678,_ZNSt6vectorIN14rcl_interfaces3msg13IntegerRange_ISaIvEEESaIS4_EED2Ev
FNDA:414,_ZNSt6vectorIN14rcl_interfaces3msg13IntegerRange_ISaIvEEESaIS4_EED2Ev
FN:678,_ZNSt6vectorIN6rclcpp13QosPolicyKindESaIS1_EED2Ev
FNDA:180,_ZNSt6vectorIN6rclcpp13QosPolicyKindESaIS1_EED2Ev
FN:678,_ZNSt6vectorIN14rcl_interfaces3msg19FloatingPointRange_ISaIvEEESaIS4_EED2Ev
FNDA:414,_ZNSt6vectorIN14rcl_interfaces3msg19FloatingPointRange_ISaIvEEESaIS4_EED2Ev
FN:678,_ZNSt6vectorISt5tupleIJSt4pairIddES2_dS2_EESaIS3_EED2Ev
FNDA:2,_ZNSt6vectorISt5tupleIJSt4pairIddES2_dS2_EESaIS3_EED2Ev
FN:678,_ZNSt6vectorIN14rcl_interfaces3msg20SetParametersResult_ISaIvEEESaIS4_EED2Ev
FNDA:7,_ZNSt6vectorIN14rcl_interfaces3msg20SetParametersResult_ISaIvEEESaIS4_EED2Ev
FN:678,_ZNSt6vectorIN13geometry_msgs3msg12PoseStamped_ISaIvEEESaIS4_EED2Ev
FNDA:33,_ZNSt6vectorIN13geometry_msgs3msg12PoseStamped_ISaIvEEESaIS4_EED2Ev
FN:678,_ZNSt6vectorIN13geometry_msgs3msg17TransformStamped_ISaIvEEESaIS4_EED2Ev
FNDA:7,_ZNSt6vectorIN13geometry_msgs3msg17TransformStamped_ISaIvEEESaIS4_EED2Ev
FN:678,_ZNSt6vectorIN6rclcpp9ParameterESaIS1_EED2Ev
FNDA:21,_ZNSt6vectorIN6rclcpp9ParameterESaIS1_EED2Ev
FN:678,_ZNSt6vectorISt10shared_ptrIN7testing8internal26ParameterizedTestSuiteInfoI29CircleSegmentIntersectionTestE8TestInfoEESaIS7_EED2Ev
FNDA:1,_ZNSt6vectorISt10shared_ptrIN7testing8internal26ParameterizedTestSuiteInfoI29CircleSegmentIntersectionTestE8TestInfoEESaIS7_EED2Ev
FN:678,_ZNSt6vectorIN7testing8internal26ParameterizedTestSuiteInfoI29CircleSegmentIntersectionTestE17InstantiationInfoESaIS5_EED2Ev
FNDA:1,_ZNSt6vectorIN7testing8internal26ParameterizedTestSuiteInfoI29CircleSegmentIntersectionTestE17InstantiationInfoESaIS5_EED2Ev
FN:730,_ZNSt6vectorIN13geometry_msgs3msg17TransformStamped_ISaIvEEESaIS4_EEaSESt16initializer_listIS4_E
FNDA:7,_ZNSt6vectorIN13geometry_msgs3msg17TransformStamped_ISaIvEEESaIS4_EEaSESt16initializer_listIS4_E
FN:811,_ZNSt6vectorIPN7testing8internal30ParameterizedTestSuiteInfoBaseESaIS3_EE5beginEv
FNDA:5,_ZNSt6vectorIPN7testing8internal30ParameterizedTestSuiteInfoBaseESaIS3_EE5beginEv
FN:811,_ZNSt6vectorIN14rcl_interfaces3msg20SetParametersResult_ISaIvEEESaIS4_EE5beginEv
FNDA:7,_ZNSt6vectorIN14rcl_interfaces3msg20SetParametersResult_ISaIvEEESaIS4_EE5beginEv
FN:811,_ZNSt6vectorIN13geometry_msgs3msg17TransformStamped_ISaIvEEESaIS4_EE5beginEv
FNDA:7,_ZNSt6vectorIN13geometry_msgs3msg17TransformStamped_ISaIvEEESaIS4_EE5beginEv
FN:811,_ZNSt6vectorIN7testing8internal26ParameterizedTestSuiteInfoI29CircleSegmentIntersectionTestE17InstantiationInfoESaIS5_EE5beginEv
FNDA:2,_ZNSt6vectorIN7testing8internal26ParameterizedTestSuiteInfoI29CircleSegmentIntersectionTestE17InstantiationInfoESaIS5_EE5beginEv
FN:811,_ZNSt6vectorISt10shared_ptrIN7testing8internal26ParameterizedTestSuiteInfoI29CircleSegmentIntersectionTestE8TestInfoEESaIS7_EE5beginEv
FNDA:2,_ZNSt6vectorISt10shared_ptrIN7testing8internal26ParameterizedTestSuiteInfoI29CircleSegmentIntersectionTestE8TestInfoEESaIS7_EE5beginEv
FN:820,_ZNKSt6vectorINSt7__cxx1112basic_stringIcSt11char_traitsIcESaIcEEESaIS5_EE5beginEv
FNDA:273,_ZNKSt6vectorINSt7__cxx1112basic_stringIcSt11char_traitsIcESaIcEEESaIS5_EE5beginEv
FN:820,_ZNKSt6vectorIhSaIhEE5beginEv
FNDA:80,_ZNKSt6vectorIhSaIhEE5beginEv
FN:820,_ZNKSt6vectorIlSaIlEE5beginEv
FNDA:80,_ZNKSt6vectorIlSaIlEE5beginEv
FN:820,_ZNKSt6vectorIdSaIdEE5beginEv
FNDA:80,_ZNKSt6vectorIdSaIdEE5beginEv
FN:820,_ZNKSt6vectorISt5tupleIJSt4pairIddES2_dS2_EESaIS3_EE5beginEv
FNDA:2,_ZNKSt6vectorISt5tupleIJSt4pairIddES2_dS2_EESaIS3_EE5beginEv
FN:820,_ZNKSt6vectorIN13geometry_msgs3msg12PoseStamped_ISaIvEEESaIS4_EE5beginEv
FNDA:33,_ZNKSt6vectorIN13geometry_msgs3msg12PoseStamped_ISaIvEEESaIS4_EE5beginEv
FN:829,_ZNSt6vectorIN7testing8internal26ParameterizedTestSuiteInfoI29CircleSegmentIntersectionTestE17InstantiationInfoESaIS5_EE3endEv
FNDA:4,_ZNSt6vectorIN7testing8internal26ParameterizedTestSuiteInfoI29CircleSegmentIntersectionTestE17InstantiationInfoESaIS5_EE3endEv
FN:829,_ZNSt6vectorISt10shared_ptrIN7testing8internal26ParameterizedTestSuiteInfoI29CircleSegmentIntersectionTestE8TestInfoEESaIS7_EE3endEv
FNDA:4,_ZNSt6vectorISt10shared_ptrIN7testing8internal26ParameterizedTestSuiteInfoI29CircleSegmentIntersectionTestE8TestInfoEESaIS7_EE3endEv
FN:829,_ZNSt6vectorIPN7testing8internal30ParameterizedTestSuiteInfoBaseESaIS3_EE3endEv
FNDA:6,_ZNSt6vectorIPN7testing8internal30ParameterizedTestSuiteInfoBaseESaIS3_EE3endEv
FN:829,_ZNSt6vectorIN14rcl_interfaces3msg20SetParametersResult_ISaIvEEESaIS4_EE3endEv
FNDA:7,_ZNSt6vectorIN14rcl_interfaces3msg20SetParametersResult_ISaIvEEESaIS4_EE3endEv
FN:829,_ZNSt6vectorIN13geometry_msgs3msg17TransformStamped_ISaIvEEESaIS4_EE3endEv
FNDA:7,_ZNSt6vectorIN13geometry_msgs3msg17TransformStamped_ISaIvEEESaIS4_EE3endEv
FN:838,_ZNKSt6vectorINSt7__cxx1112basic_stringIcSt11char_traitsIcESaIcEEESaIS5_EE3endEv
FNDA:464,_ZNKSt6vectorINSt7__cxx1112basic_stringIcSt11char_traitsIcESaIcEEESaIS5_EE3endEv
FN:838,_ZNKSt6vectorIdSaIdEE3endEv
FNDA:80,_ZNKSt6vectorIdSaIdEE3endEv
FN:838,_ZNKSt6vectorIlSaIlEE3endEv
FNDA:80,_ZNKSt6vectorIlSaIlEE3endEv
FN:838,_ZNKSt6vectorISt5tupleIJSt4pairIddES2_dS2_EESaIS3_EE3endEv
FNDA:14,_ZNKSt6vectorISt5tupleIJSt4pairIddES2_dS2_EESaIS3_EE3endEv
FN:838,_ZNKSt6vectorIN13geometry_msgs3msg12PoseStamped_ISaIvEEESaIS4_EE3endEv
FNDA:36,_ZNKSt6vectorIN13geometry_msgs3msg12PoseStamped_ISaIvEEESaIS4_EE3endEv
FN:838,_ZNKSt6vectorIhSaIhEE3endEv
FNDA:80,_ZNKSt6vectorIhSaIhEE3endEv
FN:918,_ZNKSt6vectorISt10shared_ptrIN7testing8internal26ParameterizedTestSuiteInfoI29CircleSegmentIntersectionTestE8TestInfoEESaIS7_EE4sizeEv
FNDA:4,_ZNKSt6vectorISt10shared_ptrIN7testing8internal26ParameterizedTestSuiteInfoI29CircleSegmentIntersectionTestE8TestInfoEESaIS7_EE4sizeEv
FN:918,_ZNKSt6vectorIPN7testing8internal30ParameterizedTestSuiteInfoBaseESaIS3_EE4sizeEv
FNDA:4,_ZNKSt6vectorIPN7testing8internal30ParameterizedTestSuiteInfoBaseESaIS3_EE4sizeEv
FN:918,_ZNKSt6vectorINSt7__cxx1112basic_stringIcSt11char_traitsIcESaIcEEESaIS5_EE4sizeEv
FNDA:92,_ZNKSt6vectorINSt7__cxx1112basic_stringIcSt11char_traitsIcESaIcEEESaIS5_EE4sizeEv
FN:918,_ZNKSt6vectorIdSaIdEE4sizeEv
FNDA:80,_ZNKSt6vectorIdSaIdEE4sizeEv
FN:918,_ZNKSt6vectorIN7testing8internal26ParameterizedTestSuiteInfoI29CircleSegmentIntersectionTestE17InstantiationInfoESaIS5_EE4sizeEv
FNDA:4,_ZNKSt6vectorIN7testing8internal26ParameterizedTestSuiteInfoI29CircleSegmentIntersectionTestE17InstantiationInfoESaIS5_EE4sizeEv
FN:918,_ZNKSt6vectorIlSaIlEE4sizeEv
FNDA:80,_ZNKSt6vectorIlSaIlEE4sizeEv
FN:918,_ZNKSt6vectorIN13geometry_msgs3msg12PoseStamped_ISaIvEEESaIS4_EE4sizeEv
FNDA:350,_ZNKSt6vectorIN13geometry_msgs3msg12PoseStamped_ISaIvEEESaIS4_EE4sizeEv
FN:918,_ZNKSt6vectorIhSaIhEE4sizeEv
FNDA:80,_ZNKSt6vectorIhSaIhEE4sizeEv
FN:918,_ZNKSt6vectorIN13geometry_msgs3msg17TransformStamped_ISaIvEEESaIS4_EE4sizeEv
FNDA:0,_ZNKSt6vectorIN13geometry_msgs3msg17TransformStamped_ISaIvEEESaIS4_EE4sizeEv
FN:923,_ZNKSt6vectorIN7testing8internal26ParameterizedTestSuiteInfoI29CircleSegmentIntersectionTestE17InstantiationInfoESaIS5_EE8max_sizeEv
FNDA:2,_ZNKSt6vectorIN7testing8internal26ParameterizedTestSuiteInfoI29CircleSegmentIntersectionTestE17InstantiationInfoESaIS5_EE8max_sizeEv
FN:923,_ZNKSt6vectorIN13geometry_msgs3msg12PoseStamped_ISaIvEEESaIS4_EE8max_sizeEv
FNDA:96,_ZNKSt6vectorIN13geometry_msgs3msg12PoseStamped_ISaIvEEESaIS4_EE8max_sizeEv
FN:923,_ZNKSt6vectorIPN7testing8internal30ParameterizedTestSuiteInfoBaseESaIS3_EE8max_sizeEv
FNDA:2,_ZNKSt6vectorIPN7testing8internal30ParameterizedTestSuiteInfoBaseESaIS3_EE8max_sizeEv
FN:923,_ZNKSt6vectorISt10shared_ptrIN7testing8internal26ParameterizedTestSuiteInfoI29CircleSegmentIntersectionTestE8TestInfoEESaIS7_EE8max_sizeEv
FNDA:2,_ZNKSt6vectorISt10shared_ptrIN7testing8internal26ParameterizedTestSuiteInfoI29CircleSegmentIntersectionTestE8TestInfoEESaIS7_EE8max_sizeEv
FN:937,_ZNSt6vectorIN13geometry_msgs3msg12PoseStamped_ISaIvEEESaIS4_EE6resizeEm
FNDA:3,_ZNSt6vectorIN13geometry_msgs3msg12PoseStamped_ISaIvEEESaIS4_EE6resizeEm
FN:998,_ZNKSt6vectorIN13geometry_msgs3msg17TransformStamped_ISaIvEEESaIS4_EE8capacityEv
FNDA:7,_ZNKSt6vectorIN13geometry_msgs3msg17TransformStamped_ISaIvEEESaIS4_EE8capacityEv
FN:1043,_ZNSt6vectorIN13geometry_msgs3msg12PoseStamped_ISaIvEEESaIS4_EEixEm
FNDA:35,_ZNSt6vectorIN13geometry_msgs3msg12PoseStamped_ISaIvEEESaIS4_EEixEm
FN:1143,_ZNSt6vectorISt10shared_ptrIN7testing8internal26ParameterizedTestSuiteInfoI29CircleSegmentIntersectionTestE8TestInfoEESaIS7_EE4backEv
FNDA:1,_ZNSt6vectorISt10shared_ptrIN7testing8internal26ParameterizedTestSuiteInfoI29CircleSegmentIntersectionTestE8TestInfoEESaIS7_EE4backEv
FN:1143,_ZNSt6vectorIPN7testing8internal30ParameterizedTestSuiteInfoBaseESaIS3_EE4backEv
FNDA:1,_ZNSt6vectorIPN7testing8internal30ParameterizedTestSuiteInfoBaseESaIS3_EE4backEv
FN:1143,_ZNSt6vectorIN7testing8internal26ParameterizedTestSuiteInfoI29CircleSegmentIntersectionTestE17InstantiationInfoESaIS5_EE4backEv
FNDA:1,_ZNSt6vectorIN7testing8internal26ParameterizedTestSuiteInfoI29CircleSegmentIntersectionTestE17InstantiationInfoESaIS5_EE4backEv
FN:1203,_ZNSt6vectorIN7testing8internal26ParameterizedTestSuiteInfoI29CircleSegmentIntersectionTestE17InstantiationInfoESaIS5_EE9push_backEOS5_
FNDA:1,_ZNSt6vectorIN7testing8internal26ParameterizedTestSuiteInfoI29CircleSegmentIntersectionTestE17InstantiationInfoESaIS5_EE9push_backEOS5_
FN:1203,_ZNSt6vectorISt10shared_ptrIN7testing8internal26ParameterizedTestSuiteInfoI29CircleSegmentIntersectionTestE8TestInfoEESaIS7_EE9push_backEOS7_
FNDA:1,_ZNSt6vectorISt10shared_ptrIN7testing8internal26ParameterizedTestSuiteInfoI29CircleSegmentIntersectionTestE8TestInfoEESaIS7_EE9push_backEOS7_
FN:1203,_ZNSt6vectorIPN7testing8internal30ParameterizedTestSuiteInfoBaseESaIS3_EE9push_backEOS3_
FNDA:1,_ZNSt6vectorIPN7testing8internal30ParameterizedTestSuiteInfoBaseESaIS3_EE9push_backEOS3_
FN:1508,_ZNSt6vectorIN13geometry_msgs3msg17TransformStamped_ISaIvEEESaIS4_EE20_M_allocate_and_copyIPKS4_EEPS4_mT_SB_
FNDA:7,_ZNSt6vectorIN13geometry_msgs3msg17TransformStamped_ISaIvEEESaIS4_EE20_M_allocate_and_copyIPKS4_EEPS4_mT_SB_
FN:1577,_ZNSt6vectorISt5tupleIJSt4pairIddES2_dS2_EESaIS3_EE19_M_range_initializeIN9__gnu_cxx17__normal_iteratorIPKS3_S5_EEEEvT_SC_St20forward_iterator_tag
FNDA:1,_ZNSt6vectorISt5tupleIJSt4pairIddES2_dS2_EESaIS3_EE19_M_range_initializeIN9__gnu_cxx17__normal_iteratorIPKS3_S5_EEEEvT_SC_St20forward_iterator_tag
FN:1577,_ZNSt6vectorIN6rclcpp9ParameterESaIS1_EE19_M_range_initializeIPKS1_EEvT_S7_St20forward_iterator_tag
FNDA:8,_ZNSt6vectorIN6rclcpp9ParameterESaIS1_EE19_M_range_initializeIPKS1_EEvT_S7_St20forward_iterator_tag
FN:1577,_ZNSt6vectorISt5tupleIJSt4pairIddES2_dS2_EESaIS3_EE19_M_range_initializeIPKS3_EEvT_S9_St20forward_iterator_tag
FNDA:1,_ZNSt6vectorISt5tupleIJSt4pairIddES2_dS2_EESaIS3_EE19_M_range_initializeIPKS3_EEvT_S9_St20forward_iterator_tag
FN:1756,_ZNKSt6vectorIN7testing8internal26ParameterizedTestSuiteInfoI29CircleSegmentIntersectionTestE17InstantiationInfoESaIS5_EE12_M_check_lenEmPKc
FNDA:1,_ZNKSt6vectorIN7testing8internal26ParameterizedTestSuiteInfoI29CircleSegmentIntersectionTestE17InstantiationInfoESaIS5_EE12_M_check_lenEmPKc
FN:1756,_ZNKSt6vectorIN13geometry_msgs3msg12PoseStamped_ISaIvEEESaIS4_EE12_M_check_lenEmPKc
FNDA:40,_ZNKSt6vectorIN13geometry_msgs3msg12PoseStamped_ISaIvEEESaIS4_EE12_M_check_lenEmPKc
FN:1756,_ZNKSt6vectorISt10shared_ptrIN7testing8internal26ParameterizedTestSuiteInfoI29CircleSegmentIntersectionTestE8TestInfoEESaIS7_EE12_M_check_lenEmPKc
FNDA:1,_ZNKSt6vectorISt10shared_ptrIN7testing8internal26ParameterizedTestSuiteInfoI29CircleSegmentIntersectionTestE8TestInfoEESaIS7_EE12_M_check_lenEmPKc
FN:1756,_ZNKSt6vectorIPN7testing8internal30ParameterizedTestSuiteInfoBaseESaIS3_EE12_M_check_lenEmPKc
FNDA:1,_ZNKSt6vectorIPN7testing8internal30ParameterizedTestSuiteInfoBaseESaIS3_EE12_M_check_lenEmPKc
FN:1767,_ZNSt6vectorISt5tupleIJSt4pairIddES2_dS2_EESaIS3_EE17_S_check_init_lenEmRKS4_
FNDA:2,_ZNSt6vectorISt5tupleIJSt4pairIddES2_dS2_EESaIS3_EE17_S_check_init_lenEmRKS4_
FN:1767,_ZNSt6vectorIN6rclcpp9ParameterESaIS1_EE17_S_check_init_lenEmRKS2_
FNDA:8,_ZNSt6vectorIN6rclcpp9ParameterESaIS1_EE17_S_check_init_lenEmRKS2_
FN:1767,_ZNSt6vectorIN13geometry_msgs3msg17TransformStamped_ISaIvEEESaIS4_EE17_S_check_init_lenEmRKS5_
FNDA:7,_ZNSt6vectorIN13geometry_msgs3msg17TransformStamped_ISaIvEEESaIS4_EE17_S_check_init_lenEmRKS5_
FN:1776,_ZNSt6vectorIPN7testing8internal30ParameterizedTestSuiteInfoBaseESaIS3_EE11_S_max_sizeERKS4_
FNDA:2,_ZNSt6vectorIPN7testing8internal30ParameterizedTestSuiteInfoBaseESaIS3_EE11_S_max_sizeERKS4_
FN:1776,_ZNSt6vectorIN7testing8internal26ParameterizedTestSuiteInfoI29CircleSegmentIntersectionTestE17InstantiationInfoESaIS5_EE11_S_max_sizeERKS6_
FNDA:2,_ZNSt6vectorIN7testing8internal26ParameterizedTestSuiteInfoI29CircleSegmentIntersectionTestE17InstantiationInfoESaIS5_EE11_S_max_sizeERKS6_
FN:1776,_ZNSt6vectorISt10shared_ptrIN7testing8internal26ParameterizedTestSuiteInfoI29CircleSegmentIntersectionTestE8TestInfoEESaIS7_EE11_S_max_sizeERKS8_
FNDA:2,_ZNSt6vectorISt10shared_ptrIN7testing8internal26ParameterizedTestSuiteInfoI29CircleSegmentIntersectionTestE8TestInfoEESaIS7_EE11_S_max_sizeERKS8_
FN:1776,_ZNSt6vectorISt5tupleIJSt4pairIddES2_dS2_EESaIS3_EE11_S_max_sizeERKS4_
FNDA:2,_ZNSt6vectorISt5tupleIJSt4pairIddES2_dS2_EESaIS3_EE11_S_max_sizeERKS4_
FN:1776,_ZNSt6vectorIN13geometry_msgs3msg17TransformStamped_ISaIvEEESaIS4_EE11_S_max_sizeERKS5_
FNDA:7,_ZNSt6vectorIN13geometry_msgs3msg17TransformStamped_ISaIvEEESaIS4_EE11_S_max_sizeERKS5_
FN:1776,_ZNSt6vectorIN6rclcpp9ParameterESaIS1_EE11_S_max_sizeERKS2_
FNDA:8,_ZNSt6vectorIN6rclcpp9ParameterESaIS1_EE11_S_max_sizeERKS2_
FN:1776,_ZNSt6vectorIN13geometry_msgs3msg12PoseStamped_ISaIvEEESaIS4_EE11_S_max_sizeERKS5_
FNDA:96,_ZNSt6vectorIN13geometry_msgs3msg12PoseStamped_ISaIvEEESaIS4_EE11_S_max_sizeERKS5_
FN:1792,_ZNSt6vectorIN13geometry_msgs3msg17TransformStamped_ISaIvEEESaIS4_EE15_M_erase_at_endEPS4_
FNDA:0,_ZNSt6vectorIN13geometry_msgs3msg17TransformStamped_ISaIvEEESaIS4_EE15_M_erase_at_endEPS4_
FN:1792,_ZNSt6vectorIN13geometry_msgs3msg12PoseStamped_ISaIvEEESaIS4_EE15_M_erase_at_endEPS4_
FNDA:3,_ZNSt6vectorIN13geometry_msgs3msg12PoseStamped_ISaIvEEESaIS4_EE15_M_erase_at_endEPS4_
DA:97,2
DA:98,2
DA:99,2
DA:97,1
DA:98,1
DA:99,1
DA:97,1
DA:98,1
DA:99,1
DA:97,414
DA:98,414
DA:99,414
DA:97,414
DA:98,414
DA:99,414
DA:97,7
DA:98,7
DA:99,7
DA:97,33
DA:98,33
DA:99,33
DA:97,80
DA:98,80
DA:99,80
DA:97,80
DA:98,80
DA:99,80
DA:97,80
DA:98,80
DA:99,80
DA:97,9
DA:98,9
DA:99,9
DA:97,274
DA:98,274
DA:99,274
DA:131,1
DA:133,1
DA:134,1
DA:131,1
DA:133,1
DA:134,1
DA:131,414
DA:133,414
DA:134,414
DA:131,414
DA:133,414
DA:134,414
DA:131,7
DA:133,7
DA:134,7
DA:131,31
DA:133,31
DA:134,31
DA:136,2
DA:137,2
DA:138,2
DA:136,9
DA:137,9
DA:138,9
DA:136,2
DA:137,2
DA:138,2
DA:136,80
DA:137,80
DA:138,80
DA:136,80
DA:137,80
DA:138,80
DA:136,80
DA:137,80
DA:138,80
DA:136,273
DA:137,273
DA:138,273
DA:276,3
DA:277,3
DA:276,3
DA:277,3
DA:276,6
DA:277,6
DA:276,414
DA:277,414
DA:276,414
DA:277,414
DA:276,38
DA:277,38
DA:276,28
DA:277,28
DA:276,143
DA:277,143
DA:276,7
DA:277,7
DA:276,306
DA:277,306
DA:276,1505
DA:277,1505
DA:276,1505
DA:277,1505
DA:276,1505
DA:277,1505
DA:276,2099
DA:277,2099
DA:276,3
DA:277,3
DA:280,2
DA:281,2
DA:280,2
DA:281,2
DA:280,2
DA:281,2
DA:280,98
DA:281,98
DA:280,80
DA:281,80
DA:280,80
DA:281,80
DA:280,80
DA:281,80
DA:280,86
DA:281,86
DA:288,1
DA:288,1
DA:288,414
DA:288,414
DA:288,7
DA:288,31
DA:293,2
DA:294,2
DA:293,8
DA:294,8
DA:303,2
DA:304,2
DA:305,2
DA:303,80
DA:304,80
DA:305,80
DA:303,80
DA:304,80
DA:305,80
DA:303,80
DA:304,80
DA:305,80
DA:303,82
DA:304,82
DA:305,82
DA:333,2
DA:335,2
DA:336,2
DA:337,2
DA:333,1
DA:335,1
DA:336,1
DA:337,1
DA:333,1
DA:335,1
DA:336,1
DA:337,1
DA:333,414
DA:335,414
DA:336,414
DA:337,414
DA:333,414
DA:335,414
DA:336,414
DA:337,414
DA:333,7
DA:335,7
DA:336,7
DA:337,7
DA:333,33
DA:335,33
DA:336,33
DA:337,33
DA:333,7
DA:335,7
DA:336,7
DA:337,7
DA:333,180
DA:335,180
DA:336,180
DA:337,180
DA:333,21
DA:335,21
DA:336,21
DA:337,21
DA:333,1425
DA:335,1425
DA:336,1425
DA:337,1425
DA:333,1425
DA:335,1425
DA:336,1425
DA:337,1425
DA:333,1425
DA:335,1425
DA:336,1425
DA:337,1425
DA:333,1631
DA:335,1631
DA:336,1631
DA:337,1631
DA:343,1
DA:346,1
DA:343,2
DA:346,2
DA:343,1
DA:346,1
DA:343,1
DA:346,1
DA:343,7
DA:346,7
DA:343,80
DA:346,80
DA:343,80
DA:346,80
DA:343,80
DA:346,80
DA:343,9
DA:346,9
DA:343,59
DA:346,59
DA:343,275
DA:346,275
DA:350,2
DA:353,2
DA:354,2
DA:355,2
DA:350,2
DA:353,2
DA:354,1
DA:355,2
DA:350,2
DA:353,2
DA:354,1
DA:355,2
DA:350,414
DA:353,414
DA:354,0
DA:355,414
DA:350,414
DA:353,414
DA:354,0
DA:355,414
DA:350,14
DA:353,14
DA:354,7
DA:355,14
DA:350,90
DA:353,90
DA:354,59
DA:355,90
DA:350,7
DA:353,7
DA:354,7
DA:355,7
DA:350,180
DA:353,180
DA:354,0
DA:355,180
DA:350,21
DA:353,21
DA:354,9
DA:355,21
DA:350,1425
DA:353,1425
DA:354,0
DA:355,1425
DA:350,1425
DA:353,1425
DA:354,0
DA:355,1425
DA:350,1425
DA:353,1425
DA:354,0
DA:355,1425
DA:350,1633
DA:353,1633
DA:354,194
DA:355,1633
DA:350,2
DA:353,2
DA:354,1
DA:355,2
DA:359,2
DA:361,2
DA:362,2
DA:363,2
DA:364,2
DA:359,80
DA:361,80
DA:362,80
DA:363,80
DA:364,80
DA:359,80
DA:361,80
DA:362,80
DA:363,80
DA:364,80
DA:359,80
DA:361,80
DA:362,80
DA:363,80
DA:364,80
DA:359,82
DA:361,82
DA:362,82
DA:363,82
DA:364,82
DA:453,2
DA:456,2
DA:453,2
DA:456,2
DA:453,2
DA:456,2
DA:453,86
DA:456,86
DA:465,2
DA:469,2
DA:465,2
DA:469,2
DA:465,2
DA:469,2
DA:465,86
DA:469,86
DA:487,1
DA:487,1
DA:487,414
DA:487,414
DA:487,7
DA:487,31
DA:553,2
DA:555,2
DA:557,2
DA:558,2
DA:560,2
DA:561,2
DA:553,80
DA:555,80
DA:557,80
DA:558,80
DA:560,80
DA:561,80
DA:553,80
DA:555,80
DA:557,80
DA:558,80
DA:560,80
DA:561,80
DA:553,80
DA:555,80
DA:557,80
DA:558,80
DA:560,80
DA:561,80
DA:553,82
DA:555,82
DA:557,82
DA:558,82
DA:560,82
DA:561,82
DA:625,1
DA:627,1
DA:629,1
DA:630,1
DA:631,1
DA:625,8
DA:627,8
DA:629,8
DA:630,8
DA:631,8
DA:653,1
DA:655,1
DA:657,1
DA:658,1
DA:659,1
DA:678,1
DA:680,1
DA:681,1
DA:683,1
DA:678,1
DA:680,1
DA:681,1
DA:683,1
DA:678,2
DA:680,2
DA:681,2
DA:683,2
DA:678,414
DA:680,414
DA:681,414
DA:683,414
DA:678,414
DA:680,414
DA:681,414
DA:683,414
DA:678,21
DA:680,21
DA:681,21
DA:683,21
DA:678,7
DA:680,7
DA:681,7
DA:683,7
DA:678,33
DA:680,33
DA:681,33
DA:683,33
DA:678,7
DA:680,7
DA:681,7
DA:683,7
DA:678,180
DA:680,180
DA:681,180
DA:683,180
DA:678,1425
DA:680,1425
DA:681,1425
DA:683,1425
DA:678,1425
DA:680,1425
DA:681,1425
DA:683,1425
DA:678,1425
DA:680,1425
DA:681,1425
DA:683,1425
DA:678,1631
DA:680,1631
DA:681,1631
DA:683,1631
DA:730,7
DA:732,7
DA:733,7
DA:734,7
DA:811,2
DA:812,2
DA:811,2
DA:812,2
DA:811,7
DA:812,7
DA:811,7
DA:812,7
DA:811,5
DA:812,5
DA:820,2
DA:821,2
DA:820,33
DA:821,33
DA:820,80
DA:821,80
DA:820,80
DA:821,80
DA:820,80
DA:821,80
DA:820,273
DA:821,273
DA:829,4
DA:830,4
DA:829,4
DA:830,4
DA:829,7
DA:830,7
DA:829,7
DA:830,7
DA:829,6
DA:830,6
DA:838,14
DA:839,14
DA:838,36
DA:839,36
DA:838,80
DA:839,80
DA:838,80
DA:839,80
DA:838,80
DA:839,80
DA:838,464
DA:839,464
DA:918,4
DA:919,4
DA:918,4
DA:919,4
DA:918,4
DA:919,4
DA:918,0
DA:919,0
DA:918,350
DA:919,350
DA:918,80
DA:919,80
DA:918,80
DA:919,80
DA:918,80
DA:919,80
DA:918,92
DA:919,92
DA:923,2
DA:924,2
DA:923,2
DA:924,2
DA:923,2
DA:924,2
DA:923,96
DA:924,96
DA:937,3
DA:939,3
DA:940,3
DA:941,0
DA:942,0
DA:943,3
DA:998,7
DA:999,7
DA:1000,7
DA:1043,35
DA:1046,35
DA:1143,1
DA:1146,1
DA:1143,1
DA:1146,1
DA:1143,1
DA:1146,1
DA:1203,1
DA:1204,1
DA:1203,1
DA:1204,1
DA:1203,1
DA:1204,1
DA:1508,7
DA:1511,7
DA:1514,7
DA:1515,7
DA:1516,7
DA:1518,0
DA:1520,0
DA:1521,0
DA:1577,1
DA:1580,1
DA:1582,1
DA:1583,1
DA:1584,1
DA:1585,1
DA:1587,1
DA:1588,1
DA:1577,1
DA:1580,1
DA:1582,1
DA:1583,1
DA:1584,1
DA:1585,1
DA:1587,1
DA:1588,1
DA:1577,8
DA:1580,8
DA:1582,8
DA:1583,8
DA:1584,8
DA:1585,8
DA:1587,8
DA:1588,8
DA:1756,1
DA:1758,1
DA:1759,0
DA:1761,1
DA:1762,1
DA:1756,1
DA:1758,1
DA:1759,0
DA:1761,1
DA:1762,1
DA:1756,1
DA:1758,1
DA:1759,0
DA:1761,1
DA:1762,1
DA:1756,40
DA:1758,40
DA:1759,0
DA:1761,40
DA:1762,40
DA:1767,2
DA:1769,2
DA:1770,0
DA:1772,2
DA:1767,7
DA:1769,7
DA:1770,0
DA:1772,7
DA:1767,8
DA:1769,8
DA:1770,0
DA:1772,8
DA:1776,2
DA:1781,2
DA:1783,2
DA:1784,2
DA:1776,2
DA:1781,2
DA:1783,2
DA:1784,2
DA:1776,2
DA:1781,2
DA:1783,2
DA:1784,2
DA:1776,2
DA:1781,2
DA:1783,2
DA:1784,2
DA:1776,7
DA:1781,7
DA:1783,7
DA:1784,7
DA:1776,8
DA:1781,8
DA:1783,8
DA:1784,8
DA:1776,96
DA:1781,96
DA:1783,96
DA:1784,96
DA:1792,0
DA:1794,0
DA:1796,0
DA:1797,0
DA:1798,0
DA:1801,0
DA:1792,3
DA:1794,3
DA:1796,3
DA:1797,3
DA:1798,3
DA:1801,3
end_of_record
SF:/usr/include/c++/11/iomanip
FN:195,_ZSt12setprecisioni
FNDA:345,_ZSt12setprecisioni
DA:195,345
DA:196,345
end_of_record
SF:/opt/ros/humble/include/rclcpp/rclcpp/executor.hpp
FN:334,_ZN6rclcpp8Executor26spin_until_future_completeISt13shared_futureIN14rcl_interfaces3msg20SetParametersResult_ISaIvEEEElSt5ratioILl1ELl1000EEEENS_16FutureReturnCodeERKT_NSt6chrono8durationIT0_T1_EE
FNDA:1,_ZN6rclcpp8Executor26spin_until_future_completeISt13shared_futureIN14rcl_interfaces3msg20SetParametersResult_ISaIvEEEElSt5ratioILl1ELl1000EEEENS_16FutureReturnCodeERKT_NSt6chrono8durationIT0_T1_EE
FN:359,_ZZN6rclcpp8Executor26spin_until_future_completeISt13shared_futureIN14rcl_interfaces3msg20SetParametersResult_ISaIvEEEElSt5ratioILl1ELl1000EEEENS_16FutureReturnCodeERKT_NSt6chrono8durationIT0_T1_EEENKUlvE_clEv
FNDA:1,_ZZN6rclcpp8Executor26spin_until_future_completeISt13shared_futureIN14rcl_interfaces3msg20SetParametersResult_ISaIvEEEElSt5ratioILl1ELl1000EEEENS_16FutureReturnCodeERKT_NSt6chrono8durationIT0_T1_EEENKUlvE_clEv
DA:334,1
DA:343,1
DA:344,1
DA:345,0
DA:348,1
DA:349,1
DA:351,1
DA:352,0
DA:354,1
DA:356,1
DA:357,0
DA:359,2
DA:360,4
DA:362,4
DA:365,4
DA:366,4
DA:367,1
DA:370,3
DA:371,3
DA:374,0
DA:375,0
DA:376,0
DA:379,0
DA:383,0
DA:384,1
end_of_record
SF:/opt/ros/humble/include/nav2_util/node_utils.hpp
FN:92,_ZN9nav2_util33declare_parameter_if_not_declaredISt10shared_ptrIN16rclcpp_lifecycle13LifecycleNodeEEEEvT_RKNSt7__cxx1112basic_stringIcSt11char_traitsIcESaIcEEERKN6rclcpp14ParameterValueERKN14rcl_interfaces3msg20ParameterDescriptor_ISaIvEEE
FNDA:414,_ZN9nav2_util33declare_parameter_if_not_declaredISt10shared_ptrIN16rclcpp_lifecycle13LifecycleNodeEEEEvT_RKNSt7__cxx1112basic_stringIcSt11char_traitsIcESaIcEEERKN6rclcpp14ParameterValueERKN14rcl_interfaces3msg20ParameterDescriptor_ISaIvEEE
DA:92,414
DA:99,414
DA:100,336
DA:102,414
end_of_record
SF:/opt/ros/humble/include/tf2/tf2/buffer_core.h
FN:229,_ZN3tf210BufferCore23setUsingDedicatedThreadEb
FNDA:7,_ZN3tf210BufferCore23setUsingDedicatedThreadEb
DA:229,7
end_of_record
SF:/usr/include/c++/11/bits/stl_algobase.h
FN:230,_ZSt3minImERKT_S2_S2_
FNDA:386,_ZSt3minImERKT_S2_S2_
FN:254,_ZSt3maxImERKT_S2_S2_
FNDA:81,_ZSt3maxImERKT_S2_S2_
FN:313,_ZSt12__niter_baseIPN7testing8internal26ParameterizedTestSuiteInfoI29CircleSegmentIntersectionTestE17InstantiationInfoEET_S7_
FNDA:6,_ZSt12__niter_baseIPN7testing8internal26ParameterizedTestSuiteInfoI29CircleSegmentIntersectionTestE17InstantiationInfoEET_S7_
FN:313,_ZSt12__niter_baseIPhET_S1_
FNDA:80,_ZSt12__niter_baseIPhET_S1_
FN:313,_ZSt12__niter_baseIPmET_S1_
FNDA:240,_ZSt12__niter_baseIPmET_S1_
FN:313,_ZSt12__niter_baseISt19_Bit_const_iteratorET_S1_
FNDA:160,_ZSt12__niter_baseISt19_Bit_const_iteratorET_S1_
FN:313,_ZSt12__niter_baseISt13_Bit_iteratorET_S1_
FNDA:80,_ZSt12__niter_baseISt13_Bit_iteratorET_S1_
FN:313,_ZSt12__niter_baseIPdET_S1_
FNDA:80,_ZSt12__niter_baseIPdET_S1_
FN:313,_ZSt12__niter_baseIPKN13geometry_msgs3msg17TransformStamped_ISaIvEEEET_S7_
FNDA:0,_ZSt12__niter_baseIPKN13geometry_msgs3msg17TransformStamped_ISaIvEEEET_S7_
FN:313,_ZSt12__niter_baseIPN13geometry_msgs3msg17TransformStamped_ISaIvEEEET_S6_
FNDA:0,_ZSt12__niter_baseIPN13geometry_msgs3msg17TransformStamped_ISaIvEEEET_S6_
FN:313,_ZSt12__niter_baseIPN13geometry_msgs3msg12PoseStamped_ISaIvEEEET_S6_
FNDA:258,_ZSt12__niter_baseIPN13geometry_msgs3msg12PoseStamped_ISaIvEEEET_S6_
FN:313,_ZSt12__niter_baseIPSt10shared_ptrIN7testing8internal26ParameterizedTestSuiteInfoI29CircleSegmentIntersectionTestE8TestInfoEEET_S9_
FNDA:6,_ZSt12__niter_baseIPSt10shared_ptrIN7testing8internal26ParameterizedTestSuiteInfoI29CircleSegmentIntersectionTestE8TestInfoEEET_S9_
FN:313,_ZSt12__niter_baseIPPN7testing8internal30ParameterizedTestSuiteInfoBaseEET_S5_
FNDA:6,_ZSt12__niter_baseIPPN7testing8internal30ParameterizedTestSuiteInfoBaseEET_S5_
FN:313,_ZSt12__niter_baseIPlET_S1_
FNDA:80,_ZSt12__niter_baseIPlET_S1_
FN:335,_ZSt12__niter_wrapIPN13geometry_msgs3msg17TransformStamped_ISaIvEEEET_RKS6_S6_
FNDA:0,_ZSt12__niter_wrapIPN13geometry_msgs3msg17TransformStamped_ISaIvEEEET_RKS6_S6_
FN:335,_ZSt12__niter_wrapISt13_Bit_iteratorET_RKS1_S1_
FNDA:80,_ZSt12__niter_wrapISt13_Bit_iteratorET_RKS1_S1_
FN:335,_ZSt12__niter_wrapIPlET_RKS1_S1_
FNDA:80,_ZSt12__niter_wrapIPlET_RKS1_S1_
FN:335,_ZSt12__niter_wrapIPdET_RKS1_S1_
FNDA:80,_ZSt12__niter_wrapIPdET_RKS1_S1_
FN:335,_ZSt12__niter_wrapIPmET_RKS1_S1_
FNDA:80,_ZSt12__niter_wrapIPmET_RKS1_S1_
FN:335,_ZSt12__niter_wrapIPhET_RKS1_S1_
FNDA:80,_ZSt12__niter_wrapIPhET_RKS1_S1_
FN:380,_ZNSt11__copy_moveILb0ELb0ESt26random_access_iterator_tagE8__copy_mIPKN13geometry_msgs3msg17TransformStamped_ISaIvEEEPS7_EET0_T_SC_SB_
FNDA:0,_ZNSt11__copy_moveILb0ELb0ESt26random_access_iterator_tagE8__copy_mIPKN13geometry_msgs3msg17TransformStamped_ISaIvEEEPS7_EET0_T_SC_SB_
FN:380,_ZNSt11__copy_moveILb0ELb0ESt26random_access_iterator_tagE8__copy_mISt19_Bit_const_iteratorSt13_Bit_iteratorEET0_T_S6_S5_
FNDA:80,_ZNSt11__copy_moveILb0ELb0ESt26random_access_iterator_tagE8__copy_mISt19_Bit_const_iteratorSt13_Bit_iteratorEET0_T_S6_S5_
FN:420,_ZNSt11__copy_moveILb0ELb1ESt26random_access_iterator_tagE8__copy_mIhEEPT_PKS3_S6_S4_
FNDA:80,_ZNSt11__copy_moveILb0ELb1ESt26random_access_iterator_tagE8__copy_mIhEEPT_PKS3_S6_S4_
FN:420,_ZNSt11__copy_moveILb0ELb1ESt26random_access_iterator_tagE8__copy_mIlEEPT_PKS3_S6_S4_
FNDA:80,_ZNSt11__copy_moveILb0ELb1ESt26random_access_iterator_tagE8__copy_mIlEEPT_PKS3_S6_S4_
FN:420,_ZNSt11__copy_moveILb0ELb1ESt26random_access_iterator_tagE8__copy_mIdEEPT_PKS3_S6_S4_
FNDA:80,_ZNSt11__copy_moveILb0ELb1ESt26random_access_iterator_tagE8__copy_mIdEEPT_PKS3_S6_S4_
FN:420,_ZNSt11__copy_moveILb0ELb1ESt26random_access_iterator_tagE8__copy_mImEEPT_PKS3_S6_S4_
FNDA:80,_ZNSt11__copy_moveILb0ELb1ESt26random_access_iterator_tagE8__copy_mImEEPT_PKS3_S6_S4_
FN:486,_ZSt14__copy_move_a2ILb0EPKN13geometry_msgs3msg17TransformStamped_ISaIvEEEPS4_ET1_T0_S9_S8_
FNDA:0,_ZSt14__copy_move_a2ILb0EPKN13geometry_msgs3msg17TransformStamped_ISaIvEEEPS4_ET1_T0_S9_S8_
FN:486,_ZSt14__copy_move_a2ILb0EPKlPlET1_T0_S4_S3_
FNDA:80,_ZSt14__copy_move_a2ILb0EPKlPlET1_T0_S4_S3_
FN:486,_ZSt14__copy_move_a2ILb0EPKhPhET1_T0_S4_S3_
FNDA:80,_ZSt14__copy_move_a2ILb0EPKhPhET1_T0_S4_S3_
FN:486,_ZSt14__copy_move_a2ILb0EPKdPdET1_T0_S4_S3_
FNDA:80,_ZSt14__copy_move_a2ILb0EPKdPdET1_T0_S4_S3_
FN:486,_ZSt14__copy_move_a2ILb0ESt19_Bit_const_iteratorSt13_Bit_iteratorET1_T0_S3_S2_
FNDA:80,_ZSt14__copy_move_a2ILb0ESt19_Bit_const_iteratorSt13_Bit_iteratorET1_T0_S3_S2_
FN:486,_ZSt14__copy_move_a2ILb0EPmS0_ET1_T0_S2_S1_
FNDA:80,_ZSt14__copy_move_a2ILb0EPmS0_ET1_T0_S2_S1_
FN:521,_ZSt14__copy_move_a1ILb0ESt19_Bit_const_iteratorSt13_Bit_iteratorET1_T0_S3_S2_
FNDA:80,_ZSt14__copy_move_a1ILb0ESt19_Bit_const_iteratorSt13_Bit_iteratorET1_T0_S3_S2_
FN:521,_ZSt14__copy_move_a1ILb0EPKhPhET1_T0_S4_S3_
FNDA:80,_ZSt14__copy_move_a1ILb0EPKhPhET1_T0_S4_S3_
FN:521,_ZSt14__copy_move_a1ILb0EPKN13geometry_msgs3msg17TransformStamped_ISaIvEEEPS4_ET1_T0_S9_S8_
FNDA:0,_ZSt14__copy_move_a1ILb0EPKN13geometry_msgs3msg17TransformStamped_ISaIvEEEPS4_ET1_T0_S9_S8_
FN:521,_ZSt14__copy_move_a1ILb0EPmS0_ET1_T0_S2_S1_
FNDA:80,_ZSt14__copy_move_a1ILb0EPmS0_ET1_T0_S2_S1_
FN:521,_ZSt14__copy_move_a1ILb0EPKlPlET1_T0_S4_S3_
FNDA:80,_ZSt14__copy_move_a1ILb0EPKlPlET1_T0_S4_S3_
FN:521,_ZSt14__copy_move_a1ILb0EPKdPdET1_T0_S4_S3_
FNDA:80,_ZSt14__copy_move_a1ILb0EPKdPdET1_T0_S4_S3_
FN:527,_ZSt13__copy_move_aILb0EN9__gnu_cxx17__normal_iteratorIPKhSt6vectorIhSaIhEEEEPhET1_T0_SA_S9_
FNDA:80,_ZSt13__copy_move_aILb0EN9__gnu_cxx17__normal_iteratorIPKhSt6vectorIhSaIhEEEEPhET1_T0_SA_S9_
FN:527,_ZSt13__copy_move_aILb0EPKN13geometry_msgs3msg17TransformStamped_ISaIvEEEPS4_ET1_T0_S9_S8_
FNDA:0,_ZSt13__copy_move_aILb0EPKN13geometry_msgs3msg17TransformStamped_ISaIvEEEPS4_ET1_T0_S9_S8_
FN:527,_ZSt13__copy_move_aILb0ESt19_Bit_const_iteratorSt13_Bit_iteratorET1_T0_S3_S2_
FNDA:80,_ZSt13__copy_move_aILb0ESt19_Bit_const_iteratorSt13_Bit_iteratorET1_T0_S3_S2_
FN:527,_ZSt13__copy_move_aILb0EPmS0_ET1_T0_S2_S1_
FNDA:80,_ZSt13__copy_move_aILb0EPmS0_ET1_T0_S2_S1_
FN:527,_ZSt13__copy_move_aILb0EN9__gnu_cxx17__normal_iteratorIPKlSt6vectorIlSaIlEEEEPlET1_T0_SA_S9_
FNDA:80,_ZSt13__copy_move_aILb0EN9__gnu_cxx17__normal_iteratorIPKlSt6vectorIlSaIlEEEEPlET1_T0_SA_S9_
FN:527,_ZSt13__copy_move_aILb0EN9__gnu_cxx17__normal_iteratorIPKdSt6vectorIdSaIdEEEEPdET1_T0_SA_S9_
FNDA:80,_ZSt13__copy_move_aILb0EN9__gnu_cxx17__normal_iteratorIPKdSt6vectorIdSaIdEEEEPdET1_T0_SA_S9_
FN:611,_ZSt4copyIN9__gnu_cxx17__normal_iteratorIPKhSt6vectorIhSaIhEEEEPhET0_T_SA_S9_
FNDA:80,_ZSt4copyIN9__gnu_cxx17__normal_iteratorIPKhSt6vectorIhSaIhEEEEPhET0_T_SA_S9_
FN:611,_ZSt4copyIPKN13geometry_msgs3msg17TransformStamped_ISaIvEEEPS4_ET0_T_S9_S8_
FNDA:0,_ZSt4copyIPKN13geometry_msgs3msg17TransformStamped_ISaIvEEEPS4_ET0_T_S9_S8_
FN:611,_ZSt4copyISt19_Bit_const_iteratorSt13_Bit_iteratorET0_T_S3_S2_
FNDA:80,_ZSt4copyISt19_Bit_const_iteratorSt13_Bit_iteratorET0_T_S3_S2_
FN:611,_ZSt4copyIPmS0_ET0_T_S2_S1_
FNDA:80,_ZSt4copyIPmS0_ET0_T_S2_S1_
FN:611,_ZSt4copyIN9__gnu_cxx17__normal_iteratorIPKdSt6vectorIdSaIdEEEEPdET0_T_SA_S9_
FNDA:80,_ZSt4copyIN9__gnu_cxx17__normal_iteratorIPKdSt6vectorIdSaIdEEEEPdET0_T_SA_S9_
FN:611,_ZSt4copyIN9__gnu_cxx17__normal_iteratorIPKlSt6vectorIlSaIlEEEEPlET0_T_SA_S9_
FNDA:80,_ZSt4copyIN9__gnu_cxx17__normal_iteratorIPKlSt6vectorIlSaIlEEEEPlET0_T_SA_S9_
DA:230,386
DA:235,386
DA:236,0
DA:237,386
DA:254,81
DA:259,81
DA:260,32
DA:261,49
DA:313,6
DA:315,6
DA:313,6
DA:315,6
DA:313,6
DA:315,6
DA:313,80
DA:315,80
DA:313,258
DA:315,258
DA:313,0
DA:315,0
DA:313,0
DA:315,0
DA:313,80
DA:315,80
DA:313,80
DA:315,80
DA:313,160
DA:315,160
DA:313,240
DA:315,240
DA:313,80
DA:315,80
DA:335,80
DA:336,80
DA:335,0
DA:336,0
DA:335,80
DA:336,80
DA:335,80
DA:336,80
DA:335,80
DA:336,80
DA:335,80
DA:336,80
DA:380,0
DA:383,0
DA:385,0
DA:386,0
DA:387,0
DA:389,0
DA:380,80
DA:383,80
DA:385,0
DA:386,0
DA:387,0
DA:389,80
DA:420,80
DA:429,80
DA:430,80
DA:431,0
DA:432,80
DA:420,80
DA:429,80
DA:430,80
DA:431,0
DA:432,80
DA:420,80
DA:429,80
DA:430,80
DA:431,0
DA:432,80
DA:420,80
DA:429,80
DA:430,80
DA:431,0
DA:432,80
DA:486,80
DA:495,80
DA:486,0
DA:495,0
DA:486,80
DA:495,80
DA:486,80
DA:495,80
DA:486,80
DA:495,80
DA:486,80
DA:495,80
DA:521,80
DA:522,80
DA:521,0
DA:522,0
DA:521,80
DA:522,80
DA:521,80
DA:522,80
DA:521,80
DA:522,80
DA:521,80
DA:522,80
DA:527,80
DA:529,80
DA:532,80
DA:527,80
DA:529,80
DA:532,80
DA:527,80
DA:529,80
DA:532,80
DA:527,0
DA:529,0
DA:532,0
DA:527,80
DA:529,80
DA:532,80
DA:527,80
DA:529,80
DA:532,80
DA:611,80
DA:620,80
DA:611,80
DA:620,80
DA:611,80
DA:620,80
DA:611,0
DA:620,0
DA:611,80
DA:620,80
DA:611,80
DA:620,80
end_of_record
SF:/opt/ros/humble/include/rclcpp/rclcpp/parameter.hpp
FN:69,_ZN6rclcpp9ParameterC2ItEERKNSt7__cxx1112basic_stringIcSt11char_traitsIcESaIcEEET_
FNDA:14,_ZN6rclcpp9ParameterC2ItEERKNSt7__cxx1112basic_stringIcSt11char_traitsIcESaIcEEET_
FN:69,_ZN6rclcpp9ParameterC2IPKcEERKNSt7__cxx1112basic_stringIcSt11char_traitsIcESaIcEEET_
FNDA:14,_ZN6rclcpp9ParameterC2IPKcEERKNSt7__cxx1112basic_stringIcSt11char_traitsIcESaIcEEET_
FN:69,_ZN6rclcpp9ParameterC2IbEERKNSt7__cxx1112basic_stringIcSt11char_traitsIcESaIcEEET_
FNDA:101,_ZN6rclcpp9ParameterC2IbEERKNSt7__cxx1112basic_stringIcSt11char_traitsIcESaIcEEET_
FN:69,_ZN6rclcpp9ParameterC2IdEERKNSt7__cxx1112basic_stringIcSt11char_traitsIcESaIcEEET_
FNDA:327,_ZN6rclcpp9ParameterC2IdEERKNSt7__cxx1112basic_stringIcSt11char_traitsIcESaIcEEET_
DA:69,14
DA:70,14
DA:71,14
DA:69,14
DA:70,14
DA:71,14
DA:69,101
DA:70,101
DA:71,101
DA:69,327
DA:70,327
DA:71,327
end_of_record
SF:/usr/include/c++/11/bits/unique_ptr.h
FN:75,_ZNSt14default_deleteIN10path_utils11PathSegmentEEC2INS0_8StraightEvEERKS_IT_E
FNDA:5,_ZNSt14default_deleteIN10path_utils11PathSegmentEEC2INS0_8StraightEvEERKS_IT_E
FN:75,_ZNSt14default_deleteIN10path_utils11PathSegmentEEC2INS0_10LeftCircleEvEERKS_IT_E
FNDA:4,_ZNSt14default_deleteIN10path_utils11PathSegmentEEC2INS0_10LeftCircleEvEERKS_IT_E
FN:75,_ZNSt14default_deleteIN10path_utils11PathSegmentEEC2INS0_14LeftTurnAroundEvEERKS_IT_E
FNDA:1,_ZNSt14default_deleteIN10path_utils11PathSegmentEEC2INS0_14LeftTurnAroundEvEERKS_IT_E
FN:79,_ZNKSt14default_deleteIN10path_utils8StraightEEclEPS1_
FNDA:0,_ZNKSt14default_deleteIN10path_utils8StraightEEclEPS1_
FN:79,_ZNKSt14default_deleteIN10path_utils14LeftTurnAroundEEclEPS1_
FNDA:0,_ZNKSt14default_deleteIN10path_utils14LeftTurnAroundEEclEPS1_
FN:79,_ZNKSt14default_deleteINSt7__cxx1118basic_stringstreamIcSt11char_traitsIcESaIcEEEEclEPS5_
FNDA:345,_ZNKSt14default_deleteINSt7__cxx1118basic_stringstreamIcSt11char_traitsIcESaIcEEEEclEPS5_
FN:79,_ZNKSt14default_deleteIN7testing8internal19TestMetaFactoryBaseISt5tupleIJSt4pairIddES5_dS5_EEEEEclEPS7_
FNDA:1,_ZNKSt14default_deleteIN7testing8internal19TestMetaFactoryBaseISt5tupleIJSt4pairIddES5_dS5_EEEEEclEPS7_
FN:79,_ZNKSt14default_deleteIN10path_utils10LeftCircleEEclEPS1_
FNDA:0,_ZNKSt14default_deleteIN10path_utils10LeftCircleEEclEPS1_
FN:79,_ZNKSt14default_deleteINSt7__cxx1112basic_stringIcSt11char_traitsIcESaIcEEEEclEPS5_
FNDA:0,_ZNKSt14default_deleteINSt7__cxx1112basic_stringIcSt11char_traitsIcESaIcEEEEclEPS5_
FN:79,_ZNKSt14default_deleteIN25vector_pursuit_controller23VectorPursuitControllerEEclEPS1_
FNDA:1,_ZNKSt14default_deleteIN25vector_pursuit_controller23VectorPursuitControllerEEclEPS1_
FN:79,_ZNKSt14default_deleteIN7testing8internal22ParamIteratorInterfaceISt5tupleIJSt4pairIddES5_dS5_EEEEEclEPS7_
FNDA:14,_ZNKSt14default_deleteIN7testing8internal22ParamIteratorInterfaceISt5tupleIJSt4pairIddES5_dS5_EEEEEclEPS7_
FN:79,_ZNKSt14default_deleteIN15nav2_costmap_2d25FootprintCollisionCheckerIPNS0_9Costmap2DEEEEclEPS4_
FNDA:14,_ZNKSt14default_deleteIN15nav2_costmap_2d25FootprintCollisionCheckerIPNS0_9Costmap2DEEEEclEPS4_
FN:79,_ZNKSt14default_deleteIN10path_utils11PathSegmentEEclEPS1_
FNDA:10,_ZNKSt14default_deleteIN10path_utils11PathSegmentEEclEPS1_
FN:79,_ZNKSt14default_deleteIKSt5tupleIJSt4pairIddES2_dS2_EEEclEPS4_
FNDA:12,_ZNKSt14default_deleteIKSt5tupleIJSt4pairIddES2_dS2_EEEclEPS4_
FN:154,_ZNSt15__uniq_ptr_implINSt7__cxx1112basic_stringIcSt11char_traitsIcESaIcEEESt14default_deleteIS5_EEC2Ev
FNDA:134,_ZNSt15__uniq_ptr_implINSt7__cxx1112basic_stringIcSt11char_traitsIcESaIcEEESt14default_deleteIS5_EEC2Ev
FN:154,_ZNSt15__uniq_ptr_implIN15nav2_costmap_2d25FootprintCollisionCheckerIPNS0_9Costmap2DEEESt14default_deleteIS4_EEC2Ev
FNDA:12,_ZNSt15__uniq_ptr_implIN15nav2_costmap_2d25FootprintCollisionCheckerIPNS0_9Costmap2DEEESt14default_deleteIS4_EEC2Ev
FN:154,_ZNSt15__uniq_ptr_implIKSt5tupleIJSt4pairIddES2_dS2_EESt14default_deleteIS4_EEC2Ev
FNDA:14,_ZNSt15__uniq_ptr_implIKSt5tupleIJSt4pairIddES2_dS2_EESt14default_deleteIS4_EEC2Ev
FN:155,_ZNSt15__uniq_ptr_implIN25vector_pursuit_controller23VectorPursuitControllerESt14default_deleteIS1_EEC2EPS1_
FNDA:1,_ZNSt15__uniq_ptr_implIN25vector_pursuit_controller23VectorPursuitControllerESt14default_deleteIS1_EEC2EPS1_
FN:155,_ZNSt15__uniq_ptr_implIN10path_utils10LeftCircleESt14default_deleteIS1_EEC2EPS1_
FNDA:4,_ZNSt15__uniq_ptr_implIN10path_utils10LeftCircleESt14default_deleteIS1_EEC2EPS1_
FN:155,_ZNSt15__uniq_ptr_implIN10path_utils14LeftTurnAroundESt14default_deleteIS1_EEC2EPS1_
FNDA:1,_ZNSt15__uniq_ptr_implIN10path_utils14LeftTurnAroundESt14default_deleteIS1_EEC2EPS1_
FN:155,_ZNSt15__uniq_ptr_implIN10path_utils8StraightESt14default_deleteIS1_EEC2EPS1_
FNDA:5,_ZNSt15__uniq_ptr_implIN10path_utils8StraightESt14default_deleteIS1_EEC2EPS1_
FN:155,_ZNSt15__uniq_ptr_implIN7testing8internal19TestMetaFactoryBaseISt5tupleIJSt4pairIddES5_dS5_EEEESt14default_deleteIS7_EEC2EPS7_
FNDA:1,_ZNSt15__uniq_ptr_implIN7testing8internal19TestMetaFactoryBaseISt5tupleIJSt4pairIddES5_dS5_EEEESt14default_deleteIS7_EEC2EPS7_
FN:155,_ZNSt15__uniq_ptr_implIN7testing8internal22ParamIteratorInterfaceISt5tupleIJSt4pairIddES5_dS5_EEEESt14default_deleteIS7_EEC2EPS7_
FNDA:14,_ZNSt15__uniq_ptr_implIN7testing8internal22ParamIteratorInterfaceISt5tupleIJSt4pairIddES5_dS5_EEEESt14default_deleteIS7_EEC2EPS7_
FN:158,_ZNSt15__uniq_ptr_implIN10path_utils11PathSegmentESt14default_deleteIS1_EEC2IS2_INS0_8StraightEEEEPS1_OT_
FNDA:5,_ZNSt15__uniq_ptr_implIN10path_utils11PathSegmentESt14default_deleteIS1_EEC2IS2_INS0_8StraightEEEEPS1_OT_
FN:158,_ZNSt15__uniq_ptr_implIN10path_utils11PathSegmentESt14default_deleteIS1_EEC2IS2_INS0_10LeftCircleEEEEPS1_OT_
FNDA:4,_ZNSt15__uniq_ptr_implIN10path_utils11PathSegmentESt14default_deleteIS1_EEC2IS2_INS0_10LeftCircleEEEEPS1_OT_
FN:158,_ZNSt15__uniq_ptr_implIN10path_utils11PathSegmentESt14default_deleteIS1_EEC2IS2_INS0_14LeftTurnAroundEEEEPS1_OT_
FNDA:1,_ZNSt15__uniq_ptr_implIN10path_utils11PathSegmentESt14default_deleteIS1_EEC2IS2_INS0_14LeftTurnAroundEEEEPS1_OT_
FN:172,_ZNSt15__uniq_ptr_implIN10path_utils14LeftTurnAroundESt14default_deleteIS1_EE6_M_ptrEv
FNDA:4,_ZNSt15__uniq_ptr_implIN10path_utils14LeftTurnAroundESt14default_deleteIS1_EE6_M_ptrEv
FN:172,_ZNSt15__uniq_ptr_implIKSt5tupleIJSt4pairIddES2_dS2_EESt14default_deleteIS4_EE6_M_ptrEv
FNDA:62,_ZNSt15__uniq_ptr_implIKSt5tupleIJSt4pairIddES2_dS2_EESt14default_deleteIS4_EE6_M_ptrEv
FN:172,_ZNSt15__uniq_ptr_implIN7testing8internal19TestMetaFactoryBaseISt5tupleIJSt4pairIddES5_dS5_EEEESt14default_deleteIS7_EE6_M_ptrEv
FNDA:2,_ZNSt15__uniq_ptr_implIN7testing8internal19TestMetaFactoryBaseISt5tupleIJSt4pairIddES5_dS5_EEEESt14default_deleteIS7_EE6_M_ptrEv
FN:172,_ZNSt15__uniq_ptr_implINSt7__cxx1118basic_stringstreamIcSt11char_traitsIcESaIcEEESt14default_deleteIS5_EE6_M_ptrEv
FNDA:690,_ZNSt15__uniq_ptr_implINSt7__cxx1118basic_stringstreamIcSt11char_traitsIcESaIcEEESt14default_deleteIS5_EE6_M_ptrEv
FN:172,_ZNSt15__uniq_ptr_implIN10path_utils8StraightESt14default_deleteIS1_EE6_M_ptrEv
FNDA:20,_ZNSt15__uniq_ptr_implIN10path_utils8StraightESt14default_deleteIS1_EE6_M_ptrEv
FN:172,_ZNSt15__uniq_ptr_implIN7testing8internal22ParamIteratorInterfaceISt5tupleIJSt4pairIddES5_dS5_EEEESt14default_deleteIS7_EE6_M_ptrEv
FNDA:28,_ZNSt15__uniq_ptr_implIN7testing8internal22ParamIteratorInterfaceISt5tupleIJSt4pairIddES5_dS5_EEEESt14default_deleteIS7_EE6_M_ptrEv
FN:172,_ZNSt15__uniq_ptr_implIN25vector_pursuit_controller23VectorPursuitControllerESt14default_deleteIS1_EE6_M_ptrEv
FNDA:2,_ZNSt15__uniq_ptr_implIN25vector_pursuit_controller23VectorPursuitControllerESt14default_deleteIS1_EE6_M_ptrEv
FN:172,_ZNSt15__uniq_ptr_implIN10path_utils11PathSegmentESt14default_deleteIS1_EE6_M_ptrEv
FNDA:10,_ZNSt15__uniq_ptr_implIN10path_utils11PathSegmentESt14default_deleteIS1_EE6_M_ptrEv
FN:172,_ZNSt15__uniq_ptr_implIN15nav2_costmap_2d25FootprintCollisionCheckerIPNS0_9Costmap2DEEESt14default_deleteIS4_EE6_M_ptrEv
FNDA:96,_ZNSt15__uniq_ptr_implIN15nav2_costmap_2d25FootprintCollisionCheckerIPNS0_9Costmap2DEEESt14default_deleteIS4_EE6_M_ptrEv
FN:172,_ZNSt15__uniq_ptr_implIN10path_utils10LeftCircleESt14default_deleteIS1_EE6_M_ptrEv
FNDA:16,_ZNSt15__uniq_ptr_implIN10path_utils10LeftCircleESt14default_deleteIS1_EE6_M_ptrEv
FN:172,_ZNSt15__uniq_ptr_implI18rcl_node_options_sPFvPS0_EE6_M_ptrEv
FNDA:12,_ZNSt15__uniq_ptr_implI18rcl_node_options_sPFvPS0_EE6_M_ptrEv
FN:172,_ZNSt15__uniq_ptr_implINSt7__cxx1112basic_stringIcSt11char_traitsIcESaIcEEESt14default_deleteIS5_EE6_M_ptrEv
FNDA:134,_ZNSt15__uniq_ptr_implINSt7__cxx1112basic_stringIcSt11char_traitsIcESaIcEEESt14default_deleteIS5_EE6_M_ptrEv
FN:173,_ZNKSt15__uniq_ptr_implIN7testing8internal19TestMetaFactoryBaseISt5tupleIJSt4pairIddES5_dS5_EEEESt14default_deleteIS7_EE6_M_ptrEv
FNDA:12,_ZNKSt15__uniq_ptr_implIN7testing8internal19TestMetaFactoryBaseISt5tupleIJSt4pairIddES5_dS5_EEEESt14default_deleteIS7_EE6_M_ptrEv
FN:173,_ZNKSt15__uniq_ptr_implINSt7__cxx1118basic_stringstreamIcSt11char_traitsIcESaIcEEESt14default_deleteIS5_EE6_M_ptrEv
FNDA:3984,_ZNKSt15__uniq_ptr_implINSt7__cxx1118basic_stringstreamIcSt11char_traitsIcESaIcEEESt14default_deleteIS5_EE6_M_ptrEv
FN:173,_ZNKSt15__uniq_ptr_implIN25vector_pursuit_controller23VectorPursuitControllerESt14default_deleteIS1_EE6_M_ptrEv
FNDA:2,_ZNKSt15__uniq_ptr_implIN25vector_pursuit_controller23VectorPursuitControllerESt14default_deleteIS1_EE6_M_ptrEv
FN:173,_ZNKSt15__uniq_ptr_implIN7testing8internal22ParamIteratorInterfaceISt5tupleIJSt4pairIddES5_dS5_EEEESt14default_deleteIS7_EE6_M_ptrEv
FNDA:100,_ZNKSt15__uniq_ptr_implIN7testing8internal22ParamIteratorInterfaceISt5tupleIJSt4pairIddES5_dS5_EEEESt14default_deleteIS7_EE6_M_ptrEv
FN:173,_ZNKSt15__uniq_ptr_implIKSt5tupleIJSt4pairIddES2_dS2_EESt14default_deleteIS4_EE6_M_ptrEv
FNDA:72,_ZNKSt15__uniq_ptr_implIKSt5tupleIJSt4pairIddES2_dS2_EESt14default_deleteIS4_EE6_M_ptrEv
FN:173,_ZNKSt15__uniq_ptr_implINSt7__cxx1112basic_stringIcSt11char_traitsIcESaIcEEESt14default_deleteIS5_EE6_M_ptrEv
FNDA:0,_ZNKSt15__uniq_ptr_implINSt7__cxx1112basic_stringIcSt11char_traitsIcESaIcEEESt14default_deleteIS5_EE6_M_ptrEv
FN:174,_ZNSt15__uniq_ptr_implINSt7__cxx1118basic_stringstreamIcSt11char_traitsIcESaIcEEESt14default_deleteIS5_EE10_M_deleterEv
FNDA:345,_ZNSt15__uniq_ptr_implINSt7__cxx1118basic_stringstreamIcSt11char_traitsIcESaIcEEESt14default_deleteIS5_EE10_M_deleterEv
FN:174,_ZNSt15__uniq_ptr_implIN25vector_pursuit_controller23VectorPursuitControllerESt14default_deleteIS1_EE10_M_deleterEv
FNDA:1,_ZNSt15__uniq_ptr_implIN25vector_pursuit_controller23VectorPursuitControllerESt14default_deleteIS1_EE10_M_deleterEv
FN:174,_ZNSt15__uniq_ptr_implINSt7__cxx1112basic_stringIcSt11char_traitsIcESaIcEEESt14default_deleteIS5_EE10_M_deleterEv
FNDA:0,_ZNSt15__uniq_ptr_implINSt7__cxx1112basic_stringIcSt11char_traitsIcESaIcEEESt14default_deleteIS5_EE10_M_deleterEv
FN:174,_ZNSt15__uniq_ptr_implI18rcl_node_options_sPFvPS0_EE10_M_deleterEv
FNDA:12,_ZNSt15__uniq_ptr_implI18rcl_node_options_sPFvPS0_EE10_M_deleterEv
FN:174,_ZNSt15__uniq_ptr_implIN15nav2_costmap_2d25FootprintCollisionCheckerIPNS0_9Costmap2DEEESt14default_deleteIS4_EE10_M_deleterEv
FNDA:42,_ZNSt15__uniq_ptr_implIN15nav2_costmap_2d25FootprintCollisionCheckerIPNS0_9Costmap2DEEESt14default_deleteIS4_EE10_M_deleterEv
FN:174,_ZNSt15__uniq_ptr_implIN10path_utils8StraightESt14default_deleteIS1_EE10_M_deleterEv
FNDA:5,_ZNSt15__uniq_ptr_implIN10path_utils8StraightESt14default_deleteIS1_EE10_M_deleterEv
FN:174,_ZNSt15__uniq_ptr_implIN10path_utils11PathSegmentESt14default_deleteIS1_EE10_M_deleterEv
FNDA:10,_ZNSt15__uniq_ptr_implIN10path_utils11PathSegmentESt14default_deleteIS1_EE10_M_deleterEv
FN:174,_ZNSt15__uniq_ptr_implIN7testing8internal22ParamIteratorInterfaceISt5tupleIJSt4pairIddES5_dS5_EEEESt14default_deleteIS7_EE10_M_deleterEv
FNDA:14,_ZNSt15__uniq_ptr_implIN7testing8internal22ParamIteratorInterfaceISt5tupleIJSt4pairIddES5_dS5_EEEESt14default_deleteIS7_EE10_M_deleterEv
FN:174,_ZNSt15__uniq_ptr_implIN10path_utils10LeftCircleESt14default_deleteIS1_EE10_M_deleterEv
FNDA:4,_ZNSt15__uniq_ptr_implIN10path_utils10LeftCircleESt14default_deleteIS1_EE10_M_deleterEv
FN:174,_ZNSt15__uniq_ptr_implIN10path_utils14LeftTurnAroundESt14default_deleteIS1_EE10_M_deleterEv
FNDA:1,_ZNSt15__uniq_ptr_implIN10path_utils14LeftTurnAroundESt14default_deleteIS1_EE10_M_deleterEv
FN:174,_ZNSt15__uniq_ptr_implIKSt5tupleIJSt4pairIddES2_dS2_EESt14default_deleteIS4_EE10_M_deleterEv
FNDA:12,_ZNSt15__uniq_ptr_implIKSt5tupleIJSt4pairIddES2_dS2_EESt14default_deleteIS4_EE10_M_deleterEv
FN:174,_ZNSt15__uniq_ptr_implIN7testing8internal19TestMetaFactoryBaseISt5tupleIJSt4pairIddES5_dS5_EEEESt14default_deleteIS7_EE10_M_deleterEv
FNDA:1,_ZNSt15__uniq_ptr_implIN7testing8internal19TestMetaFactoryBaseISt5tupleIJSt4pairIddES5_dS5_EEEESt14default_deleteIS7_EE10_M_deleterEv
FN:177,_ZNSt15__uniq_ptr_implINSt7__cxx1112basic_stringIcSt11char_traitsIcESaIcEEESt14default_deleteIS5_EE5resetEPS5_
FNDA:0,_ZNSt15__uniq_ptr_implINSt7__cxx1112basic_stringIcSt11char_traitsIcESaIcEEESt14default_deleteIS5_EE5resetEPS5_
FN:177,_ZNSt15__uniq_ptr_implIKSt5tupleIJSt4pairIddES2_dS2_EESt14default_deleteIS4_EE5resetEPS4_
FNDA:24,_ZNSt15__uniq_ptr_implIKSt5tupleIJSt4pairIddES2_dS2_EESt14default_deleteIS4_EE5resetEPS4_
FN:185,_ZNSt15__uniq_ptr_implIN10path_utils8StraightESt14default_deleteIS1_EE7releaseEv
FNDA:5,_ZNSt15__uniq_ptr_implIN10path_utils8StraightESt14default_deleteIS1_EE7releaseEv
FN:185,_ZNSt15__uniq_ptr_implIN10path_utils10LeftCircleESt14default_deleteIS1_EE7releaseEv
FNDA:4,_ZNSt15__uniq_ptr_implIN10path_utils10LeftCircleESt14default_deleteIS1_EE7releaseEv
FN:185,_ZNSt15__uniq_ptr_implIN10path_utils14LeftTurnAroundESt14default_deleteIS1_EE7releaseEv
FNDA:1,_ZNSt15__uniq_ptr_implIN10path_utils14LeftTurnAroundESt14default_deleteIS1_EE7releaseEv
FN:269,_ZNSt10unique_ptrIKSt5tupleIJSt4pairIddES2_dS2_EESt14default_deleteIS4_EEC2IS6_vEEv
FNDA:14,_ZNSt10unique_ptrIKSt5tupleIJSt4pairIddES2_dS2_EESt14default_deleteIS4_EEC2IS6_vEEv
FN:269,_ZNSt10unique_ptrIN15nav2_costmap_2d25FootprintCollisionCheckerIPNS0_9Costmap2DEEESt14default_deleteIS4_EEC2IS6_vEEv
FNDA:12,_ZNSt10unique_ptrIN15nav2_costmap_2d25FootprintCollisionCheckerIPNS0_9Costmap2DEEESt14default_deleteIS4_EEC2IS6_vEEv
FN:269,_ZNSt10unique_ptrINSt7__cxx1112basic_stringIcSt11char_traitsIcESaIcEEESt14default_deleteIS5_EEC2IS7_vEEv
FNDA:134,_ZNSt10unique_ptrINSt7__cxx1112basic_stringIcSt11char_traitsIcESaIcEEESt14default_deleteIS5_EEC2IS7_vEEv
FN:281,_ZNSt10unique_ptrIN10path_utils14LeftTurnAroundESt14default_deleteIS1_EEC2IS3_vEEPS1_
FNDA:1,_ZNSt10unique_ptrIN10path_utils14LeftTurnAroundESt14default_deleteIS1_EEC2IS3_vEEPS1_
FN:281,_ZNSt10unique_ptrIN7testing8internal22ParamIteratorInterfaceISt5tupleIJSt4pairIddES5_dS5_EEEESt14default_deleteIS7_EEC2IS9_vEEPS7_
FNDA:14,_ZNSt10unique_ptrIN7testing8internal22ParamIteratorInterfaceISt5tupleIJSt4pairIddES5_dS5_EEEESt14default_deleteIS7_EEC2IS9_vEEPS7_
FN:281,_ZNSt10unique_ptrIN10path_utils10LeftCircleESt14default_deleteIS1_EEC2IS3_vEEPS1_
FNDA:4,_ZNSt10unique_ptrIN10path_utils10LeftCircleESt14default_deleteIS1_EEC2IS3_vEEPS1_
FN:281,_ZNSt10unique_ptrIN10path_utils8StraightESt14default_deleteIS1_EEC2IS3_vEEPS1_
FNDA:5,_ZNSt10unique_ptrIN10path_utils8StraightESt14default_deleteIS1_EEC2IS3_vEEPS1_
FN:281,_ZNSt10unique_ptrIN7testing8internal19TestMetaFactoryBaseISt5tupleIJSt4pairIddES5_dS5_EEEESt14default_deleteIS7_EEC2IS9_vEEPS7_
FNDA:1,_ZNSt10unique_ptrIN7testing8internal19TestMetaFactoryBaseISt5tupleIJSt4pairIddES5_dS5_EEEESt14default_deleteIS7_EEC2IS9_vEEPS7_
FN:281,_ZNSt10unique_ptrIN25vector_pursuit_controller23VectorPursuitControllerESt14default_deleteIS1_EEC2IS3_vEEPS1_
FNDA:1,_ZNSt10unique_ptrIN25vector_pursuit_controller23VectorPursuitControllerESt14default_deleteIS1_EEC2IS3_vEEPS1_
FN:340,_ZNSt10unique_ptrIN10path_utils11PathSegmentESt14default_deleteIS1_EEC2INS0_10LeftCircleES2_IS6_EvEEOS_IT_T0_E
FNDA:4,_ZNSt10unique_ptrIN10path_utils11PathSegmentESt14default_deleteIS1_EEC2INS0_10LeftCircleES2_IS6_EvEEOS_IT_T0_E
FN:340,_ZNSt10unique_ptrIN10path_utils11PathSegmentESt14default_deleteIS1_EEC2INS0_8StraightES2_IS6_EvEEOS_IT_T0_E
FNDA:5,_ZNSt10unique_ptrIN10path_utils11PathSegmentESt14default_deleteIS1_EEC2INS0_8StraightES2_IS6_EvEEOS_IT_T0_E
FN:340,_ZNSt10unique_ptrIN10path_utils11PathSegmentESt14default_deleteIS1_EEC2INS0_14LeftTurnAroundES2_IS6_EvEEOS_IT_T0_E
FNDA:1,_ZNSt10unique_ptrIN10path_utils11PathSegmentESt14default_deleteIS1_EEC2INS0_14LeftTurnAroundES2_IS6_EvEEOS_IT_T0_E
FN:355,_ZNSt10unique_ptrIN10path_utils11PathSegmentESt14default_deleteIS1_EED2Ev
FNDA:10,_ZNSt10unique_ptrIN10path_utils11PathSegmentESt14default_deleteIS1_EED2Ev
FN:355,_ZNSt10unique_ptrIN10path_utils8StraightESt14default_deleteIS1_EED2Ev
FNDA:5,_ZNSt10unique_ptrIN10path_utils8StraightESt14default_deleteIS1_EED2Ev
FN:355,_ZNSt10unique_ptrIN25vector_pursuit_controller23VectorPursuitControllerESt14default_deleteIS1_EED2Ev
FNDA:1,_ZNSt10unique_ptrIN25vector_pursuit_controller23VectorPursuitControllerESt14default_deleteIS1_EED2Ev
FN:355,_ZNSt10unique_ptrIN15nav2_costmap_2d25FootprintCollisionCheckerIPNS0_9Costmap2DEEESt14default_deleteIS4_EED2Ev
FNDA:26,_ZNSt10unique_ptrIN15nav2_costmap_2d25FootprintCollisionCheckerIPNS0_9Costmap2DEEESt14default_deleteIS4_EED2Ev
FN:355,_ZNSt10unique_ptrIN10path_utils10LeftCircleESt14default_deleteIS1_EED2Ev
FNDA:4,_ZNSt10unique_ptrIN10path_utils10LeftCircleESt14default_deleteIS1_EED2Ev
FN:355,_ZNSt10unique_ptrIN10path_utils14LeftTurnAroundESt14default_deleteIS1_EED2Ev
FNDA:1,_ZNSt10unique_ptrIN10path_utils14LeftTurnAroundESt14default_deleteIS1_EED2Ev
FN:355,_ZNSt10unique_ptrINSt7__cxx1112basic_stringIcSt11char_traitsIcESaIcEEESt14default_deleteIS5_EED2Ev
FNDA:134,_ZNSt10unique_ptrINSt7__cxx1112basic_stringIcSt11char_traitsIcESaIcEEESt14default_deleteIS5_EED2Ev
FN:355,_ZNSt10unique_ptrINSt7__cxx1118basic_stringstreamIcSt11char_traitsIcESaIcEEESt14default_deleteIS5_EED2Ev
FNDA:345,_ZNSt10unique_ptrINSt7__cxx1118basic_stringstreamIcSt11char_traitsIcESaIcEEESt14default_deleteIS5_EED2Ev
FN:355,_ZNSt10unique_ptrIKSt5tupleIJSt4pairIddES2_dS2_EESt14default_deleteIS4_EED2Ev
FNDA:14,_ZNSt10unique_ptrIKSt5tupleIJSt4pairIddES2_dS2_EESt14default_deleteIS4_EED2Ev
FN:355,_ZNSt10unique_ptrIN7testing8internal22ParamIteratorInterfaceISt5tupleIJSt4pairIddES5_dS5_EEEESt14default_deleteIS7_EED2Ev
FNDA:14,_ZNSt10unique_ptrIN7testing8internal22ParamIteratorInterfaceISt5tupleIJSt4pairIddES5_dS5_EEEESt14default_deleteIS7_EED2Ev
FN:355,_ZNSt10unique_ptrIN7testing8internal19TestMetaFactoryBaseISt5tupleIJSt4pairIddES5_dS5_EEEESt14default_deleteIS7_EED2Ev
FNDA:1,_ZNSt10unique_ptrIN7testing8internal19TestMetaFactoryBaseISt5tupleIJSt4pairIddES5_dS5_EEEESt14default_deleteIS7_EED2Ev
FN:355,_ZNSt10unique_ptrI18rcl_node_options_sPFvPS0_EED2Ev
FNDA:12,_ZNSt10unique_ptrI18rcl_node_options_sPFvPS0_EED2Ev
FN:405,_ZNKSt10unique_ptrINSt7__cxx1118basic_stringstreamIcSt11char_traitsIcESaIcEEESt14default_deleteIS5_EEdeEv
FNDA:3639,_ZNKSt10unique_ptrINSt7__cxx1118basic_stringstreamIcSt11char_traitsIcESaIcEEESt14default_deleteIS5_EEdeEv
FN:405,_ZNKSt10unique_ptrIN7testing8internal22ParamIteratorInterfaceISt5tupleIJSt4pairIddES5_dS5_EEEESt14default_deleteIS7_EEdeEv
FNDA:13,_ZNKSt10unique_ptrIN7testing8internal22ParamIteratorInterfaceISt5tupleIJSt4pairIddES5_dS5_EEEESt14default_deleteIS7_EEdeEv
FN:413,_ZNKSt10unique_ptrINSt7__cxx1112basic_stringIcSt11char_traitsIcESaIcEEESt14default_deleteIS5_EEptEv
FNDA:0,_ZNKSt10unique_ptrINSt7__cxx1112basic_stringIcSt11char_traitsIcESaIcEEESt14default_deleteIS5_EEptEv
FN:413,_ZNKSt10unique_ptrIN7testing8internal22ParamIteratorInterfaceISt5tupleIJSt4pairIddES5_dS5_EEEESt14default_deleteIS7_EEptEv
FNDA:61,_ZNKSt10unique_ptrIN7testing8internal22ParamIteratorInterfaceISt5tupleIJSt4pairIddES5_dS5_EEEESt14default_deleteIS7_EEptEv
FN:413,_ZNKSt10unique_ptrIN25vector_pursuit_controller23VectorPursuitControllerESt14default_deleteIS1_EEptEv
FNDA:2,_ZNKSt10unique_ptrIN25vector_pursuit_controller23VectorPursuitControllerESt14default_deleteIS1_EEptEv
FN:413,_ZNKSt10unique_ptrIN7testing8internal19TestMetaFactoryBaseISt5tupleIJSt4pairIddES5_dS5_EEEESt14default_deleteIS7_EEptEv
FNDA:12,_ZNKSt10unique_ptrIN7testing8internal19TestMetaFactoryBaseISt5tupleIJSt4pairIddES5_dS5_EEEESt14default_deleteIS7_EEptEv
FN:421,_ZNKSt10unique_ptrIKSt5tupleIJSt4pairIddES2_dS2_EESt14default_deleteIS4_EE3getEv
FNDA:72,_ZNKSt10unique_ptrIKSt5tupleIJSt4pairIddES2_dS2_EESt14default_deleteIS4_EE3getEv
FN:421,_ZNKSt10unique_ptrINSt7__cxx1112basic_stringIcSt11char_traitsIcESaIcEEESt14default_deleteIS5_EE3getEv
FNDA:0,_ZNKSt10unique_ptrINSt7__cxx1112basic_stringIcSt11char_traitsIcESaIcEEESt14default_deleteIS5_EE3getEv
FN:421,_ZNKSt10unique_ptrIN7testing8internal22ParamIteratorInterfaceISt5tupleIJSt4pairIddES5_dS5_EEEESt14default_deleteIS7_EE3getEv
FNDA:100,_ZNKSt10unique_ptrIN7testing8internal22ParamIteratorInterfaceISt5tupleIJSt4pairIddES5_dS5_EEEESt14default_deleteIS7_EE3getEv
FN:421,_ZNKSt10unique_ptrIN7testing8internal19TestMetaFactoryBaseISt5tupleIJSt4pairIddES5_dS5_EEEESt14default_deleteIS7_EE3getEv
FNDA:12,_ZNKSt10unique_ptrIN7testing8internal19TestMetaFactoryBaseISt5tupleIJSt4pairIddES5_dS5_EEEESt14default_deleteIS7_EE3getEv
FN:421,_ZNKSt10unique_ptrINSt7__cxx1118basic_stringstreamIcSt11char_traitsIcESaIcEEESt14default_deleteIS5_EE3getEv
FNDA:3984,_ZNKSt10unique_ptrINSt7__cxx1118basic_stringstreamIcSt11char_traitsIcESaIcEEESt14default_deleteIS5_EE3getEv
FN:421,_ZNKSt10unique_ptrIN25vector_pursuit_controller23VectorPursuitControllerESt14default_deleteIS1_EE3getEv
FNDA:2,_ZNKSt10unique_ptrIN25vector_pursuit_controller23VectorPursuitControllerESt14default_deleteIS1_EE3getEv
FN:426,_ZNSt10unique_ptrINSt7__cxx1112basic_stringIcSt11char_traitsIcESaIcEEESt14default_deleteIS5_EE11get_deleterEv
FNDA:0,_ZNSt10unique_ptrINSt7__cxx1112basic_stringIcSt11char_traitsIcESaIcEEESt14default_deleteIS5_EE11get_deleterEv
FN:426,_ZNSt10unique_ptrIN10path_utils8StraightESt14default_deleteIS1_EE11get_deleterEv
FNDA:5,_ZNSt10unique_ptrIN10path_utils8StraightESt14default_deleteIS1_EE11get_deleterEv
FN:426,_ZNSt10unique_ptrIN10path_utils11PathSegmentESt14default_deleteIS1_EE11get_deleterEv
FNDA:10,_ZNSt10unique_ptrIN10path_utils11PathSegmentESt14default_deleteIS1_EE11get_deleterEv
FN:426,_ZNSt10unique_ptrIN25vector_pursuit_controller23VectorPursuitControllerESt14default_deleteIS1_EE11get_deleterEv
FNDA:1,_ZNSt10unique_ptrIN25vector_pursuit_controller23VectorPursuitControllerESt14default_deleteIS1_EE11get_deleterEv
FN:426,_ZNSt10unique_ptrIN15nav2_costmap_2d25FootprintCollisionCheckerIPNS0_9Costmap2DEEESt14default_deleteIS4_EE11get_deleterEv
FNDA:12,_ZNSt10unique_ptrIN15nav2_costmap_2d25FootprintCollisionCheckerIPNS0_9Costmap2DEEESt14default_deleteIS4_EE11get_deleterEv
FN:426,_ZNSt10unique_ptrIKSt5tupleIJSt4pairIddES2_dS2_EESt14default_deleteIS4_EE11get_deleterEv
FNDA:0,_ZNSt10unique_ptrIKSt5tupleIJSt4pairIddES2_dS2_EESt14default_deleteIS4_EE11get_deleterEv
FN:426,_ZNSt10unique_ptrIN10path_utils10LeftCircleESt14default_deleteIS1_EE11get_deleterEv
FNDA:4,_ZNSt10unique_ptrIN10path_utils10LeftCircleESt14default_deleteIS1_EE11get_deleterEv
FN:426,_ZNSt10unique_ptrIN7testing8internal19TestMetaFactoryBaseISt5tupleIJSt4pairIddES5_dS5_EEEESt14default_deleteIS7_EE11get_deleterEv
FNDA:1,_ZNSt10unique_ptrIN7testing8internal19TestMetaFactoryBaseISt5tupleIJSt4pairIddES5_dS5_EEEESt14default_deleteIS7_EE11get_deleterEv
FN:426,_ZNSt10unique_ptrIN7testing8internal22ParamIteratorInterfaceISt5tupleIJSt4pairIddES5_dS5_EEEESt14default_deleteIS7_EE11get_deleterEv
FNDA:14,_ZNSt10unique_ptrIN7testing8internal22ParamIteratorInterfaceISt5tupleIJSt4pairIddES5_dS5_EEEESt14default_deleteIS7_EE11get_deleterEv
FN:426,_ZNSt10unique_ptrIN10path_utils14LeftTurnAroundESt14default_deleteIS1_EE11get_deleterEv
FNDA:1,_ZNSt10unique_ptrIN10path_utils14LeftTurnAroundESt14default_deleteIS1_EE11get_deleterEv
FN:426,_ZNSt10unique_ptrI18rcl_node_options_sPFvPS0_EE11get_deleterEv
FNDA:12,_ZNSt10unique_ptrI18rcl_node_options_sPFvPS0_EE11get_deleterEv
FN:426,_ZNSt10unique_ptrINSt7__cxx1118basic_stringstreamIcSt11char_traitsIcESaIcEEESt14default_deleteIS5_EE11get_deleterEv
FNDA:345,_ZNSt10unique_ptrINSt7__cxx1118basic_stringstreamIcSt11char_traitsIcESaIcEEESt14default_deleteIS5_EE11get_deleterEv
FN:442,_ZNSt10unique_ptrIN10path_utils10LeftCircleESt14default_deleteIS1_EE7releaseEv
FNDA:4,_ZNSt10unique_ptrIN10path_utils10LeftCircleESt14default_deleteIS1_EE7releaseEv
FN:442,_ZNSt10unique_ptrIN10path_utils14LeftTurnAroundESt14default_deleteIS1_EE7releaseEv
FNDA:1,_ZNSt10unique_ptrIN10path_utils14LeftTurnAroundESt14default_deleteIS1_EE7releaseEv
FN:442,_ZNSt10unique_ptrIN10path_utils8StraightESt14default_deleteIS1_EE7releaseEv
FNDA:5,_ZNSt10unique_ptrIN10path_utils8StraightESt14default_deleteIS1_EE7releaseEv
FN:452,_ZNSt10unique_ptrIKSt5tupleIJSt4pairIddES2_dS2_EESt14default_deleteIS4_EE5resetEPS4_
FNDA:24,_ZNSt10unique_ptrIKSt5tupleIJSt4pairIddES2_dS2_EESt14default_deleteIS4_EE5resetEPS4_
FN:452,_ZNSt10unique_ptrINSt7__cxx1112basic_stringIcSt11char_traitsIcESaIcEEESt14default_deleteIS5_EE5resetEPS5_
FNDA:0,_ZNSt10unique_ptrINSt7__cxx1112basic_stringIcSt11char_traitsIcESaIcEEESt14default_deleteIS5_EE5resetEPS5_
FN:961,_ZSt11make_uniqueIN25vector_pursuit_controller23VectorPursuitControllerEJEENSt9_MakeUniqIT_E15__single_objectEDpOT0_
FNDA:1,_ZSt11make_uniqueIN25vector_pursuit_controller23VectorPursuitControllerEJEENSt9_MakeUniqIT_E15__single_objectEDpOT0_
FN:961,_ZSt11make_uniqueIN10path_utils8StraightEJdEENSt9_MakeUniqIT_E15__single_objectEDpOT0_
FNDA:2,_ZSt11make_uniqueIN10path_utils8StraightEJdEENSt9_MakeUniqIT_E15__single_objectEDpOT0_
FN:961,_ZSt11make_uniqueIN10path_utils10LeftCircleEJRKdEENSt9_MakeUniqIT_E15__single_objectEDpOT0_
FNDA:4,_ZSt11make_uniqueIN10path_utils10LeftCircleEJRKdEENSt9_MakeUniqIT_E15__single_objectEDpOT0_
FN:961,_ZSt11make_uniqueIN10path_utils8StraightEJRKdEENSt9_MakeUniqIT_E15__single_objectEDpOT0_
FNDA:3,_ZSt11make_uniqueIN10path_utils8StraightEJRKdEENSt9_MakeUniqIT_E15__single_objectEDpOT0_
FN:961,_ZSt11make_uniqueIN10path_utils14LeftTurnAroundEJdEENSt9_MakeUniqIT_E15__single_objectEDpOT0_
FNDA:1,_ZSt11make_uniqueIN10path_utils14LeftTurnAroundEJdEENSt9_MakeUniqIT_E15__single_objectEDpOT0_
DA:75,1
DA:75,4
DA:75,5
DA:79,12
DA:85,12
DA:86,12
DA:79,14
DA:85,14
DA:86,14
DA:79,1
DA:85,1
DA:86,1
DA:79,0
DA:85,0
DA:86,0
DA:79,0
DA:85,0
DA:86,0
DA:79,1
DA:85,1
DA:86,1
DA:79,10
DA:85,10
DA:86,10
DA:79,0
DA:85,0
DA:86,0
DA:79,14
DA:85,14
DA:86,14
DA:79,0
DA:85,0
DA:86,0
DA:79,345
DA:85,345
DA:86,345
DA:154,14
DA:154,134
DA:154,12
DA:155,14
DA:155,1
DA:155,1
DA:155,4
DA:155,1
DA:155,5
DA:158,1
DA:159,1
DA:158,4
DA:159,4
DA:158,5
DA:159,5
DA:172,62
DA:172,28
DA:172,12
DA:172,2
DA:172,4
DA:172,16
DA:172,2
DA:172,10
DA:172,20
DA:172,96
DA:172,134
DA:172,690
DA:173,72
DA:173,100
DA:173,12
DA:173,2
DA:173,3984
DA:173,0
DA:174,12
DA:174,14
DA:174,12
DA:174,1
DA:174,1
DA:174,4
DA:174,1
DA:174,10
DA:174,5
DA:174,42
DA:174,0
DA:174,345
DA:177,24
DA:179,24
DA:180,24
DA:181,24
DA:182,12
DA:183,24
DA:177,0
DA:179,0
DA:180,0
DA:181,0
DA:182,0
DA:183,0
DA:185,1
DA:187,1
DA:188,1
DA:189,1
DA:185,4
DA:187,4
DA:188,4
DA:189,4
DA:185,5
DA:187,5
DA:188,5
DA:189,5
DA:269,14
DA:270,14
DA:271,14
DA:269,134
DA:270,134
DA:271,134
DA:269,12
DA:270,12
DA:271,12
DA:281,14
DA:282,14
DA:283,14
DA:281,1
DA:282,1
DA:283,1
DA:281,1
DA:282,1
DA:283,1
DA:281,4
DA:282,4
DA:283,4
DA:281,1
DA:282,1
DA:283,1
DA:281,5
DA:282,5
DA:283,5
DA:340,1
DA:341,1
DA:342,1
DA:340,4
DA:341,4
DA:342,4
DA:340,5
DA:341,5
DA:342,5
DA:355,14
DA:359,14
DA:360,14
DA:361,0
DA:362,14
DA:363,14
DA:355,14
DA:359,14
DA:360,14
DA:361,14
DA:362,14
DA:363,14
DA:355,12
DA:359,12
DA:360,12
DA:361,12
DA:362,12
DA:363,12
DA:355,1
DA:359,1
DA:360,1
DA:361,1
DA:362,1
DA:363,1
DA:355,1
DA:359,1
DA:360,1
DA:361,0
DA:362,1
DA:363,1
DA:355,4
DA:359,4
DA:360,4
DA:361,0
DA:362,4
DA:363,4
DA:355,1
DA:359,1
DA:360,1
DA:361,1
DA:362,1
DA:363,1
DA:355,10
DA:359,10
DA:360,10
DA:361,10
DA:362,10
DA:363,10
DA:355,5
DA:359,5
DA:360,5
DA:361,0
DA:362,5
DA:363,5
DA:355,26
DA:359,26
DA:360,26
DA:361,12
DA:362,26
DA:363,26
DA:355,134
DA:359,134
DA:360,134
DA:361,0
DA:362,134
DA:363,134
DA:355,345
DA:359,345
DA:360,345
DA:361,345
DA:362,345
DA:363,345
DA:405,13
DA:407,13
DA:408,13
DA:405,3639
DA:407,3639
DA:408,3639
DA:413,61
DA:416,61
DA:413,12
DA:416,12
DA:413,2
DA:416,2
DA:413,0
DA:416,0
DA:421,72
DA:422,72
DA:421,100
DA:422,100
DA:421,12
DA:422,12
DA:421,2
DA:422,2
DA:421,3984
DA:422,3984
DA:421,0
DA:422,0
DA:426,0
DA:427,0
DA:426,14
DA:427,14
DA:426,12
DA:427,12
DA:426,1
DA:427,1
DA:426,1
DA:427,1
DA:426,4
DA:427,4
DA:426,1
DA:427,1
DA:426,10
DA:427,10
DA:426,5
DA:427,5
DA:426,12
DA:427,12
DA:426,0
DA:427,0
DA:426,345
DA:427,345
DA:442,1
DA:443,1
DA:442,4
DA:443,4
DA:442,5
DA:443,5
DA:452,24
DA:456,24
DA:457,24
DA:452,0
DA:456,0
DA:457,0
DA:961,1
DA:962,1
DA:961,3
DA:962,3
DA:961,4
DA:962,4
DA:961,1
DA:962,1
DA:961,2
DA:962,2
end_of_record
SF:/usr/include/c++/11/bits/move.h
FN:49,_ZSt11__addressofINSt7__cxx1112basic_stringIcSt11char_traitsIcESaIcEEEEPT_RS6_
FNDA:3633,_ZSt11__addressofINSt7__cxx1112basic_stringIcSt11char_traitsIcESaIcEEEEPT_RS6_
FN:49,_ZSt11__addressofImEPT_RS0_
FNDA:0,_ZSt11__addressofImEPT_RS0_
FN:49,_ZSt11__addressofIN14rcl_interfaces3msg20SetParametersResult_ISaIvEEEEPT_RS5_
FNDA:35,_ZSt11__addressofIN14rcl_interfaces3msg20SetParametersResult_ISaIvEEEEPT_RS5_
FN:49,_ZSt11__addressofIN13geometry_msgs3msg12PoseStamped_ISaIvEEEEPT_RS5_
FNDA:3571,_ZSt11__addressofIN13geometry_msgs3msg12PoseStamped_ISaIvEEEEPT_RS5_
FN:49,_ZSt11__addressofIN13geometry_msgs3msg17TransformStamped_ISaIvEEEEPT_RS5_
FNDA:28,_ZSt11__addressofIN13geometry_msgs3msg17TransformStamped_ISaIvEEEEPT_RS5_
FN:49,_ZSt11__addressofIN6rclcpp9ParameterEEPT_RS2_
FNDA:130,_ZSt11__addressofIN6rclcpp9ParameterEEPT_RS2_
FN:49,_ZSt11__addressofISt10shared_ptrIN7testing8internal26ParameterizedTestSuiteInfoI29CircleSegmentIntersectionTestE8TestInfoEEEPT_RS8_
FNDA:1,_ZSt11__addressofISt10shared_ptrIN7testing8internal26ParameterizedTestSuiteInfoI29CircleSegmentIntersectionTestE8TestInfoEEEPT_RS8_
FN:49,_ZSt11__addressofIN7testing8internal26ParameterizedTestSuiteInfoI29CircleSegmentIntersectionTestE17InstantiationInfoEEPT_RS6_
FNDA:1,_ZSt11__addressofIN7testing8internal26ParameterizedTestSuiteInfoI29CircleSegmentIntersectionTestE17InstantiationInfoEEPT_RS6_
FN:49,_ZSt11__addressofISaISt23_Sp_counted_ptr_inplaceIN6rclcpp21AsyncParametersClientESaIS2_ELN9__gnu_cxx12_Lock_policyE2EEEEPT_RS8_
FNDA:2,_ZSt11__addressofISaISt23_Sp_counted_ptr_inplaceIN6rclcpp21AsyncParametersClientESaIS2_ELN9__gnu_cxx12_Lock_policyE2EEEEPT_RS8_
FN:49,_ZSt11__addressofISaISt23_Sp_counted_ptr_inplaceIN16rclcpp_lifecycle13LifecycleNodeESaIS2_ELN9__gnu_cxx12_Lock_policyE2EEEEPT_RS8_
FNDA:24,_ZSt11__addressofISaISt23_Sp_counted_ptr_inplaceIN16rclcpp_lifecycle13LifecycleNodeESaIS2_ELN9__gnu_cxx12_Lock_policyE2EEEEPT_RS8_
FN:49,_ZSt11__addressofISaISt23_Sp_counted_ptr_inplaceIN7tf2_ros6BufferESaIS2_ELN9__gnu_cxx12_Lock_policyE2EEEEPT_RS8_
FNDA:24,_ZSt11__addressofISaISt23_Sp_counted_ptr_inplaceIN7tf2_ros6BufferESaIS2_ELN9__gnu_cxx12_Lock_policyE2EEEEPT_RS8_
FN:49,_ZSt11__addressofISaISt23_Sp_counted_ptr_inplaceIN15nav2_costmap_2d12Costmap2DROSESaIS2_ELN9__gnu_cxx12_Lock_policyE2EEEEPT_RS8_
FNDA:24,_ZSt11__addressofISaISt23_Sp_counted_ptr_inplaceIN15nav2_costmap_2d12Costmap2DROSESaIS2_ELN9__gnu_cxx12_Lock_policyE2EEEEPT_RS8_
FN:49,_ZSt11__addressofISaISt23_Sp_counted_ptr_inplaceI10ControllerSaIS1_ELN9__gnu_cxx12_Lock_policyE2EEEEPT_RS7_
FNDA:22,_ZSt11__addressofISaISt23_Sp_counted_ptr_inplaceI10ControllerSaIS1_ELN9__gnu_cxx12_Lock_policyE2EEEEPT_RS7_
FN:49,_ZSt11__addressofISt5tupleIJSt4pairIddES2_dS2_EEEPT_RS4_
FNDA:24,_ZSt11__addressofISt5tupleIJSt4pairIddES2_dS2_EEEPT_RS4_
FN:77,_ZSt7forwardISt14default_deleteIN10path_utils10LeftCircleEEEOT_RNSt16remove_referenceIS4_E4typeE
FNDA:24,_ZSt7forwardISt14default_deleteIN10path_utils10LeftCircleEEEOT_RNSt16remove_referenceIS4_E4typeE
FN:77,_ZSt7forwardIRPN10path_utils11PathSegmentEEOT_RNSt16remove_referenceIS4_E4typeE
FNDA:30,_ZSt7forwardIRPN10path_utils11PathSegmentEEOT_RNSt16remove_referenceIS4_E4typeE
FN:77,_ZSt7forwardIN7testing8internal26ParameterizedTestSuiteInfoI29CircleSegmentIntersectionTestE17InstantiationInfoEEOT_RNSt16remove_referenceIS6_E4typeE
FNDA:4,_ZSt7forwardIN7testing8internal26ParameterizedTestSuiteInfoI29CircleSegmentIntersectionTestE17InstantiationInfoEEOT_RNSt16remove_referenceIS6_E4typeE
FN:77,_ZSt7forwardISt10shared_ptrIN7testing8internal26ParameterizedTestSuiteInfoI29CircleSegmentIntersectionTestE8TestInfoEEEOT_RNSt16remove_referenceIS8_E4typeE
FNDA:4,_ZSt7forwardISt10shared_ptrIN7testing8internal26ParameterizedTestSuiteInfoI29CircleSegmentIntersectionTestE8TestInfoEEEOT_RNSt16remove_referenceIS8_E4typeE
FN:77,_ZSt7forwardIPN7testing8internal30ParameterizedTestSuiteInfoBaseEEOT_RNSt16remove_referenceIS4_E4typeE
FNDA:4,_ZSt7forwardIPN7testing8internal30ParameterizedTestSuiteInfoBaseEEOT_RNSt16remove_referenceIS4_E4typeE
FN:77,_ZSt7forwardISt17_Rb_tree_iteratorINSt7__cxx1112basic_stringIcSt11char_traitsIcESaIcEEEEEOT_RNSt16remove_referenceIS8_E4typeE
FNDA:12,_ZSt7forwardISt17_Rb_tree_iteratorINSt7__cxx1112basic_stringIcSt11char_traitsIcESaIcEEEEEOT_RNSt16remove_referenceIS8_E4typeE
FN:77,_ZSt7forwardIbEOT_RNSt16remove_referenceIS0_E4typeE
FNDA:54,_ZSt7forwardIbEOT_RNSt16remove_referenceIS0_E4typeE
FN:77,_ZSt7forwardIRKNSt7__cxx1112basic_stringIcSt11char_traitsIcESaIcEEEEOT_RNSt16remove_referenceIS8_E4typeE
FNDA:549,_ZSt7forwardIRKNSt7__cxx1112basic_stringIcSt11char_traitsIcESaIcEEEEOT_RNSt16remove_referenceIS8_E4typeE
FN:77,_ZSt7forwardIRA7_KcEOT_RNSt16remove_referenceIS3_E4typeE
FNDA:96,_ZSt7forwardIRA7_KcEOT_RNSt16remove_referenceIS3_E4typeE
FN:77,_ZSt7forwardISt10shared_ptrIN6rclcpp5ClockEEEOT_RNSt16remove_referenceIS4_E4typeE
FNDA:96,_ZSt7forwardISt10shared_ptrIN6rclcpp5ClockEEEOT_RNSt16remove_referenceIS4_E4typeE
FN:77,_ZSt7forwardISt14default_deleteIN10path_utils14LeftTurnAroundEEEOT_RNSt16remove_referenceIS4_E4typeE
FNDA:6,_ZSt7forwardISt14default_deleteIN10path_utils14LeftTurnAroundEEEOT_RNSt16remove_referenceIS4_E4typeE
FN:77,_ZSt7forwardISt10shared_ptrIN6rclcpp15node_interfaces18NodeGraphInterfaceEEEOT_RNSt16remove_referenceIS5_E4typeE
FNDA:8,_ZSt7forwardISt10shared_ptrIN6rclcpp15node_interfaces18NodeGraphInterfaceEEEOT_RNSt16remove_referenceIS5_E4typeE
FN:77,_ZSt7forwardIRA13_KcEOT_RNSt16remove_referenceIS3_E4typeE
FNDA:88,_ZSt7forwardIRA13_KcEOT_RNSt16remove_referenceIS3_E4typeE
FN:77,_ZSt7forwardIdEOT_RNSt16remove_referenceIS0_E4typeE
FNDA:75,_ZSt7forwardIdEOT_RNSt16remove_referenceIS0_E4typeE
FN:77,_ZSt7forwardIRKdEOT_RNSt16remove_referenceIS2_E4typeE
FNDA:7,_ZSt7forwardIRKdEOT_RNSt16remove_referenceIS2_E4typeE
FN:77,_ZSt7forwardISt10shared_ptrIN6rclcpp15node_interfaces21NodeServicesInterfaceEEEOT_RNSt16remove_referenceIS5_E4typeE
FNDA:8,_ZSt7forwardISt10shared_ptrIN6rclcpp15node_interfaces21NodeServicesInterfaceEEEOT_RNSt16remove_referenceIS5_E4typeE
FN:77,_ZSt7forwardIN7testing8internal10ValueArrayIJSt5tupleIJSt4pairIddES5_dS5_EES6_S6_S6_S6_S6_S6_S6_S6_S6_S6_S6_EEEEOT_RNSt16remove_referenceIS8_E4typeE
FNDA:0,_ZSt7forwardIN7testing8internal10ValueArrayIJSt5tupleIJSt4pairIddES5_dS5_EES6_S6_S6_S6_S6_S6_S6_S6_S6_S6_S6_EEEEOT_RNSt16remove_referenceIS8_E4typeE
FN:77,_ZSt7forwardISt14default_deleteIN10path_utils8StraightEEEOT_RNSt16remove_referenceIS4_E4typeE
FNDA:30,_ZSt7forwardISt14default_deleteIN10path_utils8StraightEEEOT_RNSt16remove_referenceIS4_E4typeE
FN:77,_ZSt7forwardIRA15_KcEOT_RNSt16remove_referenceIS3_E4typeE
FNDA:8,_ZSt7forwardIRA15_KcEOT_RNSt16remove_referenceIS3_E4typeE
FN:77,_ZSt7forwardISt10shared_ptrIN6rclcpp15node_interfaces17NodeBaseInterfaceEEEOT_RNSt16remove_referenceIS5_E4typeE
FNDA:8,_ZSt7forwardISt10shared_ptrIN6rclcpp15node_interfaces17NodeBaseInterfaceEEEOT_RNSt16remove_referenceIS5_E4typeE
FN:77,_ZSt7forwardISt10shared_ptrIN6rclcpp15node_interfaces19NodeTopicsInterfaceEEEOT_RNSt16remove_referenceIS5_E4typeE
FNDA:8,_ZSt7forwardISt10shared_ptrIN6rclcpp15node_interfaces19NodeTopicsInterfaceEEEOT_RNSt16remove_referenceIS5_E4typeE
FN:77,_ZSt7forwardIRPSt13_Rb_tree_nodeINSt7__cxx1112basic_stringIcSt11char_traitsIcESaIcEEEEEOT_RNSt16remove_referenceISA_E4typeE
FNDA:12,_ZSt7forwardIRPSt13_Rb_tree_nodeINSt7__cxx1112basic_stringIcSt11char_traitsIcESaIcEEEEEOT_RNSt16remove_referenceISA_E4typeE
FN:77,_ZSt7forwardIRKSt5tupleIJSt4pairIddES2_dS2_EEEOT_RNSt16remove_referenceIS6_E4typeE
FNDA:24,_ZSt7forwardIRKSt5tupleIJSt4pairIddES2_dS2_EEEOT_RNSt16remove_referenceIS6_E4typeE
FN:77,_ZSt7forwardIN13geometry_msgs3msg12PoseStamped_ISaIvEEEEOT_RNSt16remove_referenceIS5_E4typeE
FNDA:1226,_ZSt7forwardIN13geometry_msgs3msg12PoseStamped_ISaIvEEEEOT_RNSt16remove_referenceIS5_E4typeE
FN:77,_ZSt7forwardIRKN13geometry_msgs3msg17TransformStamped_ISaIvEEEEOT_RNSt16remove_referenceIS7_E4typeE
FNDA:14,_ZSt7forwardIRKN13geometry_msgs3msg17TransformStamped_ISaIvEEEEOT_RNSt16remove_referenceIS7_E4typeE
FN:77,_ZSt7forwardIRKN6rclcpp9ParameterEEOT_RNSt16remove_referenceIS4_E4typeE
FNDA:65,_ZSt7forwardIRKN6rclcpp9ParameterEEOT_RNSt16remove_referenceIS4_E4typeE
FN:77,_ZSt7forwardIRKN13geometry_msgs3msg12PoseStamped_ISaIvEEEEOT_RNSt16remove_referenceIS7_E4typeE
FNDA:779,_ZSt7forwardIRKN13geometry_msgs3msg12PoseStamped_ISaIvEEEEOT_RNSt16remove_referenceIS7_E4typeE
FN:77,_ZSt7forwardIZN6rclcpp8Executor26spin_until_future_completeISt13shared_futureIN14rcl_interfaces3msg20SetParametersResult_ISaIvEEEElSt5ratioILl1ELl1000EEEENS0_16FutureReturnCodeERKT_NSt6chrono8durationIT0_T1_EEEUlvE_EOSD_RNSt16remove_referenceISD_E4typeE
FNDA:2,_ZSt7forwardIZN6rclcpp8Executor26spin_until_future_completeISt13shared_futureIN14rcl_interfaces3msg20SetParametersResult_ISaIvEEEElSt5ratioILl1ELl1000EEEENS0_16FutureReturnCodeERKT_NSt6chrono8durationIT0_T1_EEEUlvE_EOSD_RNSt16remove_referenceISD_E4typeE
FN:77,_ZSt7forwardIRPSt18_Rb_tree_node_baseEOT_RNSt16remove_referenceIS3_E4typeE
FNDA:13,_ZSt7forwardIRPSt18_Rb_tree_node_baseEOT_RNSt16remove_referenceIS3_E4typeE
FN:77,_ZSt7forwardIRbEOT_RNSt16remove_referenceIS1_E4typeE
FNDA:12,_ZSt7forwardIRbEOT_RNSt16remove_referenceIS1_E4typeE
FN:77,_ZSt7forwardIRSt17_Rb_tree_iteratorINSt7__cxx1112basic_stringIcSt11char_traitsIcESaIcEEEEEOT_RNSt16remove_referenceIS9_E4typeE
FNDA:12,_ZSt7forwardIRSt17_Rb_tree_iteratorINSt7__cxx1112basic_stringIcSt11char_traitsIcESaIcEEEEEOT_RNSt16remove_referenceIS9_E4typeE
FN:104,_ZSt4moveIRPN10path_utils8StraightEEONSt16remove_referenceIT_E4typeEOS5_
FNDA:0,_ZSt4moveIRPN10path_utils8StraightEEONSt16remove_referenceIT_E4typeEOS5_
FN:104,_ZSt4moveIRSt10shared_ptrI10ControllerEEONSt16remove_referenceIT_E4typeEOS5_
FNDA:7,_ZSt4moveIRSt10shared_ptrI10ControllerEEONSt16remove_referenceIT_E4typeEOS5_
FN:104,_ZSt4moveIRN13geometry_msgs3msg12PoseStamped_ISaIvEEEEONSt16remove_referenceIT_E4typeEOS7_
FNDA:818,_ZSt4moveIRN13geometry_msgs3msg12PoseStamped_ISaIvEEEEONSt16remove_referenceIT_E4typeEOS7_
FN:104,_ZSt4moveIRSaIcEEONSt16remove_referenceIT_E4typeEOS3_
FNDA:0,_ZSt4moveIRSaIcEEONSt16remove_referenceIT_E4typeEOS3_
FN:104,_ZSt4moveIRSt10shared_ptrIN6rclcpp5ClockEEEONSt16remove_referenceIT_E4typeEOS6_
FNDA:26,_ZSt4moveIRSt10shared_ptrIN6rclcpp5ClockEEEONSt16remove_referenceIT_E4typeEOS6_
FN:104,_ZSt4moveIRPN25vector_pursuit_controller23VectorPursuitControllerEEONSt16remove_referenceIT_E4typeEOS5_
FNDA:1,_ZSt4moveIRPN25vector_pursuit_controller23VectorPursuitControllerEEONSt16remove_referenceIT_E4typeEOS5_
FN:104,_ZSt4moveIRSt10shared_ptrIN6rclcpp15node_interfaces17NodeBaseInterfaceEEEONSt16remove_referenceIT_E4typeEOS7_
FNDA:1,_ZSt4moveIRSt10shared_ptrIN6rclcpp15node_interfaces17NodeBaseInterfaceEEEONSt16remove_referenceIT_E4typeEOS7_
FN:104,_ZSt4moveIRPN10path_utils11PathSegmentEEONSt16remove_referenceIT_E4typeEOS5_
FNDA:10,_ZSt4moveIRPN10path_utils11PathSegmentEEONSt16remove_referenceIT_E4typeEOS5_
FN:104,_ZSt4moveIRSt10shared_ptrIN6rclcpp15node_interfaces19NodeTopicsInterfaceEEEONSt16remove_referenceIT_E4typeEOS7_
FNDA:1,_ZSt4moveIRSt10shared_ptrIN6rclcpp15node_interfaces19NodeTopicsInterfaceEEEONSt16remove_referenceIT_E4typeEOS7_
FN:104,_ZSt4moveIRPNSt7__cxx1118basic_stringstreamIcSt11char_traitsIcESaIcEEEEONSt16remove_referenceIT_E4typeEOS9_
FNDA:345,_ZSt4moveIRPNSt7__cxx1118basic_stringstreamIcSt11char_traitsIcESaIcEEEEONSt16remove_referenceIT_E4typeEOS9_
FN:104,_ZSt4moveIRPNSt7__cxx1112basic_stringIcSt11char_traitsIcESaIcEEEEONSt16remove_referenceIT_E4typeEOS9_
FNDA:0,_ZSt4moveIRPNSt7__cxx1112basic_stringIcSt11char_traitsIcESaIcEEEEONSt16remove_referenceIT_E4typeEOS9_
FN:104,_ZSt4moveIRSt10shared_ptrIN6rclcpp8contexts14DefaultContextEEEONSt16remove_referenceIT_E4typeEOS7_
FNDA:1,_ZSt4moveIRSt10shared_ptrIN6rclcpp8contexts14DefaultContextEEEONSt16remove_referenceIT_E4typeEOS7_
FN:104,_ZSt4moveIRSt10shared_ptrIN6rclcpp15node_interfaces18NodeGraphInterfaceEEEONSt16remove_referenceIT_E4typeEOS7_
FNDA:1,_ZSt4moveIRSt10shared_ptrIN6rclcpp15node_interfaces18NodeGraphInterfaceEEEONSt16remove_referenceIT_E4typeEOS7_
FN:104,_ZSt4moveIRSt5tupleIJSt4pairIddES2_dS2_EEEONSt16remove_referenceIT_E4typeEOS6_
FNDA:60,_ZSt4moveIRSt5tupleIJSt4pairIddES2_dS2_EEEONSt16remove_referenceIT_E4typeEOS6_
FN:104,_ZSt4moveIRSt10shared_ptrIN6rclcpp15node_interfaces21NodeServicesInterfaceEEEONSt16remove_referenceIT_E4typeEOS7_
FNDA:1,_ZSt4moveIRSt10shared_ptrIN6rclcpp15node_interfaces21NodeServicesInterfaceEEEONSt16remove_referenceIT_E4typeEOS7_
FN:104,_ZSt4moveIRP18rcl_node_options_sEONSt16remove_referenceIT_E4typeEOS4_
FNDA:12,_ZSt4moveIRP18rcl_node_options_sEONSt16remove_referenceIT_E4typeEOS4_
FN:104,_ZSt4moveIRPN7testing8internal22ParamIteratorInterfaceISt5tupleIJSt4pairIddES5_dS5_EEEEEONSt16remove_referenceIT_E4typeEOSB_
FNDA:14,_ZSt4moveIRPN7testing8internal22ParamIteratorInterfaceISt5tupleIJSt4pairIddES5_dS5_EEEEEONSt16remove_referenceIT_E4typeEOSB_
FN:104,_ZSt4moveIRPKSt5tupleIJSt4pairIddES2_dS2_EEEONSt16remove_referenceIT_E4typeEOS8_
FNDA:24,_ZSt4moveIRPKSt5tupleIJSt4pairIddES2_dS2_EEEONSt16remove_referenceIT_E4typeEOS8_
FN:104,_ZSt4moveIRPN15nav2_costmap_2d25FootprintCollisionCheckerIPNS0_9Costmap2DEEEEONSt16remove_referenceIT_E4typeEOS8_
FNDA:12,_ZSt4moveIRPN15nav2_costmap_2d25FootprintCollisionCheckerIPNS0_9Costmap2DEEEEONSt16remove_referenceIT_E4typeEOS8_
FN:104,_ZSt4moveIRSt12__shared_ptrIN16rclcpp_lifecycle13LifecycleNodeELN9__gnu_cxx12_Lock_policyE2EEEONSt16remove_referenceIT_E4typeEOS8_
FNDA:7,_ZSt4moveIRSt12__shared_ptrIN16rclcpp_lifecycle13LifecycleNodeELN9__gnu_cxx12_Lock_policyE2EEEONSt16remove_referenceIT_E4typeEOS8_
FN:104,_ZSt4moveIRPN16rclcpp_lifecycle13LifecycleNodeEEONSt16remove_referenceIT_E4typeEOS5_
FNDA:21,_ZSt4moveIRPN16rclcpp_lifecycle13LifecycleNodeEEONSt16remove_referenceIT_E4typeEOS5_
FN:104,_ZSt4moveIRP10ControllerEONSt16remove_referenceIT_E4typeEOS4_
FNDA:21,_ZSt4moveIRP10ControllerEONSt16remove_referenceIT_E4typeEOS4_
FN:104,_ZSt4moveIRPN7tf2_ros6BufferEEONSt16remove_referenceIT_E4typeEOS5_
FNDA:21,_ZSt4moveIRPN7tf2_ros6BufferEEONSt16remove_referenceIT_E4typeEOS5_
FN:104,_ZSt4moveIRPN15nav2_costmap_2d12Costmap2DROSEEONSt16remove_referenceIT_E4typeEOS5_
FNDA:21,_ZSt4moveIRPN15nav2_costmap_2d12Costmap2DROSEEONSt16remove_referenceIT_E4typeEOS5_
FN:104,_ZSt4moveIRPN7testing8internal19TestMetaFactoryBaseISt5tupleIJSt4pairIddES5_dS5_EEEEEONSt16remove_referenceIT_E4typeEOSB_
FNDA:1,_ZSt4moveIRPN7testing8internal19TestMetaFactoryBaseISt5tupleIJSt4pairIddES5_dS5_EEEEEONSt16remove_referenceIT_E4typeEOSB_
FN:104,_ZSt4moveIRSt12__shared_ptrIN15nav2_costmap_2d12Costmap2DROSELN9__gnu_cxx12_Lock_policyE2EEEONSt16remove_referenceIT_E4typeEOS8_
FNDA:7,_ZSt4moveIRSt12__shared_ptrIN15nav2_costmap_2d12Costmap2DROSELN9__gnu_cxx12_Lock_policyE2EEEONSt16remove_referenceIT_E4typeEOS8_
FN:104,_ZSt4moveIRSt12__shared_ptrIN7tf2_ros6BufferELN9__gnu_cxx12_Lock_policyE2EEEONSt16remove_referenceIT_E4typeEOS8_
FNDA:7,_ZSt4moveIRSt12__shared_ptrIN7tf2_ros6BufferELN9__gnu_cxx12_Lock_policyE2EEEONSt16remove_referenceIT_E4typeEOS8_
FN:104,_ZSt4moveIRSt12__shared_ptrI10ControllerLN9__gnu_cxx12_Lock_policyE2EEEONSt16remove_referenceIT_E4typeEOS7_
FNDA:7,_ZSt4moveIRSt12__shared_ptrI10ControllerLN9__gnu_cxx12_Lock_policyE2EEEONSt16remove_referenceIT_E4typeEOS7_
FN:104,_ZSt4moveIRN7testing8internal26ParameterizedTestSuiteInfoI29CircleSegmentIntersectionTestE17InstantiationInfoEEONSt16remove_referenceIT_E4typeEOS8_
FNDA:1,_ZSt4moveIRN7testing8internal26ParameterizedTestSuiteInfoI29CircleSegmentIntersectionTestE17InstantiationInfoEEONSt16remove_referenceIT_E4typeEOS8_
FN:104,_ZSt4moveIRSt10shared_ptrIN7testing8internal26ParameterizedTestSuiteInfoI29CircleSegmentIntersectionTestE8TestInfoEEEONSt16remove_referenceIT_E4typeEOSA_
FNDA:2,_ZSt4moveIRSt10shared_ptrIN7testing8internal26ParameterizedTestSuiteInfoI29CircleSegmentIntersectionTestE8TestInfoEEEONSt16remove_referenceIT_E4typeEOSA_
FN:104,_ZSt4moveIRPN7testing8internal30ParameterizedTestSuiteInfoBaseEEONSt16remove_referenceIT_E4typeEOS6_
FNDA:1,_ZSt4moveIRPN7testing8internal30ParameterizedTestSuiteInfoBaseEEONSt16remove_referenceIT_E4typeEOS6_
FN:104,_ZSt4moveIRPN10path_utils14LeftTurnAroundEEONSt16remove_referenceIT_E4typeEOS5_
FNDA:0,_ZSt4moveIRPN10path_utils14LeftTurnAroundEEONSt16remove_referenceIT_E4typeEOS5_
FN:104,_ZSt4moveIRPN10path_utils10LeftCircleEEONSt16remove_referenceIT_E4typeEOS5_
FNDA:0,_ZSt4moveIRPN10path_utils10LeftCircleEEONSt16remove_referenceIT_E4typeEOS5_
FN:104,_ZSt4moveIRSt10shared_ptrIN15nav2_costmap_2d12Costmap2DROSEEEONSt16remove_referenceIT_E4typeEOS6_
FNDA:7,_ZSt4moveIRSt10shared_ptrIN15nav2_costmap_2d12Costmap2DROSEEEONSt16remove_referenceIT_E4typeEOS6_
FN:104,_ZSt4moveIRSt10shared_ptrIN7tf2_ros6BufferEEEONSt16remove_referenceIT_E4typeEOS6_
FNDA:7,_ZSt4moveIRSt10shared_ptrIN7tf2_ros6BufferEEEONSt16remove_referenceIT_E4typeEOS6_
FN:104,_ZSt4moveIRSt10shared_ptrIN16rclcpp_lifecycle13LifecycleNodeEEEONSt16remove_referenceIT_E4typeEOS6_
FNDA:7,_ZSt4moveIRSt10shared_ptrIN16rclcpp_lifecycle13LifecycleNodeEEEONSt16remove_referenceIT_E4typeEOS6_
FN:196,_ZSt4swapIPN16rclcpp_lifecycle13LifecycleNodeEENSt9enable_ifIXsrSt6__and_IJSt6__not_ISt15__is_tuple_likeIT_EESt21is_move_constructibleIS7_ESt18is_move_assignableIS7_EEE5valueEvE4typeERS7_SH_
FNDA:7,_ZSt4swapIPN16rclcpp_lifecycle13LifecycleNodeEENSt9enable_ifIXsrSt6__and_IJSt6__not_ISt15__is_tuple_likeIT_EESt21is_move_constructibleIS7_ESt18is_move_assignableIS7_EEE5valueEvE4typeERS7_SH_
FN:196,_ZSt4swapIPN15nav2_costmap_2d12Costmap2DROSEENSt9enable_ifIXsrSt6__and_IJSt6__not_ISt15__is_tuple_likeIT_EESt21is_move_constructibleIS7_ESt18is_move_assignableIS7_EEE5valueEvE4typeERS7_SH_
FNDA:7,_ZSt4swapIPN15nav2_costmap_2d12Costmap2DROSEENSt9enable_ifIXsrSt6__and_IJSt6__not_ISt15__is_tuple_likeIT_EESt21is_move_constructibleIS7_ESt18is_move_assignableIS7_EEE5valueEvE4typeERS7_SH_
FN:196,_ZSt4swapIPN7tf2_ros6BufferEENSt9enable_ifIXsrSt6__and_IJSt6__not_ISt15__is_tuple_likeIT_EESt21is_move_constructibleIS7_ESt18is_move_assignableIS7_EEE5valueEvE4typeERS7_SH_
FNDA:7,_ZSt4swapIPN7tf2_ros6BufferEENSt9enable_ifIXsrSt6__and_IJSt6__not_ISt15__is_tuple_likeIT_EESt21is_move_constructibleIS7_ESt18is_move_assignableIS7_EEE5valueEvE4typeERS7_SH_
FN:196,_ZSt4swapIP10ControllerENSt9enable_ifIXsrSt6__and_IJSt6__not_ISt15__is_tuple_likeIT_EESt21is_move_constructibleIS6_ESt18is_move_assignableIS6_EEE5valueEvE4typeERS6_SG_
FNDA:7,_ZSt4swapIP10ControllerENSt9enable_ifIXsrSt6__and_IJSt6__not_ISt15__is_tuple_likeIT_EESt21is_move_constructibleIS6_ESt18is_move_assignableIS6_EEE5valueEvE4typeERS6_SG_
DA:49,24
DA:50,24
DA:49,22
DA:50,22
DA:49,24
DA:50,24
DA:49,24
DA:50,24
DA:49,24
DA:50,24
DA:49,2
DA:50,2
DA:49,1
DA:50,1
DA:49,1
DA:50,1
DA:49,130
DA:50,130
DA:49,28
DA:50,28
DA:49,3571
DA:50,3571
DA:49,35
DA:50,35
DA:49,0
DA:50,0
DA:49,3633
DA:50,3633
DA:77,6
DA:78,6
DA:77,54
DA:78,54
DA:77,549
DA:78,549
DA:77,96
DA:78,96
DA:77,96
DA:78,96
DA:77,88
DA:78,88
DA:77,75
DA:78,75
DA:77,0
DA:78,0
DA:77,30
DA:78,30
DA:77,8
DA:78,8
DA:77,8
DA:78,8
DA:77,8
DA:78,8
DA:77,8
DA:78,8
DA:77,8
DA:78,8
DA:77,7
DA:78,7
DA:77,24
DA:78,24
DA:77,12
DA:78,12
DA:77,4
DA:78,4
DA:77,4
DA:78,4
DA:77,4
DA:78,4
DA:77,30
DA:78,30
DA:77,13
DA:78,13
DA:77,2
DA:78,2
DA:77,779
DA:78,779
DA:77,65
DA:78,65
DA:77,14
DA:78,14
DA:77,1226
DA:78,1226
DA:77,24
DA:78,24
DA:77,12
DA:78,12
DA:77,12
DA:78,12
DA:77,12
DA:78,12
DA:104,10
DA:105,10
DA:104,1
DA:105,1
DA:104,0
DA:105,0
DA:104,0
DA:105,0
DA:104,7
DA:105,7
DA:104,7
DA:105,7
DA:104,7
DA:105,7
DA:104,7
DA:105,7
DA:104,1
DA:105,1
DA:104,2
DA:105,2
DA:104,0
DA:105,0
DA:104,60
DA:105,60
DA:104,12
DA:105,12
DA:104,1
DA:105,1
DA:104,0
DA:105,0
DA:104,345
DA:105,345
DA:104,0
DA:105,0
DA:104,818
DA:105,818
DA:104,21
DA:105,21
DA:104,14
DA:105,14
DA:104,12
DA:105,12
DA:104,1
DA:105,1
DA:104,1
DA:105,1
DA:104,1
DA:105,1
DA:104,1
DA:105,1
DA:104,26
DA:105,26
DA:104,21
DA:105,21
DA:104,24
DA:105,24
DA:104,21
DA:105,21
DA:104,21
DA:105,21
DA:104,1
DA:105,1
DA:104,7
DA:105,7
DA:104,7
DA:105,7
DA:104,7
DA:105,7
DA:104,7
DA:105,7
DA:104,1
DA:105,1
DA:196,7
DA:204,7
DA:205,7
DA:206,7
DA:207,7
DA:196,7
DA:204,7
DA:205,7
DA:206,7
DA:207,7
DA:196,7
DA:204,7
DA:205,7
DA:206,7
DA:207,7
DA:196,7
DA:204,7
DA:205,7
DA:206,7
DA:207,7
end_of_record
SF:/usr/include/c++/11/ext/aligned_buffer.h
FN:64,_ZN9__gnu_cxx16__aligned_membufINSt7__cxx1112basic_stringIcSt11char_traitsIcESaIcEEEE7_M_addrEv
FNDA:24,_ZN9__gnu_cxx16__aligned_membufINSt7__cxx1112basic_stringIcSt11char_traitsIcESaIcEEEE7_M_addrEv
FN:68,_ZNK9__gnu_cxx16__aligned_membufINSt7__cxx1112basic_stringIcSt11char_traitsIcESaIcEEEE7_M_addrEv
FNDA:92,_ZNK9__gnu_cxx16__aligned_membufINSt7__cxx1112basic_stringIcSt11char_traitsIcESaIcEEEE7_M_addrEv
FN:72,_ZN9__gnu_cxx16__aligned_membufINSt7__cxx1112basic_stringIcSt11char_traitsIcESaIcEEEE6_M_ptrEv
FNDA:24,_ZN9__gnu_cxx16__aligned_membufINSt7__cxx1112basic_stringIcSt11char_traitsIcESaIcEEEE6_M_ptrEv
FN:76,_ZNK9__gnu_cxx16__aligned_membufINSt7__cxx1112basic_stringIcSt11char_traitsIcESaIcEEEE6_M_ptrEv
FNDA:92,_ZNK9__gnu_cxx16__aligned_membufINSt7__cxx1112basic_stringIcSt11char_traitsIcESaIcEEEE6_M_ptrEv
FN:102,_ZN9__gnu_cxx16__aligned_bufferI10ControllerE7_M_addrEv
FNDA:33,_ZN9__gnu_cxx16__aligned_bufferI10ControllerE7_M_addrEv
FN:102,_ZN9__gnu_cxx16__aligned_bufferIN15nav2_costmap_2d12Costmap2DROSEE7_M_addrEv
FNDA:36,_ZN9__gnu_cxx16__aligned_bufferIN15nav2_costmap_2d12Costmap2DROSEE7_M_addrEv
FN:102,_ZN9__gnu_cxx16__aligned_bufferIN7tf2_ros6BufferEE7_M_addrEv
FNDA:36,_ZN9__gnu_cxx16__aligned_bufferIN7tf2_ros6BufferEE7_M_addrEv
FN:102,_ZN9__gnu_cxx16__aligned_bufferIN16rclcpp_lifecycle13LifecycleNodeEE7_M_addrEv
FNDA:36,_ZN9__gnu_cxx16__aligned_bufferIN16rclcpp_lifecycle13LifecycleNodeEE7_M_addrEv
FN:102,_ZN9__gnu_cxx16__aligned_bufferIN6rclcpp21AsyncParametersClientEE7_M_addrEv
FNDA:3,_ZN9__gnu_cxx16__aligned_bufferIN6rclcpp21AsyncParametersClientEE7_M_addrEv
FN:114,_ZN9__gnu_cxx16__aligned_bufferI10ControllerE6_M_ptrEv
FNDA:33,_ZN9__gnu_cxx16__aligned_bufferI10ControllerE6_M_ptrEv
FN:114,_ZN9__gnu_cxx16__aligned_bufferIN15nav2_costmap_2d12Costmap2DROSEE6_M_ptrEv
FNDA:36,_ZN9__gnu_cxx16__aligned_bufferIN15nav2_costmap_2d12Costmap2DROSEE6_M_ptrEv
FN:114,_ZN9__gnu_cxx16__aligned_bufferIN7tf2_ros6BufferEE6_M_ptrEv
FNDA:36,_ZN9__gnu_cxx16__aligned_bufferIN7tf2_ros6BufferEE6_M_ptrEv
FN:114,_ZN9__gnu_cxx16__aligned_bufferIN16rclcpp_lifecycle13LifecycleNodeEE6_M_ptrEv
FNDA:36,_ZN9__gnu_cxx16__aligned_bufferIN16rclcpp_lifecycle13LifecycleNodeEE6_M_ptrEv
FN:114,_ZN9__gnu_cxx16__aligned_bufferIN6rclcpp21AsyncParametersClientEE6_M_ptrEv
FNDA:3,_ZN9__gnu_cxx16__aligned_bufferIN6rclcpp21AsyncParametersClientEE6_M_ptrEv
DA:64,24
DA:65,24
DA:68,92
DA:69,92
DA:72,24
DA:73,24
DA:76,92
DA:77,92
DA:102,33
DA:104,33
DA:102,36
DA:104,36
DA:102,36
DA:104,36
DA:102,36
DA:104,36
DA:102,3
DA:104,3
DA:114,33
DA:115,33
DA:114,36
DA:115,36
DA:114,36
DA:115,36
DA:114,36
DA:115,36
DA:114,3
DA:115,3
end_of_record
SF:/opt/ros/humble/include/tf2_geometry_msgs/tf2_geometry_msgs/tf2_geometry_msgs.hpp
FN:918,_ZN3tf25toMsgERKNS_10QuaternionE
FNDA:759,_ZN3tf25toMsgERKNS_10QuaternionE
DA:918,759
DA:920,759
DA:921,759
DA:922,759
DA:923,759
DA:924,759
DA:925,759
end_of_record
SF:/usr/include/c++/11/tuple
FN:80,_ZNSt10_Head_baseILm1ESt14default_deleteIN10path_utils8StraightEELb1EEC2Ev
FNDA:5,_ZNSt10_Head_baseILm1ESt14default_deleteIN10path_utils8StraightEELb1EEC2Ev
FN:80,_ZNSt10_Head_baseILm1ESt14default_deleteIN25vector_pursuit_controller23VectorPursuitControllerEELb1EEC2Ev
FNDA:1,_ZNSt10_Head_baseILm1ESt14default_deleteIN25vector_pursuit_controller23VectorPursuitControllerEELb1EEC2Ev
FN:80,_ZNSt10_Head_baseILm1ESt14default_deleteIN7testing8internal22ParamIteratorInterfaceISt5tupleIJSt4pairIddES6_dS6_EEEEELb1EEC2Ev
FNDA:14,_ZNSt10_Head_baseILm1ESt14default_deleteIN7testing8internal22ParamIteratorInterfaceISt5tupleIJSt4pairIddES6_dS6_EEEEELb1EEC2Ev
FN:80,_ZNSt10_Head_baseILm1ESt14default_deleteIN10path_utils10LeftCircleEELb1EEC2Ev
FNDA:4,_ZNSt10_Head_baseILm1ESt14default_deleteIN10path_utils10LeftCircleEELb1EEC2Ev
FN:80,_ZNSt10_Head_baseILm1ESt14default_deleteIN10path_utils14LeftTurnAroundEELb1EEC2Ev
FNDA:1,_ZNSt10_Head_baseILm1ESt14default_deleteIN10path_utils14LeftTurnAroundEELb1EEC2Ev
FN:80,_ZNSt10_Head_baseILm1ESt14default_deleteIN7testing8internal19TestMetaFactoryBaseISt5tupleIJSt4pairIddES6_dS6_EEEEELb1EEC2Ev
FNDA:1,_ZNSt10_Head_baseILm1ESt14default_deleteIN7testing8internal19TestMetaFactoryBaseISt5tupleIJSt4pairIddES6_dS6_EEEEELb1EEC2Ev
FN:80,_ZNSt10_Head_baseILm1ESt14default_deleteIN15nav2_costmap_2d25FootprintCollisionCheckerIPNS1_9Costmap2DEEEELb1EEC2Ev
FNDA:26,_ZNSt10_Head_baseILm1ESt14default_deleteIN15nav2_costmap_2d25FootprintCollisionCheckerIPNS1_9Costmap2DEEEELb1EEC2Ev
FN:80,_ZNSt10_Head_baseILm1ESt14default_deleteIKSt5tupleIJSt4pairIddES3_dS3_EEELb1EEC2Ev
FNDA:14,_ZNSt10_Head_baseILm1ESt14default_deleteIKSt5tupleIJSt4pairIddES3_dS3_EEELb1EEC2Ev
FN:80,_ZNSt10_Head_baseILm1ESt14default_deleteINSt7__cxx1112basic_stringIcSt11char_traitsIcESaIcEEEELb1EEC2Ev
FNDA:134,_ZNSt10_Head_baseILm1ESt14default_deleteINSt7__cxx1112basic_stringIcSt11char_traitsIcESaIcEEEELb1EEC2Ev
FN:90,_ZNSt10_Head_baseILm1ESt14default_deleteIN10path_utils11PathSegmentEELb1EEC2IS0_INS1_8StraightEEEEOT_
FNDA:5,_ZNSt10_Head_baseILm1ESt14default_deleteIN10path_utils11PathSegmentEELb1EEC2IS0_INS1_8StraightEEEEOT_
FN:90,_ZNSt10_Head_baseILm1ESt14default_deleteIN10path_utils11PathSegmentEELb1EEC2IS0_INS1_14LeftTurnAroundEEEEOT_
FNDA:1,_ZNSt10_Head_baseILm1ESt14default_deleteIN10path_utils11PathSegmentEELb1EEC2IS0_INS1_14LeftTurnAroundEEEEOT_
FN:90,_ZNSt10_Head_baseILm1ESt14default_deleteIN10path_utils11PathSegmentEELb1EEC2IS0_INS1_10LeftCircleEEEEOT_
FNDA:4,_ZNSt10_Head_baseILm1ESt14default_deleteIN10path_utils11PathSegmentEELb1EEC2IS0_INS1_10LeftCircleEEEEOT_
FN:124,_ZNSt10_Head_baseILm1ESt14default_deleteINSt7__cxx1118basic_stringstreamIcSt11char_traitsIcESaIcEEEELb1EE7_M_headERS8_
FNDA:345,_ZNSt10_Head_baseILm1ESt14default_deleteINSt7__cxx1118basic_stringstreamIcSt11char_traitsIcESaIcEEEELb1EE7_M_headERS8_
FN:124,_ZNSt10_Head_baseILm1ESt14default_deleteIN7testing8internal22ParamIteratorInterfaceISt5tupleIJSt4pairIddES6_dS6_EEEEELb1EE7_M_headERSA_
FNDA:14,_ZNSt10_Head_baseILm1ESt14default_deleteIN7testing8internal22ParamIteratorInterfaceISt5tupleIJSt4pairIddES6_dS6_EEEEELb1EE7_M_headERSA_
FN:124,_ZNSt10_Head_baseILm1ESt14default_deleteIN7testing8internal19TestMetaFactoryBaseISt5tupleIJSt4pairIddES6_dS6_EEEEELb1EE7_M_headERSA_
FNDA:1,_ZNSt10_Head_baseILm1ESt14default_deleteIN7testing8internal19TestMetaFactoryBaseISt5tupleIJSt4pairIddES6_dS6_EEEEELb1EE7_M_headERSA_
FN:124,_ZNSt10_Head_baseILm1ESt14default_deleteIN10path_utils14LeftTurnAroundEELb1EE7_M_headERS4_
FNDA:1,_ZNSt10_Head_baseILm1ESt14default_deleteIN10path_utils14LeftTurnAroundEELb1EE7_M_headERS4_
FN:124,_ZNSt10_Head_baseILm1ESt14default_deleteIN10path_utils10LeftCircleEELb1EE7_M_headERS4_
FNDA:4,_ZNSt10_Head_baseILm1ESt14default_deleteIN10path_utils10LeftCircleEELb1EE7_M_headERS4_
FN:124,_ZNSt10_Head_baseILm1ESt14default_deleteIKSt5tupleIJSt4pairIddES3_dS3_EEELb1EE7_M_headERS7_
FNDA:12,_ZNSt10_Head_baseILm1ESt14default_deleteIKSt5tupleIJSt4pairIddES3_dS3_EEELb1EE7_M_headERS7_
FN:124,_ZNSt10_Head_baseILm1ESt14default_deleteIN25vector_pursuit_controller23VectorPursuitControllerEELb1EE7_M_headERS4_
FNDA:1,_ZNSt10_Head_baseILm1ESt14default_deleteIN25vector_pursuit_controller23VectorPursuitControllerEELb1EE7_M_headERS4_
FN:124,_ZNSt10_Head_baseILm1ESt14default_deleteIN10path_utils11PathSegmentEELb1EE7_M_headERS4_
FNDA:10,_ZNSt10_Head_baseILm1ESt14default_deleteIN10path_utils11PathSegmentEELb1EE7_M_headERS4_
FN:124,_ZNSt10_Head_baseILm1ESt14default_deleteIN10path_utils8StraightEELb1EE7_M_headERS4_
FNDA:5,_ZNSt10_Head_baseILm1ESt14default_deleteIN10path_utils8StraightEELb1EE7_M_headERS4_
FN:124,_ZNSt10_Head_baseILm1ESt14default_deleteIN15nav2_costmap_2d25FootprintCollisionCheckerIPNS1_9Costmap2DEEEELb1EE7_M_headERS7_
FNDA:42,_ZNSt10_Head_baseILm1ESt14default_deleteIN15nav2_costmap_2d25FootprintCollisionCheckerIPNS1_9Costmap2DEEEELb1EE7_M_headERS7_
FN:124,_ZNSt10_Head_baseILm1ESt14default_deleteINSt7__cxx1112basic_stringIcSt11char_traitsIcESaIcEEEELb1EE7_M_headERS8_
FNDA:0,_ZNSt10_Head_baseILm1ESt14default_deleteINSt7__cxx1112basic_stringIcSt11char_traitsIcESaIcEEEELb1EE7_M_headERS8_
FN:189,_ZNSt10_Head_baseILm0EPNSt7__cxx1112basic_stringIcSt11char_traitsIcESaIcEEELb0EEC2Ev
FNDA:134,_ZNSt10_Head_baseILm0EPNSt7__cxx1112basic_stringIcSt11char_traitsIcESaIcEEELb0EEC2Ev
FN:189,_ZNSt10_Head_baseILm0EPN10path_utils14LeftTurnAroundELb0EEC2Ev
FNDA:1,_ZNSt10_Head_baseILm0EPN10path_utils14LeftTurnAroundELb0EEC2Ev
FN:189,_ZNSt10_Head_baseILm0EPN7testing8internal19TestMetaFactoryBaseISt5tupleIJSt4pairIddES5_dS5_EEEELb0EEC2Ev
FNDA:1,_ZNSt10_Head_baseILm0EPN7testing8internal19TestMetaFactoryBaseISt5tupleIJSt4pairIddES5_dS5_EEEELb0EEC2Ev
FN:189,_ZNSt10_Head_baseILm0EPN15nav2_costmap_2d25FootprintCollisionCheckerIPNS0_9Costmap2DEEELb0EEC2Ev
FNDA:26,_ZNSt10_Head_baseILm0EPN15nav2_costmap_2d25FootprintCollisionCheckerIPNS0_9Costmap2DEEELb0EEC2Ev
FN:189,_ZNSt10_Head_baseILm0EPN10path_utils10LeftCircleELb0EEC2Ev
FNDA:4,_ZNSt10_Head_baseILm0EPN10path_utils10LeftCircleELb0EEC2Ev
FN:189,_ZNSt10_Head_baseILm0EPKSt5tupleIJSt4pairIddES2_dS2_EELb0EEC2Ev
FNDA:14,_ZNSt10_Head_baseILm0EPKSt5tupleIJSt4pairIddES2_dS2_EELb0EEC2Ev
FN:189,_ZNSt10_Head_baseILm0EPN25vector_pursuit_controller23VectorPursuitControllerELb0EEC2Ev
FNDA:1,_ZNSt10_Head_baseILm0EPN25vector_pursuit_controller23VectorPursuitControllerELb0EEC2Ev
FN:189,_ZNSt10_Head_baseILm0EPN7testing8internal22ParamIteratorInterfaceISt5tupleIJSt4pairIddES5_dS5_EEEELb0EEC2Ev
FNDA:14,_ZNSt10_Head_baseILm0EPN7testing8internal22ParamIteratorInterfaceISt5tupleIJSt4pairIddES5_dS5_EEEELb0EEC2Ev
FN:189,_ZNSt10_Head_baseILm0EPN10path_utils8StraightELb0EEC2Ev
FNDA:5,_ZNSt10_Head_baseILm0EPN10path_utils8StraightELb0EEC2Ev
FN:192,_ZNSt10_Head_baseILm2EdLb0EEC2ERKd
FNDA:12,_ZNSt10_Head_baseILm2EdLb0EEC2ERKd
FN:192,_ZNSt10_Head_baseILm0ESt4pairIddELb0EEC2ERKS1_
FNDA:12,_ZNSt10_Head_baseILm0ESt4pairIddELb0EEC2ERKS1_
FN:192,_ZNSt10_Head_baseILm3ESt4pairIddELb0EEC2ERKS1_
FNDA:12,_ZNSt10_Head_baseILm3ESt4pairIddELb0EEC2ERKS1_
FN:192,_ZNSt10_Head_baseILm1ESt4pairIddELb0EEC2ERKS1_
FNDA:12,_ZNSt10_Head_baseILm1ESt4pairIddELb0EEC2ERKS1_
FN:199,_ZNSt10_Head_baseILm0EN7testing8internal10ValueArrayIJSt5tupleIJSt4pairIddES5_dS5_EES6_S6_S6_S6_S6_S6_S6_S6_S6_S6_S6_EEELb0EEC2IS7_EEOT_
FNDA:0,_ZNSt10_Head_baseILm0EN7testing8internal10ValueArrayIJSt5tupleIJSt4pairIddES5_dS5_EES6_S6_S6_S6_S6_S6_S6_S6_S6_S6_S6_EEELb0EEC2IS7_EEOT_
FN:199,_ZNSt10_Head_baseILm0EPN10path_utils11PathSegmentELb0EEC2IRS2_EEOT_
FNDA:10,_ZNSt10_Head_baseILm0EPN10path_utils11PathSegmentELb0EEC2IRS2_EEOT_
FN:233,_ZNSt10_Head_baseILm0EPN10path_utils8StraightELb0EE7_M_headERS3_
FNDA:20,_ZNSt10_Head_baseILm0EPN10path_utils8StraightELb0EE7_M_headERS3_
FN:233,_ZNSt10_Head_baseILm0EPNSt7__cxx1118basic_stringstreamIcSt11char_traitsIcESaIcEEELb0EE7_M_headERS7_
FNDA:690,_ZNSt10_Head_baseILm0EPNSt7__cxx1118basic_stringstreamIcSt11char_traitsIcESaIcEEELb0EE7_M_headERS7_
FN:233,_ZNSt10_Head_baseILm0EP18rcl_node_options_sLb0EE7_M_headERS2_
FNDA:12,_ZNSt10_Head_baseILm0EP18rcl_node_options_sLb0EE7_M_headERS2_
FN:233,_ZNSt10_Head_baseILm0EPN7testing8internal22ParamIteratorInterfaceISt5tupleIJSt4pairIddES5_dS5_EEEELb0EE7_M_headERS9_
FNDA:28,_ZNSt10_Head_baseILm0EPN7testing8internal22ParamIteratorInterfaceISt5tupleIJSt4pairIddES5_dS5_EEEELb0EE7_M_headERS9_
FN:233,_ZNSt10_Head_baseILm0EPN7testing8internal19TestMetaFactoryBaseISt5tupleIJSt4pairIddES5_dS5_EEEELb0EE7_M_headERS9_
FNDA:2,_ZNSt10_Head_baseILm0EPN7testing8internal19TestMetaFactoryBaseISt5tupleIJSt4pairIddES5_dS5_EEEELb0EE7_M_headERS9_
FN:233,_ZNSt10_Head_baseILm0EPN10path_utils10LeftCircleELb0EE7_M_headERS3_
FNDA:16,_ZNSt10_Head_baseILm0EPN10path_utils10LeftCircleELb0EE7_M_headERS3_
FN:233,_ZNSt10_Head_baseILm0EPNSt7__cxx1112basic_stringIcSt11char_traitsIcESaIcEEELb0EE7_M_headERS7_
FNDA:134,_ZNSt10_Head_baseILm0EPNSt7__cxx1112basic_stringIcSt11char_traitsIcESaIcEEELb0EE7_M_headERS7_
FN:233,_ZNSt10_Head_baseILm0EPN10path_utils14LeftTurnAroundELb0EE7_M_headERS3_
FNDA:4,_ZNSt10_Head_baseILm0EPN10path_utils14LeftTurnAroundELb0EE7_M_headERS3_
FN:233,_ZNSt10_Head_baseILm1EPFvP18rcl_node_options_sELb0EE7_M_headERS4_
FNDA:12,_ZNSt10_Head_baseILm1EPFvP18rcl_node_options_sELb0EE7_M_headERS4_
FN:233,_ZNSt10_Head_baseILm0EPN15nav2_costmap_2d25FootprintCollisionCheckerIPNS0_9Costmap2DEEELb0EE7_M_headERS6_
FNDA:96,_ZNSt10_Head_baseILm0EPN15nav2_costmap_2d25FootprintCollisionCheckerIPNS0_9Costmap2DEEELb0EE7_M_headERS6_
FN:233,_ZNSt10_Head_baseILm0EPKSt5tupleIJSt4pairIddES2_dS2_EELb0EE7_M_headERS6_
FNDA:62,_ZNSt10_Head_baseILm0EPKSt5tupleIJSt4pairIddES2_dS2_EELb0EE7_M_headERS6_
FN:233,_ZNSt10_Head_baseILm0EPN25vector_pursuit_controller23VectorPursuitControllerELb0EE7_M_headERS3_
FNDA:3,_ZNSt10_Head_baseILm0EPN25vector_pursuit_controller23VectorPursuitControllerELb0EE7_M_headERS3_
FN:233,_ZNSt10_Head_baseILm0EPN10path_utils11PathSegmentELb0EE7_M_headERS3_
FNDA:10,_ZNSt10_Head_baseILm0EPN10path_utils11PathSegmentELb0EE7_M_headERS3_
FN:236,_ZNSt10_Head_baseILm0EPNSt7__cxx1118basic_stringstreamIcSt11char_traitsIcESaIcEEELb0EE7_M_headERKS7_
FNDA:3984,_ZNSt10_Head_baseILm0EPNSt7__cxx1118basic_stringstreamIcSt11char_traitsIcESaIcEEELb0EE7_M_headERKS7_
FN:236,_ZNSt10_Head_baseILm0EPKSt5tupleIJSt4pairIddES2_dS2_EELb0EE7_M_headERKS6_
FNDA:72,_ZNSt10_Head_baseILm0EPKSt5tupleIJSt4pairIddES2_dS2_EELb0EE7_M_headERKS6_
FN:236,_ZNSt10_Head_baseILm0EPN7testing8internal19TestMetaFactoryBaseISt5tupleIJSt4pairIddES5_dS5_EEEELb0EE7_M_headERKS9_
FNDA:12,_ZNSt10_Head_baseILm0EPN7testing8internal19TestMetaFactoryBaseISt5tupleIJSt4pairIddES5_dS5_EEEELb0EE7_M_headERKS9_
FN:236,_ZNSt10_Head_baseILm0EPN7testing8internal22ParamIteratorInterfaceISt5tupleIJSt4pairIddES5_dS5_EEEELb0EE7_M_headERKS9_
FNDA:100,_ZNSt10_Head_baseILm0EPN7testing8internal22ParamIteratorInterfaceISt5tupleIJSt4pairIddES5_dS5_EEEELb0EE7_M_headERKS9_
FN:236,_ZNSt10_Head_baseILm0EPN25vector_pursuit_controller23VectorPursuitControllerELb0EE7_M_headERKS3_
FNDA:2,_ZNSt10_Head_baseILm0EPN25vector_pursuit_controller23VectorPursuitControllerELb0EE7_M_headERKS3_
FN:236,_ZNSt10_Head_baseILm0EPNSt7__cxx1112basic_stringIcSt11char_traitsIcESaIcEEELb0EE7_M_headERKS7_
FNDA:0,_ZNSt10_Head_baseILm0EPNSt7__cxx1112basic_stringIcSt11char_traitsIcESaIcEEELb0EE7_M_headERKS7_
FN:236,_ZNSt10_Head_baseILm3ESt4pairIddELb0EE7_M_headERKS2_
FNDA:24,_ZNSt10_Head_baseILm3ESt4pairIddELb0EE7_M_headERKS2_
FN:236,_ZNSt10_Head_baseILm2EdLb0EE7_M_headERKS0_
FNDA:24,_ZNSt10_Head_baseILm2EdLb0EE7_M_headERKS0_
FN:236,_ZNSt10_Head_baseILm1ESt4pairIddELb0EE7_M_headERKS2_
FNDA:24,_ZNSt10_Head_baseILm1ESt4pairIddELb0EE7_M_headERKS2_
FN:236,_ZNSt10_Head_baseILm0ESt4pairIddELb0EE7_M_headERKS2_
FNDA:24,_ZNSt10_Head_baseILm0ESt4pairIddELb0EE7_M_headERKS2_
FN:268,_ZNSt11_Tuple_implILm0EJPN10path_utils14LeftTurnAroundESt14default_deleteIS1_EEE7_M_headERS5_
FNDA:4,_ZNSt11_Tuple_implILm0EJPN10path_utils14LeftTurnAroundESt14default_deleteIS1_EEE7_M_headERS5_
FN:268,_ZNSt11_Tuple_implILm0EJPN15nav2_costmap_2d25FootprintCollisionCheckerIPNS0_9Costmap2DEEESt14default_deleteIS4_EEE7_M_headERS8_
FNDA:96,_ZNSt11_Tuple_implILm0EJPN15nav2_costmap_2d25FootprintCollisionCheckerIPNS0_9Costmap2DEEESt14default_deleteIS4_EEE7_M_headERS8_
FN:268,_ZNSt11_Tuple_implILm0EJPNSt7__cxx1112basic_stringIcSt11char_traitsIcESaIcEEESt14default_deleteIS5_EEE7_M_headERS9_
FNDA:134,_ZNSt11_Tuple_implILm0EJPNSt7__cxx1112basic_stringIcSt11char_traitsIcESaIcEEESt14default_deleteIS5_EEE7_M_headERS9_
FN:268,_ZNSt11_Tuple_implILm0EJPN10path_utils8StraightESt14default_deleteIS1_EEE7_M_headERS5_
FNDA:20,_ZNSt11_Tuple_implILm0EJPN10path_utils8StraightESt14default_deleteIS1_EEE7_M_headERS5_
FN:268,_ZNSt11_Tuple_implILm0EJPN10path_utils10LeftCircleESt14default_deleteIS1_EEE7_M_headERS5_
FNDA:16,_ZNSt11_Tuple_implILm0EJPN10path_utils10LeftCircleESt14default_deleteIS1_EEE7_M_headERS5_
FN:268,_ZNSt11_Tuple_implILm0EJPN10path_utils11PathSegmentESt14default_deleteIS1_EEE7_M_headERS5_
FNDA:10,_ZNSt11_Tuple_implILm0EJPN10path_utils11PathSegmentESt14default_deleteIS1_EEE7_M_headERS5_
FN:268,_ZNSt11_Tuple_implILm0EJPN25vector_pursuit_controller23VectorPursuitControllerESt14default_deleteIS1_EEE7_M_headERS5_
FNDA:2,_ZNSt11_Tuple_implILm0EJPN25vector_pursuit_controller23VectorPursuitControllerESt14default_deleteIS1_EEE7_M_headERS5_
FN:268,_ZNSt11_Tuple_implILm0EJPNSt7__cxx1118basic_stringstreamIcSt11char_traitsIcESaIcEEESt14default_deleteIS5_EEE7_M_headERS9_
FNDA:690,_ZNSt11_Tuple_implILm0EJPNSt7__cxx1118basic_stringstreamIcSt11char_traitsIcESaIcEEESt14default_deleteIS5_EEE7_M_headERS9_
FN:268,_ZNSt11_Tuple_implILm0EJP18rcl_node_options_sPFvS1_EEE7_M_headERS4_
FNDA:12,_ZNSt11_Tuple_implILm0EJP18rcl_node_options_sPFvS1_EEE7_M_headERS4_
FN:268,_ZNSt11_Tuple_implILm0EJPN7testing8internal19TestMetaFactoryBaseISt5tupleIJSt4pairIddES5_dS5_EEEESt14default_deleteIS7_EEE7_M_headERSB_
FNDA:2,_ZNSt11_Tuple_implILm0EJPN7testing8internal19TestMetaFactoryBaseISt5tupleIJSt4pairIddES5_dS5_EEEESt14default_deleteIS7_EEE7_M_headERSB_
FN:268,_ZNSt11_Tuple_implILm0EJPKSt5tupleIJSt4pairIddES2_dS2_EESt14default_deleteIS4_EEE7_M_headERS8_
FNDA:62,_ZNSt11_Tuple_implILm0EJPKSt5tupleIJSt4pairIddES2_dS2_EESt14default_deleteIS4_EEE7_M_headERS8_
FN:268,_ZNSt11_Tuple_implILm0EJPN7testing8internal22ParamIteratorInterfaceISt5tupleIJSt4pairIddES5_dS5_EEEESt14default_deleteIS7_EEE7_M_headERSB_
FNDA:28,_ZNSt11_Tuple_implILm0EJPN7testing8internal22ParamIteratorInterfaceISt5tupleIJSt4pairIddES5_dS5_EEEESt14default_deleteIS7_EEE7_M_headERSB_
FN:271,_ZNSt11_Tuple_implILm0EJPN25vector_pursuit_controller23VectorPursuitControllerESt14default_deleteIS1_EEE7_M_headERKS5_
FNDA:2,_ZNSt11_Tuple_implILm0EJPN25vector_pursuit_controller23VectorPursuitControllerESt14default_deleteIS1_EEE7_M_headERKS5_
FN:271,_ZNSt11_Tuple_implILm0EJPN7testing8internal22ParamIteratorInterfaceISt5tupleIJSt4pairIddES5_dS5_EEEESt14default_deleteIS7_EEE7_M_headERKSB_
FNDA:100,_ZNSt11_Tuple_implILm0EJPN7testing8internal22ParamIteratorInterfaceISt5tupleIJSt4pairIddES5_dS5_EEEESt14default_deleteIS7_EEE7_M_headERKSB_
FN:271,_ZNSt11_Tuple_implILm2EJdSt4pairIddEEE7_M_headERKS2_
FNDA:24,_ZNSt11_Tuple_implILm2EJdSt4pairIddEEE7_M_headERKS2_
FN:271,_ZNSt11_Tuple_implILm0EJPNSt7__cxx1112basic_stringIcSt11char_traitsIcESaIcEEESt14default_deleteIS5_EEE7_M_headERKS9_
FNDA:0,_ZNSt11_Tuple_implILm0EJPNSt7__cxx1112basic_stringIcSt11char_traitsIcESaIcEEESt14default_deleteIS5_EEE7_M_headERKS9_
FN:271,_ZNSt11_Tuple_implILm1EJSt4pairIddEdS1_EE7_M_headERKS2_
FNDA:24,_ZNSt11_Tuple_implILm1EJSt4pairIddEdS1_EE7_M_headERKS2_
FN:271,_ZNSt11_Tuple_implILm0EJSt4pairIddES1_dS1_EE7_M_headERKS2_
FNDA:24,_ZNSt11_Tuple_implILm0EJSt4pairIddES1_dS1_EE7_M_headERKS2_
FN:271,_ZNSt11_Tuple_implILm0EJPNSt7__cxx1118basic_stringstreamIcSt11char_traitsIcESaIcEEESt14default_deleteIS5_EEE7_M_headERKS9_
FNDA:3984,_ZNSt11_Tuple_implILm0EJPNSt7__cxx1118basic_stringstreamIcSt11char_traitsIcESaIcEEESt14default_deleteIS5_EEE7_M_headERKS9_
FN:271,_ZNSt11_Tuple_implILm0EJPKSt5tupleIJSt4pairIddES2_dS2_EESt14default_deleteIS4_EEE7_M_headERKS8_
FNDA:72,_ZNSt11_Tuple_implILm0EJPKSt5tupleIJSt4pairIddES2_dS2_EESt14default_deleteIS4_EEE7_M_headERKS8_
FN:271,_ZNSt11_Tuple_implILm0EJPN7testing8internal19TestMetaFactoryBaseISt5tupleIJSt4pairIddES5_dS5_EEEESt14default_deleteIS7_EEE7_M_headERKSB_
FNDA:12,_ZNSt11_Tuple_implILm0EJPN7testing8internal19TestMetaFactoryBaseISt5tupleIJSt4pairIddES5_dS5_EEEESt14default_deleteIS7_EEE7_M_headERKSB_
FN:279,_ZNSt11_Tuple_implILm0EJPN25vector_pursuit_controller23VectorPursuitControllerESt14default_deleteIS1_EEEC2Ev
FNDA:1,_ZNSt11_Tuple_implILm0EJPN25vector_pursuit_controller23VectorPursuitControllerESt14default_deleteIS1_EEEC2Ev
FN:279,_ZNSt11_Tuple_implILm0EJPN7testing8internal19TestMetaFactoryBaseISt5tupleIJSt4pairIddES5_dS5_EEEESt14default_deleteIS7_EEEC2Ev
FNDA:1,_ZNSt11_Tuple_implILm0EJPN7testing8internal19TestMetaFactoryBaseISt5tupleIJSt4pairIddES5_dS5_EEEESt14default_deleteIS7_EEEC2Ev
FN:279,_ZNSt11_Tuple_implILm0EJPN10path_utils14LeftTurnAroundESt14default_deleteIS1_EEEC2Ev
FNDA:1,_ZNSt11_Tuple_implILm0EJPN10path_utils14LeftTurnAroundESt14default_deleteIS1_EEEC2Ev
FN:279,_ZNSt11_Tuple_implILm0EJPN15nav2_costmap_2d25FootprintCollisionCheckerIPNS0_9Costmap2DEEESt14default_deleteIS4_EEEC2Ev
FNDA:26,_ZNSt11_Tuple_implILm0EJPN15nav2_costmap_2d25FootprintCollisionCheckerIPNS0_9Costmap2DEEESt14default_deleteIS4_EEEC2Ev
FN:279,_ZNSt11_Tuple_implILm0EJPN7testing8internal22ParamIteratorInterfaceISt5tupleIJSt4pairIddES5_dS5_EEEESt14default_deleteIS7_EEEC2Ev
FNDA:14,_ZNSt11_Tuple_implILm0EJPN7testing8internal22ParamIteratorInterfaceISt5tupleIJSt4pairIddES5_dS5_EEEESt14default_deleteIS7_EEEC2Ev
FN:279,_ZNSt11_Tuple_implILm0EJPN10path_utils10LeftCircleESt14default_deleteIS1_EEEC2Ev
FNDA:4,_ZNSt11_Tuple_implILm0EJPN10path_utils10LeftCircleESt14default_deleteIS1_EEEC2Ev
FN:279,_ZNSt11_Tuple_implILm0EJPN10path_utils8StraightESt14default_deleteIS1_EEEC2Ev
FNDA:5,_ZNSt11_Tuple_implILm0EJPN10path_utils8StraightESt14default_deleteIS1_EEEC2Ev
FN:279,_ZNSt11_Tuple_implILm0EJPKSt5tupleIJSt4pairIddES2_dS2_EESt14default_deleteIS4_EEEC2Ev
FNDA:14,_ZNSt11_Tuple_implILm0EJPKSt5tupleIJSt4pairIddES2_dS2_EESt14default_deleteIS4_EEEC2Ev
FN:279,_ZNSt11_Tuple_implILm0EJPNSt7__cxx1112basic_stringIcSt11char_traitsIcESaIcEEESt14default_deleteIS5_EEEC2Ev
FNDA:134,_ZNSt11_Tuple_implILm0EJPNSt7__cxx1112basic_stringIcSt11char_traitsIcESaIcEEESt14default_deleteIS5_EEEC2Ev
FN:283,_ZNSt11_Tuple_implILm1EJSt4pairIddEdS1_EEC2ERKS1_RKdS4_
FNDA:12,_ZNSt11_Tuple_implILm1EJSt4pairIddEdS1_EEC2ERKS1_RKdS4_
FN:283,_ZNSt11_Tuple_implILm0EJSt4pairIddES1_dS1_EEC2ERKS1_S4_RKdS4_
FNDA:12,_ZNSt11_Tuple_implILm0EJSt4pairIddES1_dS1_EEC2ERKS1_S4_RKdS4_
FN:283,_ZNSt11_Tuple_implILm2EJdSt4pairIddEEEC2ERKdRKS1_
FNDA:12,_ZNSt11_Tuple_implILm2EJdSt4pairIddEEEC2ERKdRKS1_
FN:290,_ZNSt11_Tuple_implILm0EJPN10path_utils11PathSegmentESt14default_deleteIS1_EEEC2IRS2_JS3_INS0_14LeftTurnAroundEEEvEEOT_DpOT0_
FNDA:1,_ZNSt11_Tuple_implILm0EJPN10path_utils11PathSegmentESt14default_deleteIS1_EEEC2IRS2_JS3_INS0_14LeftTurnAroundEEEvEEOT_DpOT0_
FN:290,_ZNSt11_Tuple_implILm0EJPN10path_utils11PathSegmentESt14default_deleteIS1_EEEC2IRS2_JS3_INS0_10LeftCircleEEEvEEOT_DpOT0_
FNDA:4,_ZNSt11_Tuple_implILm0EJPN10path_utils11PathSegmentESt14default_deleteIS1_EEEC2IRS2_JS3_INS0_10LeftCircleEEEvEEOT_DpOT0_
FN:290,_ZNSt11_Tuple_implILm0EJPN10path_utils11PathSegmentESt14default_deleteIS1_EEEC2IRS2_JS3_INS0_8StraightEEEvEEOT_DpOT0_
FNDA:5,_ZNSt11_Tuple_implILm0EJPN10path_utils11PathSegmentESt14default_deleteIS1_EEEC2IRS2_JS3_INS0_8StraightEEEvEEOT_DpOT0_
FN:301,_ZNSt11_Tuple_implILm0EJSt4pairIddES1_dS1_EEC2EOS2_
FNDA:60,_ZNSt11_Tuple_implILm0EJSt4pairIddES1_dS1_EEC2EOS2_
FN:301,_ZNSt11_Tuple_implILm2EJdSt4pairIddEEEC2EOS2_
FNDA:60,_ZNSt11_Tuple_implILm2EJdSt4pairIddEEEC2EOS2_
FN:301,_ZNSt11_Tuple_implILm1EJSt4pairIddEdS1_EEC2EOS2_
FNDA:60,_ZNSt11_Tuple_implILm1EJSt4pairIddEdS1_EEC2EOS2_
FN:424,_ZNSt11_Tuple_implILm1EJSt14default_deleteIN10path_utils8StraightEEEE7_M_headERS4_
FNDA:5,_ZNSt11_Tuple_implILm1EJSt14default_deleteIN10path_utils8StraightEEEE7_M_headERS4_
FN:424,_ZNSt11_Tuple_implILm1EJSt14default_deleteIN7testing8internal22ParamIteratorInterfaceISt5tupleIJSt4pairIddES6_dS6_EEEEEEE7_M_headERSA_
FNDA:14,_ZNSt11_Tuple_implILm1EJSt14default_deleteIN7testing8internal22ParamIteratorInterfaceISt5tupleIJSt4pairIddES6_dS6_EEEEEEE7_M_headERSA_
FN:424,_ZNSt11_Tuple_implILm1EJSt14default_deleteIN10path_utils10LeftCircleEEEE7_M_headERS4_
FNDA:4,_ZNSt11_Tuple_implILm1EJSt14default_deleteIN10path_utils10LeftCircleEEEE7_M_headERS4_
FN:424,_ZNSt11_Tuple_implILm1EJSt14default_deleteIN7testing8internal19TestMetaFactoryBaseISt5tupleIJSt4pairIddES6_dS6_EEEEEEE7_M_headERSA_
FNDA:1,_ZNSt11_Tuple_implILm1EJSt14default_deleteIN7testing8internal19TestMetaFactoryBaseISt5tupleIJSt4pairIddES6_dS6_EEEEEEE7_M_headERSA_
FN:424,_ZNSt11_Tuple_implILm1EJSt14default_deleteIN10path_utils14LeftTurnAroundEEEE7_M_headERS4_
FNDA:1,_ZNSt11_Tuple_implILm1EJSt14default_deleteIN10path_utils14LeftTurnAroundEEEE7_M_headERS4_
FN:424,_ZNSt11_Tuple_implILm1EJSt14default_deleteIKSt5tupleIJSt4pairIddES3_dS3_EEEEE7_M_headERS7_
FNDA:12,_ZNSt11_Tuple_implILm1EJSt14default_deleteIKSt5tupleIJSt4pairIddES3_dS3_EEEEE7_M_headERS7_
FN:424,_ZNSt11_Tuple_implILm1EJPFvP18rcl_node_options_sEEE7_M_headERS4_
FNDA:12,_ZNSt11_Tuple_implILm1EJPFvP18rcl_node_options_sEEE7_M_headERS4_
FN:424,_ZNSt11_Tuple_implILm1EJSt14default_deleteINSt7__cxx1118basic_stringstreamIcSt11char_traitsIcESaIcEEEEEE7_M_headERS8_
FNDA:345,_ZNSt11_Tuple_implILm1EJSt14default_deleteINSt7__cxx1118basic_stringstreamIcSt11char_traitsIcESaIcEEEEEE7_M_headERS8_
FN:424,_ZNSt11_Tuple_implILm1EJSt14default_deleteIN25vector_pursuit_controller23VectorPursuitControllerEEEE7_M_headERS4_
FNDA:1,_ZNSt11_Tuple_implILm1EJSt14default_deleteIN25vector_pursuit_controller23VectorPursuitControllerEEEE7_M_headERS4_
FN:424,_ZNSt11_Tuple_implILm1EJSt14default_deleteINSt7__cxx1112basic_stringIcSt11char_traitsIcESaIcEEEEEE7_M_headERS8_
FNDA:0,_ZNSt11_Tuple_implILm1EJSt14default_deleteINSt7__cxx1112basic_stringIcSt11char_traitsIcESaIcEEEEEE7_M_headERS8_
FN:424,_ZNSt11_Tuple_implILm1EJSt14default_deleteIN15nav2_costmap_2d25FootprintCollisionCheckerIPNS1_9Costmap2DEEEEEE7_M_headERS7_
FNDA:42,_ZNSt11_Tuple_implILm1EJSt14default_deleteIN15nav2_costmap_2d25FootprintCollisionCheckerIPNS1_9Costmap2DEEEEEE7_M_headERS7_
FN:424,_ZNSt11_Tuple_implILm1EJSt14default_deleteIN10path_utils11PathSegmentEEEE7_M_headERS4_
FNDA:10,_ZNSt11_Tuple_implILm1EJSt14default_deleteIN10path_utils11PathSegmentEEEE7_M_headERS4_
FN:427,_ZNSt11_Tuple_implILm3EJSt4pairIddEEE7_M_headERKS2_
FNDA:24,_ZNSt11_Tuple_implILm3EJSt4pairIddEEE7_M_headERKS2_
FN:430,_ZNSt11_Tuple_implILm1EJSt14default_deleteIN7testing8internal22ParamIteratorInterfaceISt5tupleIJSt4pairIddES6_dS6_EEEEEEEC2Ev
FNDA:14,_ZNSt11_Tuple_implILm1EJSt14default_deleteIN7testing8internal22ParamIteratorInterfaceISt5tupleIJSt4pairIddES6_dS6_EEEEEEEC2Ev
FN:430,_ZNSt11_Tuple_implILm1EJSt14default_deleteIN7testing8internal19TestMetaFactoryBaseISt5tupleIJSt4pairIddES6_dS6_EEEEEEEC2Ev
FNDA:1,_ZNSt11_Tuple_implILm1EJSt14default_deleteIN7testing8internal19TestMetaFactoryBaseISt5tupleIJSt4pairIddES6_dS6_EEEEEEEC2Ev
FN:430,_ZNSt11_Tuple_implILm1EJSt14default_deleteINSt7__cxx1112basic_stringIcSt11char_traitsIcESaIcEEEEEEC2Ev
FNDA:134,_ZNSt11_Tuple_implILm1EJSt14default_deleteINSt7__cxx1112basic_stringIcSt11char_traitsIcESaIcEEEEEEC2Ev
FN:430,_ZNSt11_Tuple_implILm1EJSt14default_deleteIN15nav2_costmap_2d25FootprintCollisionCheckerIPNS1_9Costmap2DEEEEEEC2Ev
FNDA:26,_ZNSt11_Tuple_implILm1EJSt14default_deleteIN15nav2_costmap_2d25FootprintCollisionCheckerIPNS1_9Costmap2DEEEEEEC2Ev
FN:430,_ZNSt11_Tuple_implILm1EJSt14default_deleteIN10path_utils8StraightEEEEC2Ev
FNDA:5,_ZNSt11_Tuple_implILm1EJSt14default_deleteIN10path_utils8StraightEEEEC2Ev
FN:430,_ZNSt11_Tuple_implILm1EJSt14default_deleteIN25vector_pursuit_controller23VectorPursuitControllerEEEEC2Ev
FNDA:1,_ZNSt11_Tuple_implILm1EJSt14default_deleteIN25vector_pursuit_controller23VectorPursuitControllerEEEEC2Ev
FN:430,_ZNSt11_Tuple_implILm1EJSt14default_deleteIKSt5tupleIJSt4pairIddES3_dS3_EEEEEC2Ev
FNDA:14,_ZNSt11_Tuple_implILm1EJSt14default_deleteIKSt5tupleIJSt4pairIddES3_dS3_EEEEEC2Ev
FN:430,_ZNSt11_Tuple_implILm1EJSt14default_deleteIN10path_utils10LeftCircleEEEEC2Ev
FNDA:4,_ZNSt11_Tuple_implILm1EJSt14default_deleteIN10path_utils10LeftCircleEEEEC2Ev
FN:430,_ZNSt11_Tuple_implILm1EJSt14default_deleteIN10path_utils14LeftTurnAroundEEEEC2Ev
FNDA:1,_ZNSt11_Tuple_implILm1EJSt14default_deleteIN10path_utils14LeftTurnAroundEEEEC2Ev
FN:434,_ZNSt11_Tuple_implILm3EJSt4pairIddEEEC2ERKS1_
FNDA:12,_ZNSt11_Tuple_implILm3EJSt4pairIddEEEC2ERKS1_
FN:440,_ZNSt11_Tuple_implILm0EJN7testing8internal10ValueArrayIJSt5tupleIJSt4pairIddES5_dS5_EES6_S6_S6_S6_S6_S6_S6_S6_S6_S6_S6_EEEEEC2IS7_EEOT_
FNDA:0,_ZNSt11_Tuple_implILm0EJN7testing8internal10ValueArrayIJSt5tupleIJSt4pairIddES5_dS5_EES6_S6_S6_S6_S6_S6_S6_S6_S6_S6_S6_EEEEEC2IS7_EEOT_
FN:440,_ZNSt11_Tuple_implILm1EJSt14default_deleteIN10path_utils11PathSegmentEEEEC2IS0_INS1_10LeftCircleEEEEOT_
FNDA:4,_ZNSt11_Tuple_implILm1EJSt14default_deleteIN10path_utils11PathSegmentEEEEC2IS0_INS1_10LeftCircleEEEEOT_
FN:440,_ZNSt11_Tuple_implILm1EJSt14default_deleteIN10path_utils11PathSegmentEEEEC2IS0_INS1_8StraightEEEEOT_
FNDA:5,_ZNSt11_Tuple_implILm1EJSt14default_deleteIN10path_utils11PathSegmentEEEEC2IS0_INS1_8StraightEEEEOT_
FN:440,_ZNSt11_Tuple_implILm1EJSt14default_deleteIN10path_utils11PathSegmentEEEEC2IS0_INS1_14LeftTurnAroundEEEEOT_
FNDA:1,_ZNSt11_Tuple_implILm1EJSt14default_deleteIN10path_utils11PathSegmentEEEEC2IS0_INS1_14LeftTurnAroundEEEEOT_
FN:454,_ZNSt11_Tuple_implILm3EJSt4pairIddEEEC2EOS2_
FNDA:60,_ZNSt11_Tuple_implILm3EJSt4pairIddEEEC2EOS2_
FN:727,_ZNSt5tupleIJSt4pairIddES1_dS1_EEC2ILb1ELb1EEERKS1_S5_RKdS5_
FNDA:12,_ZNSt5tupleIJSt4pairIddES1_dS1_EEC2ILb1ELb1EEERKS1_S5_RKdS5_
FN:742,_ZNSt5tupleIJN7testing8internal10ValueArrayIJS_IJSt4pairIddES4_dS4_EES5_S5_S5_S5_S5_S5_S5_S5_S5_S5_S5_EEEEEC2IJS6_ELb1ELb1EEEDpOT_
FNDA:0,_ZNSt5tupleIJN7testing8internal10ValueArrayIJS_IJSt4pairIddES4_dS4_EES5_S5_S5_S5_S5_S5_S5_S5_S5_S5_S5_EEEEEC2IJS6_ELb1ELb1EEEDpOT_
FN:756,_ZNSt5tupleIJSt4pairIddES1_dS1_EEC2EOS2_
FNDA:60,_ZNSt5tupleIJSt4pairIddES1_dS1_EEC2EOS2_
FN:1049,_ZNSt5tupleIJPN7testing8internal19TestMetaFactoryBaseIS_IJSt4pairIddES4_dS4_EEEESt14default_deleteIS6_EEEC2ILb1ELb1EEEv
FNDA:1,_ZNSt5tupleIJPN7testing8internal19TestMetaFactoryBaseIS_IJSt4pairIddES4_dS4_EEEESt14default_deleteIS6_EEEC2ILb1ELb1EEEv
FN:1049,_ZNSt5tupleIJPN10path_utils8StraightESt14default_deleteIS1_EEEC2ILb1ELb1EEEv
FNDA:5,_ZNSt5tupleIJPN10path_utils8StraightESt14default_deleteIS1_EEEC2ILb1ELb1EEEv
FN:1049,_ZNSt5tupleIJPKS_IJSt4pairIddES1_dS1_EESt14default_deleteIS3_EEEC2ILb1ELb1EEEv
FNDA:14,_ZNSt5tupleIJPKS_IJSt4pairIddES1_dS1_EESt14default_deleteIS3_EEEC2ILb1ELb1EEEv
FN:1049,_ZNSt5tupleIJPN25vector_pursuit_controller23VectorPursuitControllerESt14default_deleteIS1_EEEC2ILb1ELb1EEEv
FNDA:1,_ZNSt5tupleIJPN25vector_pursuit_controller23VectorPursuitControllerESt14default_deleteIS1_EEEC2ILb1ELb1EEEv
FN:1049,_ZNSt5tupleIJPN10path_utils10LeftCircleESt14default_deleteIS1_EEEC2ILb1ELb1EEEv
FNDA:4,_ZNSt5tupleIJPN10path_utils10LeftCircleESt14default_deleteIS1_EEEC2ILb1ELb1EEEv
FN:1049,_ZNSt5tupleIJPN10path_utils14LeftTurnAroundESt14default_deleteIS1_EEEC2ILb1ELb1EEEv
FNDA:1,_ZNSt5tupleIJPN10path_utils14LeftTurnAroundESt14default_deleteIS1_EEEC2ILb1ELb1EEEv
FN:1049,_ZNSt5tupleIJPN15nav2_costmap_2d25FootprintCollisionCheckerIPNS0_9Costmap2DEEESt14default_deleteIS4_EEEC2ILb1ELb1EEEv
FNDA:26,_ZNSt5tupleIJPN15nav2_costmap_2d25FootprintCollisionCheckerIPNS0_9Costmap2DEEESt14default_deleteIS4_EEEC2ILb1ELb1EEEv
FN:1049,_ZNSt5tupleIJPN7testing8internal22ParamIteratorInterfaceIS_IJSt4pairIddES4_dS4_EEEESt14default_deleteIS6_EEEC2ILb1ELb1EEEv
FNDA:14,_ZNSt5tupleIJPN7testing8internal22ParamIteratorInterfaceIS_IJSt4pairIddES4_dS4_EEEESt14default_deleteIS6_EEEC2ILb1ELb1EEEv
FN:1049,_ZNSt5tupleIJPNSt7__cxx1112basic_stringIcSt11char_traitsIcESaIcEEESt14default_deleteIS5_EEEC2ILb1ELb1EEEv
FNDA:134,_ZNSt5tupleIJPNSt7__cxx1112basic_stringIcSt11char_traitsIcESaIcEEESt14default_deleteIS5_EEEC2ILb1ELb1EEEv
FN:1077,_ZNSt5tupleIJPN10path_utils11PathSegmentESt14default_deleteIS1_EEEC2IRS2_S3_INS0_8StraightEELb1EEEOT_OT0_
FNDA:5,_ZNSt5tupleIJPN10path_utils11PathSegmentESt14default_deleteIS1_EEEC2IRS2_S3_INS0_8StraightEELb1EEEOT_OT0_
FN:1077,_ZNSt5tupleIJPN10path_utils11PathSegmentESt14default_deleteIS1_EEEC2IRS2_S3_INS0_10LeftCircleEELb1EEEOT_OT0_
FNDA:4,_ZNSt5tupleIJPN10path_utils11PathSegmentESt14default_deleteIS1_EEEC2IRS2_S3_INS0_10LeftCircleEELb1EEEOT_OT0_
FN:1077,_ZNSt5tupleIJPN10path_utils11PathSegmentESt14default_deleteIS1_EEEC2IRS2_S3_INS0_14LeftTurnAroundEELb1EEEOT_OT0_
FNDA:1,_ZNSt5tupleIJPN10path_utils11PathSegmentESt14default_deleteIS1_EEEC2IRS2_S3_INS0_14LeftTurnAroundEELb1EEEOT_OT0_
FN:1377,_ZSt12__get_helperILm0EPNSt7__cxx1118basic_stringstreamIcSt11char_traitsIcESaIcEEEJSt14default_deleteIS5_EEERT0_RSt11_Tuple_implIXT_EJS9_DpT1_EE
FNDA:690,_ZSt12__get_helperILm0EPNSt7__cxx1118basic_stringstreamIcSt11char_traitsIcESaIcEEEJSt14default_deleteIS5_EEERT0_RSt11_Tuple_implIXT_EJS9_DpT1_EE
FN:1377,_ZSt12__get_helperILm1ESt14default_deleteIN15nav2_costmap_2d25FootprintCollisionCheckerIPNS1_9Costmap2DEEEEJEERT0_RSt11_Tuple_implIXT_EJS7_DpT1_EE
FNDA:42,_ZSt12__get_helperILm1ESt14default_deleteIN15nav2_costmap_2d25FootprintCollisionCheckerIPNS1_9Costmap2DEEEEJEERT0_RSt11_Tuple_implIXT_EJS7_DpT1_EE
FN:1377,_ZSt12__get_helperILm1ESt14default_deleteIN7testing8internal19TestMetaFactoryBaseISt5tupleIJSt4pairIddES6_dS6_EEEEEJEERT0_RSt11_Tuple_implIXT_EJSA_DpT1_EE
FNDA:1,_ZSt12__get_helperILm1ESt14default_deleteIN7testing8internal19TestMetaFactoryBaseISt5tupleIJSt4pairIddES6_dS6_EEEEEJEERT0_RSt11_Tuple_implIXT_EJSA_DpT1_EE
FN:1377,_ZSt12__get_helperILm1ESt14default_deleteIKSt5tupleIJSt4pairIddES3_dS3_EEEJEERT0_RSt11_Tuple_implIXT_EJS7_DpT1_EE
FNDA:12,_ZSt12__get_helperILm1ESt14default_deleteIKSt5tupleIJSt4pairIddES3_dS3_EEEJEERT0_RSt11_Tuple_implIXT_EJS7_DpT1_EE
FN:1377,_ZSt12__get_helperILm0EP18rcl_node_options_sJPFvS1_EEERT0_RSt11_Tuple_implIXT_EJS4_DpT1_EE
FNDA:12,_ZSt12__get_helperILm0EP18rcl_node_options_sJPFvS1_EEERT0_RSt11_Tuple_implIXT_EJS4_DpT1_EE
FN:1377,_ZSt12__get_helperILm0EPN15nav2_costmap_2d25FootprintCollisionCheckerIPNS0_9Costmap2DEEEJSt14default_deleteIS4_EEERT0_RSt11_Tuple_implIXT_EJS8_DpT1_EE
FNDA:96,_ZSt12__get_helperILm0EPN15nav2_costmap_2d25FootprintCollisionCheckerIPNS0_9Costmap2DEEEJSt14default_deleteIS4_EEERT0_RSt11_Tuple_implIXT_EJS8_DpT1_EE
FN:1377,_ZSt12__get_helperILm0EPNSt7__cxx1112basic_stringIcSt11char_traitsIcESaIcEEEJSt14default_deleteIS5_EEERT0_RSt11_Tuple_implIXT_EJS9_DpT1_EE
FNDA:134,_ZSt12__get_helperILm0EPNSt7__cxx1112basic_stringIcSt11char_traitsIcESaIcEEEJSt14default_deleteIS5_EEERT0_RSt11_Tuple_implIXT_EJS9_DpT1_EE
FN:1377,_ZSt12__get_helperILm1ESt14default_deleteIN7testing8internal22ParamIteratorInterfaceISt5tupleIJSt4pairIddES6_dS6_EEEEEJEERT0_RSt11_Tuple_implIXT_EJSA_DpT1_EE
FNDA:14,_ZSt12__get_helperILm1ESt14default_deleteIN7testing8internal22ParamIteratorInterfaceISt5tupleIJSt4pairIddES6_dS6_EEEEEJEERT0_RSt11_Tuple_implIXT_EJSA_DpT1_EE
FN:1377,_ZSt12__get_helperILm0EPN7testing8internal22ParamIteratorInterfaceISt5tupleIJSt4pairIddES5_dS5_EEEEJSt14default_deleteIS7_EEERT0_RSt11_Tuple_implIXT_EJSB_DpT1_EE
FNDA:28,_ZSt12__get_helperILm0EPN7testing8internal22ParamIteratorInterfaceISt5tupleIJSt4pairIddES5_dS5_EEEEJSt14default_deleteIS7_EEERT0_RSt11_Tuple_implIXT_EJSB_DpT1_EE
FN:1377,_ZSt12__get_helperILm1EPFvP18rcl_node_options_sEJEERT0_RSt11_Tuple_implIXT_EJS4_DpT1_EE
FNDA:12,_ZSt12__get_helperILm1EPFvP18rcl_node_options_sEJEERT0_RSt11_Tuple_implIXT_EJS4_DpT1_EE
FN:1377,_ZSt12__get_helperILm0EPKSt5tupleIJSt4pairIddES2_dS2_EEJSt14default_deleteIS4_EEERT0_RSt11_Tuple_implIXT_EJS8_DpT1_EE
FNDA:62,_ZSt12__get_helperILm0EPKSt5tupleIJSt4pairIddES2_dS2_EEJSt14default_deleteIS4_EEERT0_RSt11_Tuple_implIXT_EJS8_DpT1_EE
FN:1377,_ZSt12__get_helperILm0EPN7testing8internal19TestMetaFactoryBaseISt5tupleIJSt4pairIddES5_dS5_EEEEJSt14default_deleteIS7_EEERT0_RSt11_Tuple_implIXT_EJSB_DpT1_EE
FNDA:2,_ZSt12__get_helperILm0EPN7testing8internal19TestMetaFactoryBaseISt5tupleIJSt4pairIddES5_dS5_EEEEJSt14default_deleteIS7_EEERT0_RSt11_Tuple_implIXT_EJSB_DpT1_EE
FN:1377,_ZSt12__get_helperILm0EPN10path_utils8StraightEJSt14default_deleteIS1_EEERT0_RSt11_Tuple_implIXT_EJS5_DpT1_EE
FNDA:20,_ZSt12__get_helperILm0EPN10path_utils8StraightEJSt14default_deleteIS1_EEERT0_RSt11_Tuple_implIXT_EJS5_DpT1_EE
FN:1377,_ZSt12__get_helperILm1ESt14default_deleteIN10path_utils8StraightEEJEERT0_RSt11_Tuple_implIXT_EJS4_DpT1_EE
FNDA:5,_ZSt12__get_helperILm1ESt14default_deleteIN10path_utils8StraightEEJEERT0_RSt11_Tuple_implIXT_EJS4_DpT1_EE
FN:1377,_ZSt12__get_helperILm0EPN10path_utils14LeftTurnAroundEJSt14default_deleteIS1_EEERT0_RSt11_Tuple_implIXT_EJS5_DpT1_EE
FNDA:4,_ZSt12__get_helperILm0EPN10path_utils14LeftTurnAroundEJSt14default_deleteIS1_EEERT0_RSt11_Tuple_implIXT_EJS5_DpT1_EE
FN:1377,_ZSt12__get_helperILm0EPN10path_utils10LeftCircleEJSt14default_deleteIS1_EEERT0_RSt11_Tuple_implIXT_EJS5_DpT1_EE
FNDA:16,_ZSt12__get_helperILm0EPN10path_utils10LeftCircleEJSt14default_deleteIS1_EEERT0_RSt11_Tuple_implIXT_EJS5_DpT1_EE
FN:1377,_ZSt12__get_helperILm0EPN10path_utils11PathSegmentEJSt14default_deleteIS1_EEERT0_RSt11_Tuple_implIXT_EJS5_DpT1_EE
FNDA:10,_ZSt12__get_helperILm0EPN10path_utils11PathSegmentEJSt14default_deleteIS1_EEERT0_RSt11_Tuple_implIXT_EJS5_DpT1_EE
FN:1377,_ZSt12__get_helperILm1ESt14default_deleteINSt7__cxx1112basic_stringIcSt11char_traitsIcESaIcEEEEJEERT0_RSt11_Tuple_implIXT_EJS8_DpT1_EE
FNDA:0,_ZSt12__get_helperILm1ESt14default_deleteINSt7__cxx1112basic_stringIcSt11char_traitsIcESaIcEEEEJEERT0_RSt11_Tuple_implIXT_EJS8_DpT1_EE
FN:1377,_ZSt12__get_helperILm1ESt14default_deleteIN10path_utils10LeftCircleEEJEERT0_RSt11_Tuple_implIXT_EJS4_DpT1_EE
FNDA:4,_ZSt12__get_helperILm1ESt14default_deleteIN10path_utils10LeftCircleEEJEERT0_RSt11_Tuple_implIXT_EJS4_DpT1_EE
FN:1377,_ZSt12__get_helperILm1ESt14default_deleteIN25vector_pursuit_controller23VectorPursuitControllerEEJEERT0_RSt11_Tuple_implIXT_EJS4_DpT1_EE
FNDA:1,_ZSt12__get_helperILm1ESt14default_deleteIN25vector_pursuit_controller23VectorPursuitControllerEEJEERT0_RSt11_Tuple_implIXT_EJS4_DpT1_EE
FN:1377,_ZSt12__get_helperILm0EPN25vector_pursuit_controller23VectorPursuitControllerEJSt14default_deleteIS1_EEERT0_RSt11_Tuple_implIXT_EJS5_DpT1_EE
FNDA:2,_ZSt12__get_helperILm0EPN25vector_pursuit_controller23VectorPursuitControllerEJSt14default_deleteIS1_EEERT0_RSt11_Tuple_implIXT_EJS5_DpT1_EE
FN:1377,_ZSt12__get_helperILm1ESt14default_deleteIN10path_utils14LeftTurnAroundEEJEERT0_RSt11_Tuple_implIXT_EJS4_DpT1_EE
FNDA:1,_ZSt12__get_helperILm1ESt14default_deleteIN10path_utils14LeftTurnAroundEEJEERT0_RSt11_Tuple_implIXT_EJS4_DpT1_EE
FN:1377,_ZSt12__get_helperILm1ESt14default_deleteIN10path_utils11PathSegmentEEJEERT0_RSt11_Tuple_implIXT_EJS4_DpT1_EE
FNDA:10,_ZSt12__get_helperILm1ESt14default_deleteIN10path_utils11PathSegmentEEJEERT0_RSt11_Tuple_implIXT_EJS4_DpT1_EE
FN:1377,_ZSt12__get_helperILm1ESt14default_deleteINSt7__cxx1118basic_stringstreamIcSt11char_traitsIcESaIcEEEEJEERT0_RSt11_Tuple_implIXT_EJS8_DpT1_EE
FNDA:345,_ZSt12__get_helperILm1ESt14default_deleteINSt7__cxx1118basic_stringstreamIcSt11char_traitsIcESaIcEEEEJEERT0_RSt11_Tuple_implIXT_EJS8_DpT1_EE
FN:1382,_ZSt12__get_helperILm0EPN25vector_pursuit_controller23VectorPursuitControllerEJSt14default_deleteIS1_EEERKT0_RKSt11_Tuple_implIXT_EJS5_DpT1_EE
FNDA:2,_ZSt12__get_helperILm0EPN25vector_pursuit_controller23VectorPursuitControllerEJSt14default_deleteIS1_EEERKT0_RKSt11_Tuple_implIXT_EJS5_DpT1_EE
FN:1382,_ZSt12__get_helperILm0EPN7testing8internal19TestMetaFactoryBaseISt5tupleIJSt4pairIddES5_dS5_EEEEJSt14default_deleteIS7_EEERKT0_RKSt11_Tuple_implIXT_EJSB_DpT1_EE
FNDA:12,_ZSt12__get_helperILm0EPN7testing8internal19TestMetaFactoryBaseISt5tupleIJSt4pairIddES5_dS5_EEEEJSt14default_deleteIS7_EEERKT0_RKSt11_Tuple_implIXT_EJSB_DpT1_EE
FN:1382,_ZSt12__get_helperILm3ESt4pairIddEJEERKT0_RKSt11_Tuple_implIXT_EJS2_DpT1_EE
FNDA:24,_ZSt12__get_helperILm3ESt4pairIddEJEERKT0_RKSt11_Tuple_implIXT_EJS2_DpT1_EE
FN:1382,_ZSt12__get_helperILm2EdJSt4pairIddEEERKT0_RKSt11_Tuple_implIXT_EJS2_DpT1_EE
FNDA:24,_ZSt12__get_helperILm2EdJSt4pairIddEEERKT0_RKSt11_Tuple_implIXT_EJS2_DpT1_EE
FN:1382,_ZSt12__get_helperILm0EPNSt7__cxx1112basic_stringIcSt11char_traitsIcESaIcEEEJSt14default_deleteIS5_EEERKT0_RKSt11_Tuple_implIXT_EJS9_DpT1_EE
FNDA:0,_ZSt12__get_helperILm0EPNSt7__cxx1112basic_stringIcSt11char_traitsIcESaIcEEEJSt14default_deleteIS5_EEERKT0_RKSt11_Tuple_implIXT_EJS9_DpT1_EE
FN:1382,_ZSt12__get_helperILm1ESt4pairIddEJdS1_EERKT0_RKSt11_Tuple_implIXT_EJS2_DpT1_EE
FNDA:24,_ZSt12__get_helperILm1ESt4pairIddEJdS1_EERKT0_RKSt11_Tuple_implIXT_EJS2_DpT1_EE
FN:1382,_ZSt12__get_helperILm0ESt4pairIddEJS1_dS1_EERKT0_RKSt11_Tuple_implIXT_EJS2_DpT1_EE
FNDA:24,_ZSt12__get_helperILm0ESt4pairIddEJS1_dS1_EERKT0_RKSt11_Tuple_implIXT_EJS2_DpT1_EE
FN:1382,_ZSt12__get_helperILm0EPNSt7__cxx1118basic_stringstreamIcSt11char_traitsIcESaIcEEEJSt14default_deleteIS5_EEERKT0_RKSt11_Tuple_implIXT_EJS9_DpT1_EE
FNDA:3984,_ZSt12__get_helperILm0EPNSt7__cxx1118basic_stringstreamIcSt11char_traitsIcESaIcEEEJSt14default_deleteIS5_EEERKT0_RKSt11_Tuple_implIXT_EJS9_DpT1_EE
FN:1382,_ZSt12__get_helperILm0EPN7testing8internal22ParamIteratorInterfaceISt5tupleIJSt4pairIddES5_dS5_EEEEJSt14default_deleteIS7_EEERKT0_RKSt11_Tuple_implIXT_EJSB_DpT1_EE
FNDA:100,_ZSt12__get_helperILm0EPN7testing8internal22ParamIteratorInterfaceISt5tupleIJSt4pairIddES5_dS5_EEEEJSt14default_deleteIS7_EEERKT0_RKSt11_Tuple_implIXT_EJSB_DpT1_EE
FN:1382,_ZSt12__get_helperILm0EPKSt5tupleIJSt4pairIddES2_dS2_EEJSt14default_deleteIS4_EEERKT0_RKSt11_Tuple_implIXT_EJS8_DpT1_EE
FNDA:72,_ZSt12__get_helperILm0EPKSt5tupleIJSt4pairIddES2_dS2_EEJSt14default_deleteIS4_EEERKT0_RKSt11_Tuple_implIXT_EJS8_DpT1_EE
FN:1393,_ZSt3getILm0EJPNSt7__cxx1118basic_stringstreamIcSt11char_traitsIcESaIcEEESt14default_deleteIS5_EEERNSt13tuple_elementIXT_ESt5tupleIJDpT0_EEE4typeERSD_
FNDA:690,_ZSt3getILm0EJPNSt7__cxx1118basic_stringstreamIcSt11char_traitsIcESaIcEEESt14default_deleteIS5_EEERNSt13tuple_elementIXT_ESt5tupleIJDpT0_EEE4typeERSD_
FN:1393,_ZSt3getILm0EJPNSt7__cxx1112basic_stringIcSt11char_traitsIcESaIcEEESt14default_deleteIS5_EEERNSt13tuple_elementIXT_ESt5tupleIJDpT0_EEE4typeERSD_
FNDA:134,_ZSt3getILm0EJPNSt7__cxx1112basic_stringIcSt11char_traitsIcESaIcEEESt14default_deleteIS5_EEERNSt13tuple_elementIXT_ESt5tupleIJDpT0_EEE4typeERSD_
FN:1393,_ZSt3getILm1EJPN10path_utils14LeftTurnAroundESt14default_deleteIS1_EEERNSt13tuple_elementIXT_ESt5tupleIJDpT0_EEE4typeERS9_
FNDA:1,_ZSt3getILm1EJPN10path_utils14LeftTurnAroundESt14default_deleteIS1_EEERNSt13tuple_elementIXT_ESt5tupleIJDpT0_EEE4typeERS9_
FN:1393,_ZSt3getILm0EJPN15nav2_costmap_2d25FootprintCollisionCheckerIPNS0_9Costmap2DEEESt14default_deleteIS4_EEERNSt13tuple_elementIXT_ESt5tupleIJDpT0_EEE4typeERSC_
FNDA:96,_ZSt3getILm0EJPN15nav2_costmap_2d25FootprintCollisionCheckerIPNS0_9Costmap2DEEESt14default_deleteIS4_EEERNSt13tuple_elementIXT_ESt5tupleIJDpT0_EEE4typeERSC_
FN:1393,_ZSt3getILm1EJPKSt5tupleIJSt4pairIddES2_dS2_EESt14default_deleteIS4_EEERNSt13tuple_elementIXT_ES0_IJDpT0_EEE4typeERSB_
FNDA:12,_ZSt3getILm1EJPKSt5tupleIJSt4pairIddES2_dS2_EESt14default_deleteIS4_EEERNSt13tuple_elementIXT_ES0_IJDpT0_EEE4typeERSB_
FN:1393,_ZSt3getILm0EJPN7testing8internal19TestMetaFactoryBaseISt5tupleIJSt4pairIddES5_dS5_EEEESt14default_deleteIS7_EEERNSt13tuple_elementIXT_ES3_IJDpT0_EEE4typeERSE_
FNDA:2,_ZSt3getILm0EJPN7testing8internal19TestMetaFactoryBaseISt5tupleIJSt4pairIddES5_dS5_EEEESt14default_deleteIS7_EEERNSt13tuple_elementIXT_ES3_IJDpT0_EEE4typeERSE_
FN:1393,_ZSt3getILm1EJPN7testing8internal19TestMetaFactoryBaseISt5tupleIJSt4pairIddES5_dS5_EEEESt14default_deleteIS7_EEERNSt13tuple_elementIXT_ES3_IJDpT0_EEE4typeERSE_
FNDA:1,_ZSt3getILm1EJPN7testing8internal19TestMetaFactoryBaseISt5tupleIJSt4pairIddES5_dS5_EEEESt14default_deleteIS7_EEERNSt13tuple_elementIXT_ES3_IJDpT0_EEE4typeERSE_
FN:1393,_ZSt3getILm0EJP18rcl_node_options_sPFvS1_EEERNSt13tuple_elementIXT_ESt5tupleIJDpT0_EEE4typeERS8_
FNDA:12,_ZSt3getILm0EJP18rcl_node_options_sPFvS1_EEERNSt13tuple_elementIXT_ESt5tupleIJDpT0_EEE4typeERS8_
FN:1393,_ZSt3getILm1EJPN10path_utils8StraightESt14default_deleteIS1_EEERNSt13tuple_elementIXT_ESt5tupleIJDpT0_EEE4typeERS9_
FNDA:5,_ZSt3getILm1EJPN10path_utils8StraightESt14default_deleteIS1_EEERNSt13tuple_elementIXT_ESt5tupleIJDpT0_EEE4typeERS9_
FN:1393,_ZSt3getILm0EJPN7testing8internal22ParamIteratorInterfaceISt5tupleIJSt4pairIddES5_dS5_EEEESt14default_deleteIS7_EEERNSt13tuple_elementIXT_ES3_IJDpT0_EEE4typeERSE_
FNDA:28,_ZSt3getILm0EJPN7testing8internal22ParamIteratorInterfaceISt5tupleIJSt4pairIddES5_dS5_EEEESt14default_deleteIS7_EEERNSt13tuple_elementIXT_ES3_IJDpT0_EEE4typeERSE_
FN:1393,_ZSt3getILm1EJPN15nav2_costmap_2d25FootprintCollisionCheckerIPNS0_9Costmap2DEEESt14default_deleteIS4_EEERNSt13tuple_elementIXT_ESt5tupleIJDpT0_EEE4typeERSC_
FNDA:42,_ZSt3getILm1EJPN15nav2_costmap_2d25FootprintCollisionCheckerIPNS0_9Costmap2DEEESt14default_deleteIS4_EEERNSt13tuple_elementIXT_ESt5tupleIJDpT0_EEE4typeERSC_
FN:1393,_ZSt3getILm1EJPN10path_utils11PathSegmentESt14default_deleteIS1_EEERNSt13tuple_elementIXT_ESt5tupleIJDpT0_EEE4typeERS9_
FNDA:10,_ZSt3getILm1EJPN10path_utils11PathSegmentESt14default_deleteIS1_EEERNSt13tuple_elementIXT_ESt5tupleIJDpT0_EEE4typeERS9_
FN:1393,_ZSt3getILm1EJP18rcl_node_options_sPFvS1_EEERNSt13tuple_elementIXT_ESt5tupleIJDpT0_EEE4typeERS8_
FNDA:12,_ZSt3getILm1EJP18rcl_node_options_sPFvS1_EEERNSt13tuple_elementIXT_ESt5tupleIJDpT0_EEE4typeERS8_
FN:1393,_ZSt3getILm1EJPNSt7__cxx1112basic_stringIcSt11char_traitsIcESaIcEEESt14default_deleteIS5_EEERNSt13tuple_elementIXT_ESt5tupleIJDpT0_EEE4typeERSD_
FNDA:0,_ZSt3getILm1EJPNSt7__cxx1112basic_stringIcSt11char_traitsIcESaIcEEESt14default_deleteIS5_EEERNSt13tuple_elementIXT_ESt5tupleIJDpT0_EEE4typeERSD_
FN:1393,_ZSt3getILm1EJPN10path_utils10LeftCircleESt14default_deleteIS1_EEERNSt13tuple_elementIXT_ESt5tupleIJDpT0_EEE4typeERS9_
FNDA:4,_ZSt3getILm1EJPN10path_utils10LeftCircleESt14default_deleteIS1_EEERNSt13tuple_elementIXT_ESt5tupleIJDpT0_EEE4typeERS9_
FN:1393,_ZSt3getILm1EJPNSt7__cxx1118basic_stringstreamIcSt11char_traitsIcESaIcEEESt14default_deleteIS5_EEERNSt13tuple_elementIXT_ESt5tupleIJDpT0_EEE4typeERSD_
FNDA:345,_ZSt3getILm1EJPNSt7__cxx1118basic_stringstreamIcSt11char_traitsIcESaIcEEESt14default_deleteIS5_EEERNSt13tuple_elementIXT_ESt5tupleIJDpT0_EEE4typeERSD_
FN:1393,_ZSt3getILm1EJPN25vector_pursuit_controller23VectorPursuitControllerESt14default_deleteIS1_EEERNSt13tuple_elementIXT_ESt5tupleIJDpT0_EEE4typeERS9_
FNDA:1,_ZSt3getILm1EJPN25vector_pursuit_controller23VectorPursuitControllerESt14default_deleteIS1_EEERNSt13tuple_elementIXT_ESt5tupleIJDpT0_EEE4typeERS9_
FN:1393,_ZSt3getILm0EJPN10path_utils14LeftTurnAroundESt14default_deleteIS1_EEERNSt13tuple_elementIXT_ESt5tupleIJDpT0_EEE4typeERS9_
FNDA:4,_ZSt3getILm0EJPN10path_utils14LeftTurnAroundESt14default_deleteIS1_EEERNSt13tuple_elementIXT_ESt5tupleIJDpT0_EEE4typeERS9_
FN:1393,_ZSt3getILm0EJPN10path_utils10LeftCircleESt14default_deleteIS1_EEERNSt13tuple_elementIXT_ESt5tupleIJDpT0_EEE4typeERS9_
FNDA:16,_ZSt3getILm0EJPN10path_utils10LeftCircleESt14default_deleteIS1_EEERNSt13tuple_elementIXT_ESt5tupleIJDpT0_EEE4typeERS9_
FN:1393,_ZSt3getILm0EJPKSt5tupleIJSt4pairIddES2_dS2_EESt14default_deleteIS4_EEERNSt13tuple_elementIXT_ES0_IJDpT0_EEE4typeERSB_
FNDA:62,_ZSt3getILm0EJPKSt5tupleIJSt4pairIddES2_dS2_EESt14default_deleteIS4_EEERNSt13tuple_elementIXT_ES0_IJDpT0_EEE4typeERSB_
FN:1393,_ZSt3getILm0EJPN25vector_pursuit_controller23VectorPursuitControllerESt14default_deleteIS1_EEERNSt13tuple_elementIXT_ESt5tupleIJDpT0_EEE4typeERS9_
FNDA:2,_ZSt3getILm0EJPN25vector_pursuit_controller23VectorPursuitControllerESt14default_deleteIS1_EEERNSt13tuple_elementIXT_ESt5tupleIJDpT0_EEE4typeERS9_
FN:1393,_ZSt3getILm0EJPN10path_utils11PathSegmentESt14default_deleteIS1_EEERNSt13tuple_elementIXT_ESt5tupleIJDpT0_EEE4typeERS9_
FNDA:10,_ZSt3getILm0EJPN10path_utils11PathSegmentESt14default_deleteIS1_EEERNSt13tuple_elementIXT_ESt5tupleIJDpT0_EEE4typeERS9_
FN:1393,_ZSt3getILm0EJPN10path_utils8StraightESt14default_deleteIS1_EEERNSt13tuple_elementIXT_ESt5tupleIJDpT0_EEE4typeERS9_
FNDA:20,_ZSt3getILm0EJPN10path_utils8StraightESt14default_deleteIS1_EEERNSt13tuple_elementIXT_ESt5tupleIJDpT0_EEE4typeERS9_
FN:1393,_ZSt3getILm1EJPN7testing8internal22ParamIteratorInterfaceISt5tupleIJSt4pairIddES5_dS5_EEEESt14default_deleteIS7_EEERNSt13tuple_elementIXT_ES3_IJDpT0_EEE4typeERSE_
FNDA:14,_ZSt3getILm1EJPN7testing8internal22ParamIteratorInterfaceISt5tupleIJSt4pairIddES5_dS5_EEEESt14default_deleteIS7_EEERNSt13tuple_elementIXT_ES3_IJDpT0_EEE4typeERSE_
FN:1399,_ZSt3getILm2EJSt4pairIddES1_dS1_EERKNSt13tuple_elementIXT_ESt5tupleIJDpT0_EEE4typeERKS6_
FNDA:24,_ZSt3getILm2EJSt4pairIddES1_dS1_EERKNSt13tuple_elementIXT_ESt5tupleIJDpT0_EEE4typeERKS6_
FN:1399,_ZSt3getILm1EJSt4pairIddES1_dS1_EERKNSt13tuple_elementIXT_ESt5tupleIJDpT0_EEE4typeERKS6_
FNDA:24,_ZSt3getILm1EJSt4pairIddES1_dS1_EERKNSt13tuple_elementIXT_ESt5tupleIJDpT0_EEE4typeERKS6_
FN:1399,_ZSt3getILm0EJSt4pairIddES1_dS1_EERKNSt13tuple_elementIXT_ESt5tupleIJDpT0_EEE4typeERKS6_
FNDA:24,_ZSt3getILm0EJSt4pairIddES1_dS1_EERKNSt13tuple_elementIXT_ESt5tupleIJDpT0_EEE4typeERKS6_
FN:1399,_ZSt3getILm3EJSt4pairIddES1_dS1_EERKNSt13tuple_elementIXT_ESt5tupleIJDpT0_EEE4typeERKS6_
FNDA:24,_ZSt3getILm3EJSt4pairIddES1_dS1_EERKNSt13tuple_elementIXT_ESt5tupleIJDpT0_EEE4typeERKS6_
FN:1399,_ZSt3getILm0EJPNSt7__cxx1118basic_stringstreamIcSt11char_traitsIcESaIcEEESt14default_deleteIS5_EEERKNSt13tuple_elementIXT_ESt5tupleIJDpT0_EEE4typeERKSD_
FNDA:3984,_ZSt3getILm0EJPNSt7__cxx1118basic_stringstreamIcSt11char_traitsIcESaIcEEESt14default_deleteIS5_EEERKNSt13tuple_elementIXT_ESt5tupleIJDpT0_EEE4typeERKSD_
FN:1399,_ZSt3getILm0EJPKSt5tupleIJSt4pairIddES2_dS2_EESt14default_deleteIS4_EEERKNSt13tuple_elementIXT_ES0_IJDpT0_EEE4typeERKSB_
FNDA:72,_ZSt3getILm0EJPKSt5tupleIJSt4pairIddES2_dS2_EESt14default_deleteIS4_EEERKNSt13tuple_elementIXT_ES0_IJDpT0_EEE4typeERKSB_
FN:1399,_ZSt3getILm0EJPN25vector_pursuit_controller23VectorPursuitControllerESt14default_deleteIS1_EEERKNSt13tuple_elementIXT_ESt5tupleIJDpT0_EEE4typeERKS9_
FNDA:2,_ZSt3getILm0EJPN25vector_pursuit_controller23VectorPursuitControllerESt14default_deleteIS1_EEERKNSt13tuple_elementIXT_ESt5tupleIJDpT0_EEE4typeERKS9_
FN:1399,_ZSt3getILm0EJPNSt7__cxx1112basic_stringIcSt11char_traitsIcESaIcEEESt14default_deleteIS5_EEERKNSt13tuple_elementIXT_ESt5tupleIJDpT0_EEE4typeERKSD_
FNDA:0,_ZSt3getILm0EJPNSt7__cxx1112basic_stringIcSt11char_traitsIcESaIcEEESt14default_deleteIS5_EEERKNSt13tuple_elementIXT_ESt5tupleIJDpT0_EEE4typeERKSD_
FN:1399,_ZSt3getILm0EJPN7testing8internal22ParamIteratorInterfaceISt5tupleIJSt4pairIddES5_dS5_EEEESt14default_deleteIS7_EEERKNSt13tuple_elementIXT_ES3_IJDpT0_EEE4typeERKSE_
FNDA:100,_ZSt3getILm0EJPN7testing8internal22ParamIteratorInterfaceISt5tupleIJSt4pairIddES5_dS5_EEEESt14default_deleteIS7_EEERKNSt13tuple_elementIXT_ES3_IJDpT0_EEE4typeERKSE_
FN:1399,_ZSt3getILm0EJPN7testing8internal19TestMetaFactoryBaseISt5tupleIJSt4pairIddES5_dS5_EEEESt14default_deleteIS7_EEERKNSt13tuple_elementIXT_ES3_IJDpT0_EEE4typeERKSE_
FNDA:12,_ZSt3getILm0EJPN7testing8internal19TestMetaFactoryBaseISt5tupleIJSt4pairIddES5_dS5_EEEESt14default_deleteIS7_EEERKNSt13tuple_elementIXT_ES3_IJDpT0_EEE4typeERKSE_
FN:1605,_ZSt10make_tupleIJN7testing8internal10ValueArrayIJSt5tupleIJSt4pairIddES5_dS5_EES6_S6_S6_S6_S6_S6_S6_S6_S6_S6_S6_EEEEES3_IJDpNSt25__strip_reference_wrapperINSt5decayIT_E4typeEE6__typeEEEDpOSA_
FNDA:0,_ZSt10make_tupleIJN7testing8internal10ValueArrayIJSt5tupleIJSt4pairIddES5_dS5_EES6_S6_S6_S6_S6_S6_S6_S6_S6_S6_S6_EEEEES3_IJDpNSt25__strip_reference_wrapperINSt5decayIT_E4typeEE6__typeEEEDpOSA_
DA:80,14
DA:81,14
DA:80,14
DA:81,14
DA:80,1
DA:81,1
DA:80,1
DA:81,1
DA:80,4
DA:81,4
DA:80,1
DA:81,1
DA:80,5
DA:81,5
DA:80,134
DA:81,134
DA:80,26
DA:81,26
DA:90,1
DA:91,1
DA:90,4
DA:91,4
DA:90,5
DA:91,5
DA:124,12
DA:124,14
DA:124,1
DA:124,1
DA:124,4
DA:124,1
DA:124,10
DA:124,5
DA:124,42
DA:124,0
DA:124,345
DA:189,14
DA:190,14
DA:189,14
DA:190,14
DA:189,1
DA:190,1
DA:189,1
DA:190,1
DA:189,4
DA:190,4
DA:189,1
DA:190,1
DA:189,5
DA:190,5
DA:189,134
DA:190,134
DA:189,26
DA:190,26
DA:192,12
DA:193,12
DA:192,12
DA:193,12
DA:192,12
DA:193,12
DA:192,12
DA:193,12
DA:199,10
DA:200,10
DA:199,0
DA:200,0
DA:233,62
DA:233,12
DA:233,28
DA:233,12
DA:233,2
DA:233,4
DA:233,16
DA:233,3
DA:233,10
DA:233,20
DA:233,96
DA:233,134
DA:233,690
DA:236,72
DA:236,100
DA:236,12
DA:236,2
DA:236,3984
DA:236,0
DA:236,24
DA:236,24
DA:236,24
DA:236,24
DA:268,62
DA:268,28
DA:268,12
DA:268,2
DA:268,4
DA:268,16
DA:268,2
DA:268,10
DA:268,20
DA:268,96
DA:268,134
DA:268,690
DA:271,72
DA:271,100
DA:271,12
DA:271,2
DA:271,3984
DA:271,0
DA:271,24
DA:271,24
DA:271,24
DA:279,14
DA:280,14
DA:279,14
DA:280,14
DA:279,1
DA:280,1
DA:279,1
DA:280,1
DA:279,4
DA:280,4
DA:279,1
DA:280,1
DA:279,5
DA:280,5
DA:279,134
DA:280,134
DA:279,26
DA:280,26
DA:283,12
DA:284,12
DA:285,12
DA:283,12
DA:284,12
DA:285,12
DA:283,12
DA:284,12
DA:285,12
DA:290,1
DA:292,1
DA:293,1
DA:290,4
DA:292,4
DA:293,4
DA:290,5
DA:292,5
DA:293,5
DA:301,60
DA:301,60
DA:301,60
DA:424,12
DA:424,14
DA:424,12
DA:424,1
DA:424,1
DA:424,4
DA:424,1
DA:424,10
DA:424,5
DA:424,42
DA:424,0
DA:424,345
DA:427,24
DA:430,14
DA:431,14
DA:430,14
DA:431,14
DA:430,1
DA:431,1
DA:430,1
DA:431,1
DA:430,4
DA:431,4
DA:430,1
DA:431,1
DA:430,5
DA:431,5
DA:430,134
DA:431,134
DA:430,26
DA:431,26
DA:434,12
DA:435,12
DA:436,12
DA:440,1
DA:441,1
DA:442,1
DA:440,4
DA:441,4
DA:442,4
DA:440,5
DA:441,5
DA:442,5
DA:440,0
DA:441,0
DA:442,0
DA:454,60
DA:456,60
DA:457,60
DA:727,12
DA:729,12
DA:742,0
DA:744,0
DA:756,60
DA:1049,14
DA:1051,14
DA:1049,14
DA:1051,14
DA:1049,1
DA:1051,1
DA:1049,1
DA:1051,1
DA:1049,4
DA:1051,4
DA:1049,1
DA:1051,1
DA:1049,5
DA:1051,5
DA:1049,134
DA:1051,134
DA:1049,26
DA:1051,26
DA:1077,1
DA:1079,1
DA:1077,4
DA:1079,4
DA:1077,5
DA:1079,5
DA:1377,5
DA:1378,5
DA:1377,690
DA:1378,690
DA:1377,134
DA:1378,134
DA:1377,96
DA:1378,96
DA:1377,20
DA:1378,20
DA:1377,10
DA:1378,10
DA:1377,2
DA:1378,2
DA:1377,16
DA:1378,16
DA:1377,4
DA:1378,4
DA:1377,345
DA:1378,345
DA:1377,0
DA:1378,0
DA:1377,42
DA:1378,42
DA:1377,12
DA:1378,12
DA:1377,10
DA:1378,10
DA:1377,1
DA:1378,1
DA:1377,4
DA:1378,4
DA:1377,1
DA:1378,1
DA:1377,2
DA:1378,2
DA:1377,1
DA:1378,1
DA:1377,12
DA:1378,12
DA:1377,28
DA:1378,28
DA:1377,12
DA:1378,12
DA:1377,62
DA:1378,62
DA:1377,14
DA:1378,14
DA:1382,72
DA:1383,72
DA:1382,100
DA:1383,100
DA:1382,12
DA:1383,12
DA:1382,2
DA:1383,2
DA:1382,3984
DA:1383,3984
DA:1382,0
DA:1383,0
DA:1382,24
DA:1383,24
DA:1382,24
DA:1383,24
DA:1382,24
DA:1383,24
DA:1382,24
DA:1383,24
DA:1393,5
DA:1394,5
DA:1393,690
DA:1394,690
DA:1393,134
DA:1394,134
DA:1393,96
DA:1394,96
DA:1393,20
DA:1394,20
DA:1393,10
DA:1394,10
DA:1393,2
DA:1394,2
DA:1393,16
DA:1394,16
DA:1393,4
DA:1394,4
DA:1393,345
DA:1394,345
DA:1393,0
DA:1394,0
DA:1393,42
DA:1394,42
DA:1393,12
DA:1394,12
DA:1393,10
DA:1394,10
DA:1393,1
DA:1394,1
DA:1393,4
DA:1394,4
DA:1393,1
DA:1394,1
DA:1393,2
DA:1394,2
DA:1393,1
DA:1394,1
DA:1393,12
DA:1394,12
DA:1393,28
DA:1394,28
DA:1393,12
DA:1394,12
DA:1393,62
DA:1394,62
DA:1393,14
DA:1394,14
DA:1399,72
DA:1400,72
DA:1399,100
DA:1400,100
DA:1399,12
DA:1400,12
DA:1399,2
DA:1400,2
DA:1399,3984
DA:1400,3984
DA:1399,0
DA:1400,0
DA:1399,24
DA:1400,24
DA:1399,24
DA:1400,24
DA:1399,24
DA:1400,24
DA:1399,24
DA:1400,24
DA:1605,0
DA:1609,0
end_of_record
SF:/usr/include/c++/11/bits/stl_iterator_base_funcs.h
FN:98,_ZSt10__distanceIN9__gnu_cxx17__normal_iteratorIPKSt5tupleIJSt4pairIddES4_dS4_EESt6vectorIS5_SaIS5_EEEEENSt15iterator_traitsIT_E15difference_typeESD_SD_St26random_access_iterator_tag
FNDA:1,_ZSt10__distanceIN9__gnu_cxx17__normal_iteratorIPKSt5tupleIJSt4pairIddES4_dS4_EESt6vectorIS5_SaIS5_EEEEENSt15iterator_traitsIT_E15difference_typeESD_SD_St26random_access_iterator_tag
FN:98,_ZSt10__distanceIPKSt5tupleIJSt4pairIddES2_dS2_EEENSt15iterator_traitsIT_E15difference_typeES7_S7_St26random_access_iterator_tag
FNDA:1,_ZSt10__distanceIPKSt5tupleIJSt4pairIddES2_dS2_EEENSt15iterator_traitsIT_E15difference_typeES7_S7_St26random_access_iterator_tag
FN:98,_ZSt10__distanceIPcENSt15iterator_traitsIT_E15difference_typeES2_S2_St26random_access_iterator_tag
FNDA:0,_ZSt10__distanceIPcENSt15iterator_traitsIT_E15difference_typeES2_S2_St26random_access_iterator_tag
FN:98,_ZSt10__distanceIPKN13geometry_msgs3msg17TransformStamped_ISaIvEEEENSt15iterator_traitsIT_E15difference_typeES8_S8_St26random_access_iterator_tag
FNDA:7,_ZSt10__distanceIPKN13geometry_msgs3msg17TransformStamped_ISaIvEEEENSt15iterator_traitsIT_E15difference_typeES8_S8_St26random_access_iterator_tag
FN:98,_ZSt10__distanceIPKN6rclcpp9ParameterEENSt15iterator_traitsIT_E15difference_typeES5_S5_St26random_access_iterator_tag
FNDA:8,_ZSt10__distanceIPKN6rclcpp9ParameterEENSt15iterator_traitsIT_E15difference_typeES5_S5_St26random_access_iterator_tag
FN:98,_ZSt10__distanceIPKcENSt15iterator_traitsIT_E15difference_typeES3_S3_St26random_access_iterator_tag
FNDA:2549,_ZSt10__distanceIPKcENSt15iterator_traitsIT_E15difference_typeES3_S3_St26random_access_iterator_tag
FN:138,_ZSt8distanceIN9__gnu_cxx17__normal_iteratorIPKSt5tupleIJSt4pairIddES4_dS4_EESt6vectorIS5_SaIS5_EEEEENSt15iterator_traitsIT_E15difference_typeESD_SD_
FNDA:1,_ZSt8distanceIN9__gnu_cxx17__normal_iteratorIPKSt5tupleIJSt4pairIddES4_dS4_EESt6vectorIS5_SaIS5_EEEEENSt15iterator_traitsIT_E15difference_typeESD_SD_
FN:138,_ZSt8distanceIPKSt5tupleIJSt4pairIddES2_dS2_EEENSt15iterator_traitsIT_E15difference_typeES7_S7_
FNDA:1,_ZSt8distanceIPKSt5tupleIJSt4pairIddES2_dS2_EEENSt15iterator_traitsIT_E15difference_typeES7_S7_
FN:138,_ZSt8distanceIPcENSt15iterator_traitsIT_E15difference_typeES2_S2_
FNDA:0,_ZSt8distanceIPcENSt15iterator_traitsIT_E15difference_typeES2_S2_
FN:138,_ZSt8distanceIPKN13geometry_msgs3msg17TransformStamped_ISaIvEEEENSt15iterator_traitsIT_E15difference_typeES8_S8_
FNDA:7,_ZSt8distanceIPKN13geometry_msgs3msg17TransformStamped_ISaIvEEEENSt15iterator_traitsIT_E15difference_typeES8_S8_
FN:138,_ZSt8distanceIPKN6rclcpp9ParameterEENSt15iterator_traitsIT_E15difference_typeES5_S5_
FNDA:8,_ZSt8distanceIPKN6rclcpp9ParameterEENSt15iterator_traitsIT_E15difference_typeES5_S5_
FN:138,_ZSt8distanceIPKcENSt15iterator_traitsIT_E15difference_typeES3_S3_
FNDA:2549,_ZSt8distanceIPKcENSt15iterator_traitsIT_E15difference_typeES3_S3_
FN:174,_ZSt9__advanceIPKN13geometry_msgs3msg17TransformStamped_ISaIvEEElEvRT_T0_St26random_access_iterator_tag
FNDA:0,_ZSt9__advanceIPKN13geometry_msgs3msg17TransformStamped_ISaIvEEElEvRT_T0_St26random_access_iterator_tag
FN:202,_ZSt7advanceIPKN13geometry_msgs3msg17TransformStamped_ISaIvEEEmEvRT_T0_
FNDA:0,_ZSt7advanceIPKN13geometry_msgs3msg17TransformStamped_ISaIvEEEmEvRT_T0_
DA:98,1
DA:104,1
DA:98,1
DA:104,1
DA:98,0
DA:104,0
DA:98,7
DA:104,7
DA:98,8
DA:104,8
DA:98,2549
DA:104,2549
DA:138,1
DA:141,1
DA:142,2
DA:138,1
DA:141,1
DA:142,2
DA:138,0
DA:141,0
DA:142,0
DA:138,7
DA:141,7
DA:142,14
DA:138,8
DA:141,8
DA:142,16
DA:138,2549
DA:141,2549
DA:142,5098
DA:174,0
DA:185,0
DA:186,0
DA:202,0
DA:205,0
DA:206,0
DA:207,0
end_of_record
SF:/opt/ros/humble/include/rclcpp/rclcpp/executor_options.hpp
FN:30,_ZN6rclcpp15ExecutorOptionsC2Ev
FNDA:1,_ZN6rclcpp15ExecutorOptionsC2Ev
DA:30,1
DA:31,1
DA:32,1
DA:33,1
DA:34,1
end_of_record
SF:/usr/include/c++/11/bits/shared_ptr.h
FN:148,_ZNSt10shared_ptrIN6rclcpp7ContextEEC2Ev
FNDA:1,_ZNSt10shared_ptrIN6rclcpp7ContextEEC2Ev
FN:148,_ZNSt10shared_ptrI10ControllerEC2Ev
FNDA:7,_ZNSt10shared_ptrI10ControllerEC2Ev
FN:148,_ZNSt10shared_ptrIN6rclcpp15node_interfaces29OnSetParametersCallbackHandleEEC2Ev
FNDA:12,_ZNSt10shared_ptrIN6rclcpp15node_interfaces29OnSetParametersCallbackHandleEEC2Ev
FN:148,_ZNSt10shared_ptrIN16rclcpp_lifecycle18LifecyclePublisherIN13geometry_msgs3msg12PoseStamped_ISaIvEEES5_EEEC2Ev
FNDA:12,_ZNSt10shared_ptrIN16rclcpp_lifecycle18LifecyclePublisherIN13geometry_msgs3msg12PoseStamped_ISaIvEEES5_EEEC2Ev
FN:148,_ZNSt10shared_ptrIN16rclcpp_lifecycle18LifecyclePublisherIN8nav_msgs3msg5Path_ISaIvEEES5_EEEC2Ev
FNDA:24,_ZNSt10shared_ptrIN16rclcpp_lifecycle18LifecyclePublisherIN8nav_msgs3msg5Path_ISaIvEEES5_EEEC2Ev
FN:148,_ZNSt10shared_ptrIN6rclcpp5ClockEEC2Ev
FNDA:12,_ZNSt10shared_ptrIN6rclcpp5ClockEEC2Ev
FN:148,_ZNSt10shared_ptrIN15nav2_costmap_2d12Costmap2DROSEEC2Ev
FNDA:19,_ZNSt10shared_ptrIN15nav2_costmap_2d12Costmap2DROSEEC2Ev
FN:148,_ZNSt10shared_ptrIN7tf2_ros6BufferEEC2Ev
FNDA:19,_ZNSt10shared_ptrIN7tf2_ros6BufferEEC2Ev
FN:148,_ZNSt10shared_ptrIN16rclcpp_lifecycle13LifecycleNodeEEC2Ev
FNDA:7,_ZNSt10shared_ptrIN16rclcpp_lifecycle13LifecycleNodeEEC2Ev
FN:148,_ZNSt10shared_ptrIN6rclcpp4NodeEEC2Ev
FNDA:12,_ZNSt10shared_ptrIN6rclcpp4NodeEEC2Ev
FN:148,_ZNSt10shared_ptrIN6rclcpp13CallbackGroupEEC2Ev
FNDA:43,_ZNSt10shared_ptrIN6rclcpp13CallbackGroupEEC2Ev
FN:150,_ZNSt10shared_ptrIN16rclcpp_lifecycle13LifecycleNodeEEC2ERKS2_
FNDA:414,_ZNSt10shared_ptrIN16rclcpp_lifecycle13LifecycleNodeEEC2ERKS2_
FN:150,_ZNSt10shared_ptrIN15nav2_costmap_2d12Costmap2DROSEEC2ERKS2_
FNDA:15,_ZNSt10shared_ptrIN15nav2_costmap_2d12Costmap2DROSEEC2ERKS2_
FN:150,_ZNSt10shared_ptrIN7tf2_ros6BufferEEC2ERKS2_
FNDA:14,_ZNSt10shared_ptrIN7tf2_ros6BufferEEC2ERKS2_
FN:150,_ZNSt10shared_ptrIN6rclcpp15node_interfaces17NodeBaseInterfaceEEC2ERKS3_
FNDA:3,_ZNSt10shared_ptrIN6rclcpp15node_interfaces17NodeBaseInterfaceEEC2ERKS3_
FN:150,_ZNSt10shared_ptrIN6rclcpp7ContextEEC2ERKS2_
FNDA:4,_ZNSt10shared_ptrIN6rclcpp7ContextEEC2ERKS2_
FN:150,_ZNSt10shared_ptrIN7testing8internal26ParameterizedTestSuiteInfoI29CircleSegmentIntersectionTestE8TestInfoEEC2ERKS6_
FNDA:1,_ZNSt10shared_ptrIN7testing8internal26ParameterizedTestSuiteInfoI29CircleSegmentIntersectionTestE8TestInfoEEC2ERKS6_
FN:160,_ZNSt10shared_ptrIN7testing8internal26ParameterizedTestSuiteInfoI29CircleSegmentIntersectionTestE8TestInfoEEC2IS5_vEEPT_
FNDA:1,_ZNSt10shared_ptrIN7testing8internal26ParameterizedTestSuiteInfoI29CircleSegmentIntersectionTestE8TestInfoEEC2IS5_vEEPT_
FN:160,_ZNSt10shared_ptrIKN7testing8internal23ParamGeneratorInterfaceISt5tupleIJSt4pairIddES5_dS5_EEEEEC2IS7_vEEPT_
FNDA:1,_ZNSt10shared_ptrIKN7testing8internal23ParamGeneratorInterfaceISt5tupleIJSt4pairIddES5_dS5_EEEEEC2IS7_vEEPT_
FN:304,_ZNSt10shared_ptrIN6rclcpp15node_interfaces21NodeServicesInterfaceEEC2EOS3_
FNDA:1,_ZNSt10shared_ptrIN6rclcpp15node_interfaces21NodeServicesInterfaceEEC2EOS3_
FN:304,_ZNSt10shared_ptrIN6rclcpp15node_interfaces18NodeGraphInterfaceEEC2EOS3_
FNDA:1,_ZNSt10shared_ptrIN6rclcpp15node_interfaces18NodeGraphInterfaceEEC2EOS3_
FN:304,_ZNSt10shared_ptrIN6rclcpp15node_interfaces19NodeTopicsInterfaceEEC2EOS3_
FNDA:1,_ZNSt10shared_ptrIN6rclcpp15node_interfaces19NodeTopicsInterfaceEEC2EOS3_
FN:304,_ZNSt10shared_ptrIN6rclcpp15node_interfaces17NodeBaseInterfaceEEC2EOS3_
FNDA:1,_ZNSt10shared_ptrIN6rclcpp15node_interfaces17NodeBaseInterfaceEEC2EOS3_
FN:304,_ZNSt10shared_ptrIN6rclcpp5ClockEEC2EOS2_
FNDA:12,_ZNSt10shared_ptrIN6rclcpp5ClockEEC2EOS2_
FN:304,_ZNSt10shared_ptrIN7testing8internal26ParameterizedTestSuiteInfoI29CircleSegmentIntersectionTestE8TestInfoEEC2EOS6_
FNDA:1,_ZNSt10shared_ptrIN7testing8internal26ParameterizedTestSuiteInfoI29CircleSegmentIntersectionTestE8TestInfoEEC2EOS6_
FN:313,_ZNSt10shared_ptrIN6rclcpp7ContextEEC2INS0_8contexts14DefaultContextEvEEOS_IT_E
FNDA:1,_ZNSt10shared_ptrIN6rclcpp7ContextEEC2INS0_8contexts14DefaultContextEvEEOS_IT_E
FN:357,_ZNSt10shared_ptrIN6rclcpp7ContextEEC2EDn
FNDA:1,_ZNSt10shared_ptrIN6rclcpp7ContextEEC2EDn
FN:357,_ZNSt10shared_ptrIN6rclcpp13CallbackGroupEEC2EDn
FNDA:1,_ZNSt10shared_ptrIN6rclcpp13CallbackGroupEEC2EDn
FN:383,_ZNSt10shared_ptrI10ControllerEaSEOS1_
FNDA:7,_ZNSt10shared_ptrI10ControllerEaSEOS1_
FN:383,_ZNSt10shared_ptrIN16rclcpp_lifecycle13LifecycleNodeEEaSEOS2_
FNDA:7,_ZNSt10shared_ptrIN16rclcpp_lifecycle13LifecycleNodeEEaSEOS2_
FN:383,_ZNSt10shared_ptrIN7tf2_ros6BufferEEaSEOS2_
FNDA:7,_ZNSt10shared_ptrIN7tf2_ros6BufferEEaSEOS2_
FN:383,_ZNSt10shared_ptrIN15nav2_costmap_2d12Costmap2DROSEEaSEOS2_
FNDA:7,_ZNSt10shared_ptrIN15nav2_costmap_2d12Costmap2DROSEEaSEOS2_
FN:408,_ZNSt10shared_ptrIN16rclcpp_lifecycle13LifecycleNodeEEC2ISaIS1_EJRA7_KcEEESt20_Sp_alloc_shared_tagIT_EDpOT0_
FNDA:12,_ZNSt10shared_ptrIN16rclcpp_lifecycle13LifecycleNodeEEC2ISaIS1_EJRA7_KcEEESt20_Sp_alloc_shared_tagIT_EDpOT0_
FN:408,_ZNSt10shared_ptrIN6rclcpp21AsyncParametersClientEEC2ISaIS1_EJS_INS0_15node_interfaces17NodeBaseInterfaceEES_INS5_19NodeTopicsInterfaceEES_INS5_18NodeGraphInterfaceEES_INS5_21NodeServicesInterfaceEEEEESt20_Sp_alloc_shared_tagIT_EDpOT0_
FNDA:1,_ZNSt10shared_ptrIN6rclcpp21AsyncParametersClientEEC2ISaIS1_EJS_INS0_15node_interfaces17NodeBaseInterfaceEES_INS5_19NodeTopicsInterfaceEES_INS5_18NodeGraphInterfaceEES_INS5_21NodeServicesInterfaceEEEEESt20_Sp_alloc_shared_tagIT_EDpOT0_
FN:408,_ZNSt10shared_ptrIN15nav2_costmap_2d12Costmap2DROSEEC2ISaIS1_EJRA15_KcEEESt20_Sp_alloc_shared_tagIT_EDpOT0_
FNDA:1,_ZNSt10shared_ptrIN15nav2_costmap_2d12Costmap2DROSEEC2ISaIS1_EJRA15_KcEEESt20_Sp_alloc_shared_tagIT_EDpOT0_
FN:408,_ZNSt10shared_ptrI10ControllerEC2ISaIS0_EJEEESt20_Sp_alloc_shared_tagIT_EDpOT0_
FNDA:11,_ZNSt10shared_ptrI10ControllerEC2ISaIS0_EJEEESt20_Sp_alloc_shared_tagIT_EDpOT0_
FN:408,_ZNSt10shared_ptrIN15nav2_costmap_2d12Costmap2DROSEEC2ISaIS1_EJRA13_KcEEESt20_Sp_alloc_shared_tagIT_EDpOT0_
FNDA:11,_ZNSt10shared_ptrIN15nav2_costmap_2d12Costmap2DROSEEC2ISaIS1_EJRA13_KcEEESt20_Sp_alloc_shared_tagIT_EDpOT0_
FN:408,_ZNSt10shared_ptrIN7tf2_ros6BufferEEC2ISaIS1_EJS_IN6rclcpp5ClockEEEEESt20_Sp_alloc_shared_tagIT_EDpOT0_
FNDA:12,_ZNSt10shared_ptrIN7tf2_ros6BufferEEC2ISaIS1_EJS_IN6rclcpp5ClockEEEEESt20_Sp_alloc_shared_tagIT_EDpOT0_
FN:699,_ZNSt8weak_ptrIN16rclcpp_lifecycle13LifecycleNodeEEC2Ev
FNDA:12,_ZNSt8weak_ptrIN16rclcpp_lifecycle13LifecycleNodeEEC2Ev
FN:703,_ZNSt8weak_ptrIN16rclcpp_lifecycle13LifecycleNodeEEC2IS1_vEERKSt10shared_ptrIT_E
FNDA:15,_ZNSt8weak_ptrIN16rclcpp_lifecycle13LifecycleNodeEEC2IS1_vEERKSt10shared_ptrIT_E
FN:828,_ZNKSt23enable_shared_from_thisIN16rclcpp_lifecycle13LifecycleNodeEE14_M_weak_assignIS1_EEvPT_RKSt14__shared_countILN9__gnu_cxx12_Lock_policyE2EE
FNDA:12,_ZNKSt23enable_shared_from_thisIN16rclcpp_lifecycle13LifecycleNodeEE14_M_weak_assignIS1_EEvPT_RKSt14__shared_countILN9__gnu_cxx12_Lock_policyE2EE
FN:828,_ZNKSt23enable_shared_from_thisIN16rclcpp_lifecycle13LifecycleNodeEE14_M_weak_assignIN15nav2_costmap_2d12Costmap2DROSEEEvPT_RKSt14__shared_countILN9__gnu_cxx12_Lock_policyE2EE
FNDA:12,_ZNKSt23enable_shared_from_thisIN16rclcpp_lifecycle13LifecycleNodeEE14_M_weak_assignIN15nav2_costmap_2d12Costmap2DROSEEEvPT_RKSt14__shared_countILN9__gnu_cxx12_Lock_policyE2EE
FN:833,_ZSt30__enable_shared_from_this_baseRKSt14__shared_countILN9__gnu_cxx12_Lock_policyE2EEPKSt23enable_shared_from_thisIN16rclcpp_lifecycle13LifecycleNodeEE
FNDA:24,_ZSt30__enable_shared_from_this_baseRKSt14__shared_countILN9__gnu_cxx12_Lock_policyE2EEPKSt23enable_shared_from_thisIN16rclcpp_lifecycle13LifecycleNodeEE
FN:858,_ZSt15allocate_sharedIN15nav2_costmap_2d12Costmap2DROSESaIS1_EJRA13_KcEESt10shared_ptrIT_ERKT0_DpOT1_
FNDA:11,_ZSt15allocate_sharedIN15nav2_costmap_2d12Costmap2DROSESaIS1_EJRA13_KcEESt10shared_ptrIT_ERKT0_DpOT1_
FN:858,_ZSt15allocate_sharedIN7tf2_ros6BufferESaIS1_EJSt10shared_ptrIN6rclcpp5ClockEEEES3_IT_ERKT0_DpOT1_
FNDA:12,_ZSt15allocate_sharedIN7tf2_ros6BufferESaIS1_EJSt10shared_ptrIN6rclcpp5ClockEEEES3_IT_ERKT0_DpOT1_
FN:858,_ZSt15allocate_sharedIN16rclcpp_lifecycle13LifecycleNodeESaIS1_EJRA7_KcEESt10shared_ptrIT_ERKT0_DpOT1_
FNDA:12,_ZSt15allocate_sharedIN16rclcpp_lifecycle13LifecycleNodeESaIS1_EJRA7_KcEESt10shared_ptrIT_ERKT0_DpOT1_
FN:858,_ZSt15allocate_sharedI10ControllerSaIS0_EJEESt10shared_ptrIT_ERKT0_DpOT1_
FNDA:11,_ZSt15allocate_sharedI10ControllerSaIS0_EJEESt10shared_ptrIT_ERKT0_DpOT1_
FN:858,_ZSt15allocate_sharedIN15nav2_costmap_2d12Costmap2DROSESaIS1_EJRA15_KcEESt10shared_ptrIT_ERKT0_DpOT1_
FNDA:1,_ZSt15allocate_sharedIN15nav2_costmap_2d12Costmap2DROSESaIS1_EJRA15_KcEESt10shared_ptrIT_ERKT0_DpOT1_
FN:858,_ZSt15allocate_sharedIN6rclcpp21AsyncParametersClientESaIS1_EJSt10shared_ptrINS0_15node_interfaces17NodeBaseInterfaceEES3_INS4_19NodeTopicsInterfaceEES3_INS4_18NodeGraphInterfaceEES3_INS4_21NodeServicesInterfaceEEEES3_IT_ERKT0_DpOT1_
FNDA:1,_ZSt15allocate_sharedIN6rclcpp21AsyncParametersClientESaIS1_EJSt10shared_ptrINS0_15node_interfaces17NodeBaseInterfaceEES3_INS4_19NodeTopicsInterfaceEES3_INS4_18NodeGraphInterfaceEES3_INS4_21NodeServicesInterfaceEEEES3_IT_ERKT0_DpOT1_
FN:875,_ZSt11make_sharedIN15nav2_costmap_2d12Costmap2DROSEJRA15_KcEESt10shared_ptrIT_EDpOT0_
FNDA:1,_ZSt11make_sharedIN15nav2_costmap_2d12Costmap2DROSEJRA15_KcEESt10shared_ptrIT_EDpOT0_
FN:875,_ZSt11make_sharedIN6rclcpp21AsyncParametersClientEJSt10shared_ptrINS0_15node_interfaces17NodeBaseInterfaceEES2_INS3_19NodeTopicsInterfaceEES2_INS3_18NodeGraphInterfaceEES2_INS3_21NodeServicesInterfaceEEEES2_IT_EDpOT0_
